
puf_template.elf:     file format elf32-littlearm
puf_template.elf
architecture: armv6s-m, flags 0x00000112:
EXEC_P, HAS_SYMS, D_PAGED
start address 0x000000c1

Program Header:
    LOAD off    0x00010000 vaddr 0x00000000 paddr 0x00000000 align 2**16
         filesz 0x0000656c memsz 0x0000656c flags r-x
    LOAD off    0x00020000 vaddr 0x20000000 paddr 0x0000656c align 2**16
         filesz 0x00000158 memsz 0x00010000 flags rw-
private flags = 0x5000200: [Version5 EABI] [soft-float ABI]

Sections:
Idx Name            Size      VMA       LMA       File off  Algn  Flags
  0 .interrupts     000000c0  00000000  00000000  00010000  2**2  CONTENTS, ALLOC, LOAD, READONLY, DATA
  1 .text           000064a4  000000c0  000000c0  000100c0  2**2  CONTENTS, ALLOC, LOAD, READONLY, CODE
  2 .ARM            00000008  00006564  00006564  00016564  2**2  CONTENTS, ALLOC, LOAD, READONLY, DATA
  3 .data           00000158  20000000  0000656c  00020000  2**2  CONTENTS, ALLOC, LOAD, DATA
  4 .code           00000000  20000158  20000158  00020158  2**0  CONTENTS
  5 .bss            00000228  20000158  000066c4  00020158  2**2  ALLOC
  6 .heap           00000400  20000380  000068ec  00020158  2**0  ALLOC
  7 .stack          00000400  2000fc00  0001616c  00020158  2**0  ALLOC
  8 .ARM.attributes 00000028  00000000  00000000  00020158  2**0  CONTENTS, READONLY
  9 .comment        00000043  00000000  00000000  00020180  2**0  CONTENTS, READONLY
 10 .debug_info     000164c9  00000000  00000000  000201c3  2**0  CONTENTS, READONLY, DEBUGGING, OCTETS
 11 .debug_abbrev   0000256a  00000000  00000000  0003668c  2**0  CONTENTS, READONLY, DEBUGGING, OCTETS
 12 .debug_aranges  000008f0  00000000  00000000  00038bf8  2**3  CONTENTS, READONLY, DEBUGGING, OCTETS
 13 .debug_macro    00012acc  00000000  00000000  000394e8  2**0  CONTENTS, READONLY, DEBUGGING, OCTETS
 14 .debug_line     0000d472  00000000  00000000  0004bfb4  2**0  CONTENTS, READONLY, DEBUGGING, OCTETS
 15 .debug_str      00042ab4  00000000  00000000  00059426  2**0  CONTENTS, READONLY, DEBUGGING, OCTETS
 16 .debug_loc      0000ebe7  00000000  00000000  0009beda  2**0  CONTENTS, READONLY, DEBUGGING, OCTETS
 17 .debug_ranges   00000d48  00000000  00000000  000aaac1  2**0  CONTENTS, READONLY, DEBUGGING, OCTETS
 18 .debug_frame    0000169c  00000000  00000000  000ab80c  2**2  CONTENTS, READONLY, DEBUGGING, OCTETS
SYMBOL TABLE:
00000000 l    d  .interrupts	00000000 .interrupts
000000c0 l    d  .text	00000000 .text
00006564 l    d  .ARM	00000000 .ARM
20000000 l    d  .data	00000000 .data
20000158 l    d  .code	00000000 .code
20000158 l    d  .bss	00000000 .bss
20000380 l    d  .heap	00000000 .heap
2000fc00 l    d  .stack	00000000 .stack
00000000 l    d  .ARM.attributes	00000000 .ARM.attributes
00000000 l    d  .comment	00000000 .comment
00000000 l    d  .debug_info	00000000 .debug_info
00000000 l    d  .debug_abbrev	00000000 .debug_abbrev
00000000 l    d  .debug_aranges	00000000 .debug_aranges
00000000 l    d  .debug_macro	00000000 .debug_macro
00000000 l    d  .debug_line	00000000 .debug_line
00000000 l    d  .debug_str	00000000 .debug_str
00000000 l    d  .debug_loc	00000000 .debug_loc
00000000 l    d  .debug_ranges	00000000 .debug_ranges
00000000 l    d  .debug_frame	00000000 .debug_frame
00000000 l    df *ABS*	00000000 startup_tw9001.o
00000102 l       .text	00000000 JumpToSelf
00000000 l    df *ABS*	00000000 _thumb1_case_uqi.o
00000000 l    df *ABS*	00000000 _udivsi3.o
00000134 l       .text	00000000 .udivsi3_skip_div0_test
00000000 l    df *ABS*	00000000 _dvmd_tls.o
00000000 l    df *ABS*	00000000 lib_a-strcmp.o
00000000 l    df *ABS*	00000000 lib_a-strlen.o
00000000 l    df *ABS*	00000000 _thumb1_case_shi.o
00000000 l    df *ABS*	00000000 lib_a-memset.o
00000000 l    df *ABS*	00000000 main.c
200002a0 l     O .bss	00000040 s_lpuart_state.0
00000000 l    df *ABS*	00000000 pufs_hmac_test.c
00000530 l     F .text	00000074 pufs_hash_iuf_test
000005a4 l     F .text	00000046 pufs_hash_test
00000000 l    df *ABS*	00000000 pufs_test.c
00000000 l    df *ABS*	00000000 clock_tw9001.c
000008fc l     F .text	00000088 clcok_set_pcc_config
00000984 l     F .text	00000130 clock_set_sim_config
00000ab4 l     F .text	00000094 clock_get_default_config
00000b48 l     F .text	00000054 clock_check_pcc_clock
00000b9c l     F .text	00000028 clock_get_current_run_mode
00000bc4 l     F .text	0000000c clock_get_sys_osc_freq
00000bd0 l     F .text	00000070 clock_configure_sosc
00000c40 l     F .text	00000008 clock_get_sirc_freq
00000c48 l     F .text	00000058 clock_configure_sirc
00000ca0 l     F .text	00000008 clock_get_firc_freq
00000ca8 l     F .text	00000058 clock_configure_firc
00000d00 l     F .text	00000024 clock_get_src_freq
00000d24 l     F .text	000000e4 clock_set_sys_clk_config
00000e08 l     F .text	00000050 clock_transition_system_clcok
00000e58 l     F .text	000000cc clock_configure_modules_from_scg
00000f24 l     F .text	00000044 clock_configure_tmp_sys_clk
00000f68 l     F .text	00000084 clock_set_scg_config
00000fec l     F .text	00000068 clock_get_system_clock_freq
00001054 l     F .text	00000044 clock_get_scg_clk_out_freq
00001098 l     F .text	000000c0 clock_get_sys_async_freq
00001158 l     F .text	0000005c clock_get_sim_rtc_clk_freq
000011b4 l     F .text	00000064 clock_get_lpo_freq
00001218 l     F .text	0000008c clock_get_sim_clk_out_freq
000012a4 l     F .text	000000d8 clock_get_scg_clock_freq
0000137c l     F .text	00000078 clock_get_other_sim_clock_freq
000013f4 l     F .text	00000090 clock_get_sim_clock_freq
00001484 l     F .text	0000001e clock_get_ftm_option_freq
000014a4 l     F .text	00000088 clock_get_peripheral_clock
0000152c l     F .text	0000009c clock_get_pcc_clock_freq
200002f4 l     O .bss	00000010 s_clock_state
2000010c l     O .data	00000041 peripheral_clk_config.8
00006320 l     O .text	00000038 max_sys_clks_in_usb.5
00006358 l     O .text	00000038 max_sys_clks_in_vlpr.4
00000000 l    df *ABS*	00000000 edma_driver.c
0000175c l     F .text	0000003c edma_tcd_set_major_complete_int
00001798 l     F .text	00000010 edma_clear_int_status
000017a8 l     F .text	0000000c edma_valid_transfer_size
20000304 l     O .bss	00000004 sp_virt_edma_state
00000000 l    df *ABS*	00000000 interrupt_manager.c
20000308 l     O .bss	00000004 s_interrupt_disable_count
00000000 l    df *ABS*	00000000 lptmr_driver.c
00000000 l    df *ABS*	00000000 lpuart_driver.c
00001f98 l     F .text	000000b8 lpaurt_start_send_data_using_dma
000022c4 l     F .text	00000074 lpuart_tx_dma_callback
0000212c l     F .text	00000088 lpuart_start_send_data_using_int
000021b4 l     F .text	00000070 lpuart_complete_send_data_using_int
00002224 l     F .text	0000006c lpuart_stop_tx_dma
00002290 l     F .text	00000034 lpaurt_tx_complete_irq_handler
000023c0 l     F .text	00000044 lpuart_put_data
00002404 l     F .text	0000007c lpuart_tx_empty_irq_handler
000024c4 l     F .text	00000064 lpuart_get_data
000025a4 l     F .text	00000094 lpuart_start_receive_data_using_int
00002638 l     F .text	000000d0 lpuart_start_receive_data_using_dma
0000284c l     F .text	000000a4 lpuart_rx_dma_callback
00002708 l     F .text	00000070 lpuart_complete_receive_data_using_int
00002778 l     F .text	00000068 lpuart_rx_irq_handler
000027e0 l     F .text	0000006c lpuart_stop_rx_dma
000028f0 l     F .text	00000144 lpuart_err_irq_handler
2000030c l     O .bss	00000008 sp_lpuart_state_ptr
00006390 l     O .text	00000002 s_lpuart_clk_names
00006394 l     O .text	00000002 s_lpuart_irq_id
00006398 l     O .text	00000008 sp_lpuart_base
00000000 l    df *ABS*	00000000 osif_driver.c
20000314 l     O .bss	00000004 s_osif_tick_cnt
2000014d l     O .data	00000001 first_init.0
00000000 l    df *ABS*	00000000 pins_driver.c
00002fc4 l     F .text	00000124 pins_init_set
00000000 l    df *ABS*	00000000 system_tw9001.c
00000000 l    df *ABS*	00000000 startup.c
00000000 l    df *ABS*	00000000 pufs_common.c
000063c5 l     O .text	00000011 __func__.0
00000000 l    df *ABS*	00000000 pufs_crypto.c
00003310 l     F .text	0000002c write_data
0000333c l     F .text	0000005a read_data
00000000 l    df *ABS*	00000000 pufs_dma.c
00000000 l    df *ABS*	00000000 pufs_ecp.c
00000000 l    df *ABS*	00000000 pufs_hmac.c
00003530 l     F .text	0000002c hmac_set_dgst_length.isra.0
0000355c l     F .text	0000004a hmac_get_cfg.isra.0
000035a8 l     F .text	00000144 __hmac_ctx_update.part.0
000036ec l     F .text	000000be hmac_ctx_update
000038ac l     F .text	00000108 hmac_ctx_init
0000642b l     O .text	00000012 __func__.0
00000000 l    df *ABS*	00000000 pufs_internal.c
00006487 l     O .text	0000000e __func__.0
00000000 l    df *ABS*	00000000 pufs_ka.c
00003b50 l     F .text	000000f8 ka_skslot_check
00003c48 l     F .text	00000054 pufs_kwp_start
000064b6 l     O .text	0000000f __func__.0
00000000 l    df *ABS*	00000000 pufs_kdf.c
00000000 l    df *ABS*	00000000 pufs_reg_ctrl.c
00000000 l    df *ABS*	00000000 pufs_rt.c
00000000 l    df *ABS*	00000000 pufs_rt_cde.c
00000000 l    df *ABS*	00000000 pufs_sp38a.c
00000000 l    df *ABS*	00000000 pufs_sp38c.c
00000000 l    df *ABS*	00000000 pufs_sp38d.c
00000000 l    df *ABS*	00000000 pufs_sp38e.c
00000000 l    df *ABS*	00000000 pufs_sp90a.c
00000000 l    df *ABS*	00000000 dummy_pal.c
00000000 l    df *ABS*	00000000 pufs_chacha.c
00000000 l    df *ABS*	00000000 pufs_cmac.c
00000000 l    df *ABS*	00000000 lib_a-malloc.o
00000000 l    df *ABS*	00000000 lib_a-memcmp.o
00000000 l    df *ABS*	00000000 lib_a-memcpy-stub.o
00000000 l    df *ABS*	00000000 lib_a-memmove.o
00000000 l    df *ABS*	00000000 lib_a-nano-freer.o
00000000 l    df *ABS*	00000000 lib_a-nano-mallocr.o
000041ac l     F .text	00000044 sbrk_aligned
00000000 l    df *ABS*	00000000 lib_a-printf.o
00000000 l    df *ABS*	00000000 lib_a-sbrkr.o
00000000 l    df *ABS*	00000000 lib_a-sprintf.o
00000000 l    df *ABS*	00000000 lib_a-wbuf.o
00000000 l    df *ABS*	00000000 lib_a-wsetup.o
00000000 l    df *ABS*	00000000 lib_a-fflush.o
00000000 l    df *ABS*	00000000 lib_a-findfp.o
000046a8 l     F .text	00000048 std
00000000 l    df *ABS*	00000000 lib_a-fwalk.o
00000000 l    df *ABS*	00000000 lib_a-lock.o
00000000 l    df *ABS*	00000000 lib_a-makebuf.o
00000000 l    df *ABS*	00000000 lib_a-mlock.o
00000000 l    df *ABS*	00000000 lib_a-nano-svfprintf.o
00000000 l    df *ABS*	00000000 lib_a-nano-vfprintf_i.o
00000000 l    df *ABS*	00000000 lib_a-nano-vfprintf.o
00004f74 l     F .text	0000002a __sfputc_r
00000000 l    df *ABS*	00000000 lib_a-stdio.o
00000000 l    df *ABS*	00000000 lib_a-writer.o
00000000 l    df *ABS*	00000000 lib_a-closer.o
00000000 l    df *ABS*	00000000 lib_a-fstatr.o
00000000 l    df *ABS*	00000000 lib_a-isattyr.o
00000000 l    df *ABS*	00000000 lib_a-lseekr.o
00000000 l    df *ABS*	00000000 lib_a-memchr-stub.o
00000000 l    df *ABS*	00000000 lib_a-nano-reallocr.o
00000000 l    df *ABS*	00000000 lib_a-readr.o
00000000 l    df *ABS*	00000000 lib_a-nano-msizer.o
00000000 l    df *ABS*	00000000 close.o
00000000 l    df *ABS*	00000000 fstat.o
00000000 l    df *ABS*	00000000 isatty.o
00000000 l    df *ABS*	00000000 lseek.o
00000000 l    df *ABS*	00000000 read.o
00000000 l    df *ABS*	00000000 sbrk.o
2000037c l     O .bss	00000004 heap_end.0
00000000 l    df *ABS*	00000000 write.o
00000000 l    df *ABS*	00000000 pufs_tv_hmac_sha2.c
00000000 l    df *ABS*	00000000 pufs_tv_sha2.c
00000000 l    df *ABS*	00000000 lib_a-impure.o
20000004 l     O .data	00000060 impure_data
00000000 l    df *ABS*	00000000 crti.o
00000000 l    df *ABS*	00000000 clock_config.c
00005428 g     F .text	00000010 _malloc_usable_size_r
00002528 g     F .text	0000003c lpuart_get_status_flag
00003d98 g     F .text	00000024 pufs_ka_module_init
20000380 g       .heap	00000000 __HeapBase
00005340 g     F .text	00000024 _isatty_r
00005364 g     F .text	00000028 _lseek_r
00003454 g     F .text	0000001c dma_write_config_0
000066c4 g       *ABS*	00000000 __CODE_END
00002a50 g     F .text	0000007c lpuart_send_data_blocking
20000340 g     O .bss	00000004 kwp_regs
20000000 g       .data	00000000 __data_start__
0000031c g     F .text	00000016 print
00000400 g       *ABS*	00000000 STACK_SIZE
000042dc g     F .text	00000034 printf
00005298 g     F .text	0000002c __sseek
0000476c g     F .text	00000070 __sinit
00004374 g     F .text	000000ac __swbuf_r
000002cc g     F .text	00000002 HardFault_Handler
0000404a g     F .text	00000004 pufs_pal_config_dma
00003f78 g     F .text	00000018 pufs_rt_cde_init
20000348 g     O .bss	00000004 rt_regs
00004700 g     F .text	0000002c __sfmoreglue
0000350c g     F .text	00000024 pufs_pkc_module_init
00002b08 g     F .text	00000044 lpuart_get_receive_status
0000499c g     F .text	00000010 __malloc_unlock
00003f50 g     F .text	00000028 pufs_rt_module_init
00002ebc g     F .text	00000010 SysTick_Handler
20000360 g     O .bss	00000004 drbg_regs
20000108 g     O .data	00000004 g_sha2_tp_count
20000268 g     O .bss	00000001 g_led_on
000033dc g     F .text	00000020 crypto_write_dgst
000020c4 g     F .text	00000068 lpuart_set_int_mode
000040f2 g     F .text	00000026 memmove
000037aa g     F .text	00000062 hmac_ctx_final
00001e20 g     F .text	00000010 int_disable_irq_global
0000011c  w    F .text	00000002 PendSV_Handler
0000011c  w    F .text	00000002 NMI_Handler
000019b8 g     F .text	00000028 edma_irq_handler
0000656c g       .ARM	00000000 __exidx_end
00002f7c g     F .text	0000002c osif_sema_post
00003dbc g     F .text	00000024 pufs_kwp_module_init
0000656c g       .ARM	00000000 __etext
000000c0 g       .interrupts	00000000 __interrupts_end__
0000011c  w    F .text	00000002 FSUSB_IRQHandler
00001dbc g     F .text	0000000a DMA2_IRQHandler
00002ca8 g     F .text	00000140 lpuart_init
000019e0 g     F .text	000001b8 edma_config_single_block_transfer
0000531c g     F .text	00000024 _fstat_r
00003ee4 g     F .text	00000024 pufs_kdf_module_init
00003850 g     F .text	00000010 pufs_hash_update
20000378 g     O .bss	00000004 errno
000034b0 g     F .text	00000010 dma_write_start
0000011c  w    F .text	00000002 LPI2C0_IRQHandler
20000264 g     O .bss	00000004 g_led_count
00002e14 g     F .text	00000094 lpuart_irq_handler
20000780 g       .heap	00000000 __heap_limit
00001e04 g     F .text	0000001c int_enable_irq_global
0000404e g     F .text	00000002 pufs_pal_dma_write_addr
00002374 g     F .text	00000020 lpuart_put_char9
000040e0 g     F .text	00000012 memcpy
00003848 g     F .text	00000008 pufs_hmac_ctx_free
00001d70 g     F .text	00000038 edma_get_remaining_major_iterations_count
000046f0 g     F .text	00000010 _cleanup_r
00004a70 g     F .text	00000200 _svfprintf_r
20010000 g       *ABS*	00000000 __RAM_END
000020a4 g     F .text	0000001e lpuart_set_parity_mode
00002acc g     F .text	0000003c lpuart_receive_data
00003f08 g     F .text	00000004 be2le
0000409c g     F .text	00000014 malloc
00000134 g     F .text	0000010a .hidden __udivsi3
00005448 g     F .text	00000010 _fstat
2000033c g     O .bss	00000004 ka_regs
20000318 g     O .bss	00000004 crypto_regs
20000364 g     O .bss	00000004 chacha_regs
00000294 g     F .text	00000038 rx0_callback
00001e30 g     F .text	00000020 lptmr_set_reset_value
20000780 g       .heap	00000000 __HeapLimit
20000780 g       .heap	00000000 __heap_end__
20000158 g       .bss	00000000 __bss_start__
20000064 g     O .data	00000058 g_clock_man1_init_config0
200000bc g     O .data	00000041 g_peripheral_clock_config0
0000038c g     F .text	00000030 init_uart
0000011c  w    F .text	00000002 FTM0_Ovf_Reload_IRQHandler
00004310 g     F .text	00000024 _sbrk_r
0000011c  w    F .text	00000002 FTM1_Ch0_7_IRQHandler
0000011c  w    F .text	00000002 DefaultISR
2000031c g     O .bss	00000018 pufs_dma
00005400 g     F .text	00000028 _read_r
00000120 g     F .text	00000012 .hidden __gnu_thumb1_case_uqi
000060e8 g     O .text	000000c0 g_sha2_tp
0000011c  w    F .text	00000002 FTM0_Ch0_7_IRQHandler
00006564 g       .ARM	00000000 __exidx_start
00002050 g     F .text	00000020 lpuart_init_set
000066c4 g       *ABS*	00000000 __rom_end
00003e70 g     F .text	00000074 pufs_clear_key
00005458 g     F .text	00000010 _isatty
20000376 g     O .bss	00000001 __lock___sinit_recursive_mutex
00002a34 g     F .text	0000001c lpuart_install_rx_callback
00005950 g     O .text	00000004 _global_impure_ptr
000053a2 g     F .text	0000005e _realloc_r
0000193c g     F .text	00000048 edma_tcd_get_current_major_count
20000350 g     O .bss	00000004 sp38a_regs
20000334 g     O .bss	00000004 ecp_regs
20000158 g       .bss	00000000 __BSS_START
00003f1c g     F .text	00000034 otpkey_slot_check
20000158 g     O .bss	00000004 gp_clock_man_callback_arr
00005488 g     F .text	0000001c _sbrk
0000655c g     F .text	00000000 _init
00002564 g     F .text	00000040 lpuart_set_error_interrupts
000018c8 g     F .text	00000074 edma_tcd_set_major_count
00000604 g     F .text	00000018 pufs_sha2_test
00002480 g     F .text	0000001a lpuart_get_char9
00002fa8 g     F .text	0000001c osif_sema_create
000066c4 g       *ABS*	00000000 __CUSTOM_END
00001e50 g     F .text	00000100 lptmr_set_config
20000380 g       .bss	00000000 __BSS_END
00003b28 g     F .text	00000028 version_check
000017c0 g     F .text	00000068 edma_tcd_clear_reg
2000015c g     O .bss	00000100 g_buffer0
000000c0  w    F .text	0000005c Reset_Handler
20000158 g       .code	00000000 __code_end__
00000878 g     F .text	00000084 pufs_test
20000374 g     O .bss	00000001 __lock___malloc_recursive_mutex
20000158 g       .code	00000000 __code_ram_start__
000039b4 g     F .text	00000014 pufs_hash_init
00003180 g     F .text	0000007c init_data_bss
2000034c g     O .bss	00000004 rt_cde_regs
000062d4 g     O .text	0000004b g_peripheral_features_list
0000011c  w    F .text	00000002 LPSPI1_IRQHandler
000015c8 g     F .text	00000042 clock_init
20000338 g     O .bss	00000004 hmac_regs
200002e4 g     O .bss	0000000c g_tclk_freq
000064c8 g     O .text	00000020 __sf_fake_stderr
00003860 g     F .text	0000000e pufs_hash_final
00003fb4 g     F .text	00000024 pufs_sp38c_module_init
000066c4 g       *ABS*	00000000 __customSection_start__
000005ec g     F .text	00000018 pufs_sha2_iuf_test
20000380 g       .heap	00000000 end
00000000 g       .interrupts	00000000 __interrupts_start__
000048b0 g     F .text	00000002 __retarget_lock_release_recursive
000039c8 g     F .text	00000016 _pufs_hmac_init
000049ac g     F .text	000000c4 __ssputs_r
20000158 g       .data	00000000 __data_end__
20000158 g       .code	00000000 __code_start__
00000400 g       *ABS*	00000000 HEAP_SIZE
2000025c g     O .bss	00000001 g_buffer0_idx
00004f9e g     F .text	00000024 __sfputs_r
0000472c g     F .text	00000010 __sfp_lock_acquire
0000538c g     F .text	00000016 memchr
20000380 g       .bss	00000000 __bss_end__
00004118 g     F .text	00000094 _free_r
2000026c g     O .bss	00000032 g_message
00000270 g     F .text	00000014 .hidden __gnu_thumb1_case_shi
0000623c g     O .text	00000096 g_clock_name_mappings
000031fc g     F .text	00000044 pufs_module_init
00001cfc g     F .text	00000038 edma_set_dest_addr
0000011c  w    F .text	00000002 FTFC_IRQHandler
00001d34 g     F .text	0000003c edma_set_major_loop_iteration_count
00000334 g     F .text	00000058 init_pins
00005468 g     F .text	00000010 _lseek
000034c0 g     F .text	00000018 dma_check_busy_status
200002e0 g     O .bss	00000004 g_rtc_clk_in_freq
20000000 g       .ARM	00000000 __RAM_START
00003a46 g     F .text	000000e0 segment
00003830 g     F .text	00000018 pufs_hmac_ctx_new
00001658 g     F .text	00000104 clock_update_config
20000358 g     O .bss	00000004 sp38d_regs
00001f50 g     F .text	00000048 lptmr_init
000052f8 g     F .text	00000024 _close_r
00001c4c g     F .text	0000003c edma_start_channel
000040c4 g     F .text	0000001c memcmp
00004420 g     F .text	000000f0 __swsetup_r
00000248  w    F .text	00000002 .hidden __aeabi_ldiv0
20000368 g     O .bss	00000004 cmac_regs
000047dc g     F .text	00000090 __sfp
0000475c g     F .text	00000010 __sinit_lock_release
0000011c  w    F .text	00000002 LPSPI0_IRQHandler
00002ecc g     F .text	000000b0 osif_sema_wait
00002070 g     F .text	00000034 lpuart_set_bit_count_per_char
00005238 g     F .text	00000028 __sread
000017b4 g     F .text	0000000c edma_set_dma_request
0000498c g     F .text	00000010 __malloc_lock
00004628 g     F .text	00000080 _fflush_r
000066c4 g       *ABS*	00000000 __CODE_ROM
00001860 g     F .text	00000068 edma_tcd_set_nbytes
000064e8 g     O .text	00000020 __sf_fake_stdin
000048ae g     F .text	00000002 __retarget_lock_acquire_recursive
0000343c g     F .text	00000018 dma_write_key_config_0
00000284 g     F .text	00000010 memset
00000000 g       .interrupts	000000c0 __isr_vector
000003ec g     F .text	00000144 main
0000011c  w    F .text	00000002 FTM0_Fault_IRQHandler
0000061c g     F .text	000000d4 pufs_hmac_sha2_iuf_test
000048ac g     F .text	00000002 __retarget_lock_init_recursive
00003f90 g     F .text	00000024 pufs_sp38a_module_init
00000134 g     F .text	00000000 .hidden __aeabi_uidiv
0000011c  w    F .text	00000002 SVC_Handler
000052c4 g     F .text	0000000c __sclose
20000000 g       .data	00000000 __DATA_RAM
00002b4c g     F .text	0000015c lpuart_set_baud_rate
000041f0 g     F .text	000000ec _malloc_r
20000380 g       .heap	00000000 __heap_start__
0000380c g     F .text	00000024 pufs_hmac_module_init
00003fd8 g     F .text	00000024 pufs_sp38d_module_init
00004054 g     F .text	00000024 pufs_chacha_module_init
20000104 g     O .data	00000004 g_hmac_sha2_tp_count
20000344 g     O .bss	00000004 kdf_regs
20000380 g       .heap	00000000 __end__
00003de0 g     F .text	00000090 pufs_import_plaintext_key
00003470 g     F .text	00000040 dma_write_data_block_config
00000798 g     F .text	00000088 pufs_hmac_sha2_swkey_iuf_test
00003240 g     F .text	000000d0 pufs_initialize
20000158 g       .code	00000000 __code_ram_end__
0000011c  w    F .text	00000002 RCM_IRQHandler
00001dc6 g     F .text	0000000a DMA3_IRQHandler
00003c9c g     F .text	00000094 keyslot_check
0000024c g     F .text	00000014 strcmp
0000315c g     F .text	00000024 SystemInit
00001da8 g     F .text	0000000a DMA0_IRQHandler
00006560 g     F .text	00000000 _fini
000042dc g     F .text	00000034 iprintf
00003f0c g     F .text	00000010 puf_slot_check
00002ea8 g     F .text	0000000a LPUART0_IRQHandler
000039fc g     F .text	0000004a _pufs_hmac
00005d8c g     O .text	000000c0 g_hmac_sha2_tp
00004334 g     F .text	00000040 sprintf
000052d0 g     F .text	00000028 _write_r
00003418 g     F .text	00000024 dma_write_rwcfg
20010000 g       .heap	00000000 __StackTop
00004c70 g     F .text	000000de _printf_common
20000000 g     O .data	00000004 _impure_ptr
2000035c g     O .bss	00000004 sp38e_regs
00004510 g     F .text	00000118 __sflush_r
00004046 g     F .text	00000004 pufs_pal_mmap
00004a70 g     F .text	00000200 _svfiprintf_r
00004044 g     F .text	00000002 pufs_pal_init
000066c4 g       *ABS*	00000000 __DATA_END
00002338 g     F .text	0000003c lpuart_get_int_mode
00002eb2 g     F .text	0000000a LPUART1_IRQHandler
0000011c  w    F .text	00000002 LPI2C1_IRQHandler
0000011c  w    F .text	00000002 FTM1_Fault_IRQHandler
00002de8 g     F .text	0000002c lpuart_set_rx_buffer
0000011c  w    F .text	00000002 PUF_IRQHandler
000048b4 g     F .text	00000050 __swhatbuf_r
00004020 g     F .text	00000024 pufs_drbg_module_init
00003398 g     F .text	00000024 pufs_crypto_module_init
20010000 g       *ABS*	00000000 __stack
00000240 g     F .text	00000008 .hidden __aeabi_uidivmod
0000011c  w    F .text	00000002 HSSPI_IRQHandler
000054a4 g     F .text	00000010 _write
0000249a g     F .text	0000002a lpuart_get_char10
000039de g     F .text	00000010 pufs_hmac_update
20000158 g       .code	00000000 __CODE_RAM
00003ffc g     F .text	00000024 pufs_sp38e_module_init
0000386e g     F .text	0000003e pufs_hash
000006f0 g     F .text	000000a8 pufs_hmac_sha2_test
00000000 g       .interrupts	00000000 __VECTOR_TABLE
20000150 g     O .data	00000008 pufs_context
0000656c g       .ARM	00000000 __DATA_ROM
2000fc00 g       *ABS*	00000000 __StackLimit
00005260 g     F .text	00000038 __swrite
20000260 g     O .bss	00000004 g_exit_code
0000011c  w    F .text	00000002 LPSPI2_IRQHandler
00004078 g     F .text	00000024 pufs_cmac_module_init
00004fc4 g     F .text	00000274 _vfiprintf_r
00001cc4 g     F .text	00000038 edma_set_src_addr
0000486c g     F .text	00000040 _fwalk_reent
000034d8 g     F .text	00000034 pufs_dma_module_init
0000473c g     F .text	00000010 __sfp_lock_release
00004050 g     F .text	00000002 pufs_pal_dma_read_addr
00006508 g     O .text	00000020 __sf_fake_stdout
00001984 g     F .text	00000034 edma_install_callback
00004334 g     F .text	00000040 siprintf
20000100 g     O .data	00000004 gp_clock_man_configs_arr
00003d30 g     F .text	00000066 get_key_slot_idx
00001828 g     F .text	00000038 edma_tcd_set_attribute
0000011c  w    F .text	00000002 WDOG_IRQHandler
200002f0 g     O .bss	00000004 g_xtal0_clk_freq
00005478 g     F .text	00000010 _read
00000248  w    F .text	00000002 .hidden __aeabi_idiv0
000039ee g     F .text	0000000e pufs_hmac_final
00001c88 g     F .text	0000003c edma_stop_channel
000002d0 g     F .text	0000004c LPTMR0_IRQHandler
0000011c  w    F .text	00000002 FTM1_Ovf_Reload_IRQHandler
00004904 g     F .text	00000088 __smakebuf_r
00000820 g     F .text	00000058 pufs_hmac_sha2_swkey_test
00000260 g     F .text	0000000e strlen
00004d50 g     F .text	00000224 _printf_i
00001b98 g     F .text	000000b4 edma_config_multi_block_transfer
000066c4 g       *ABS*	00000000 __CUSTOM_ROM
00001630 g     F .text	00000028 clock_init_config
20000370 g     O .bss	00000004 __malloc_sbrk_start
20010000 g       .stack	00000000 __stack_end__
00002394 g     F .text	0000002c lpuart_put_char10
20000354 g     O .bss	00000004 sp38c_regs
2000036c g     O .bss	00000004 __malloc_free_list
000030e8 g     F .text	0000004c pins_chip_init
2000fc00 g       .stack	00000000 __stack_start__
00004fc4 g     F .text	00000274 _vfprintf_r
00001dd0 g     F .text	00000034 int_enable_irq
00003134 g     F .text	00000020 pins_init
0000160a g     F .text	00000024 clock_get_freq
0000011c  w    F .text	00000002 PORT_IRQHandler
000003bc g     F .text	00000030 init_lptmr
000033fc g     F .text	0000001c crypto_read_dgest
00003154 g     F .text	00000008 pins_toggle_pins
20000375 g     O .bss	00000001 __lock___sfp_recursive_mutex
00001db2 g     F .text	0000000a DMA1_IRQHandler
00005438 g     F .text	00000010 _close
000040b0 g     F .text	00000014 free
0000474c g     F .text	00000010 __sinit_lock_acquire
000033bc g     F .text	00000020 crypto_write_sw_key



Disassembly of section .text:

000000c0 <Reset_Handler>:
Reset_Handler():
D:\CQ9008\sample_codes\Release_example_240606\puf_template\debug/../project_settings/startup_code/startup_tw9001.S:84
    .align 2
    .globl   Reset_Handler
    .weak    Reset_Handler
    .type    Reset_Handler, %function
Reset_Handler:
    cpsid   i               /* Mask interrupts */
      c0:	b672      	cpsid	i
D:\CQ9008\sample_codes\Release_example_240606\puf_template\debug/../project_settings/startup_code/startup_tw9001.S:87

    /* Init the rest of the registers */
    ldr     r1,=0
      c2:	4910      	ldr	r1, [pc, #64]	; (104 <JumpToSelf+0x2>)
D:\CQ9008\sample_codes\Release_example_240606\puf_template\debug/../project_settings/startup_code/startup_tw9001.S:88
    ldr     r2,=0
      c4:	4a0f      	ldr	r2, [pc, #60]	; (104 <JumpToSelf+0x2>)
D:\CQ9008\sample_codes\Release_example_240606\puf_template\debug/../project_settings/startup_code/startup_tw9001.S:89
    ldr     r3,=0
      c6:	4b0f      	ldr	r3, [pc, #60]	; (104 <JumpToSelf+0x2>)
D:\CQ9008\sample_codes\Release_example_240606\puf_template\debug/../project_settings/startup_code/startup_tw9001.S:90
    ldr     r4,=0
      c8:	4c0e      	ldr	r4, [pc, #56]	; (104 <JumpToSelf+0x2>)
D:\CQ9008\sample_codes\Release_example_240606\puf_template\debug/../project_settings/startup_code/startup_tw9001.S:91
    ldr     r5,=0
      ca:	4d0e      	ldr	r5, [pc, #56]	; (104 <JumpToSelf+0x2>)
D:\CQ9008\sample_codes\Release_example_240606\puf_template\debug/../project_settings/startup_code/startup_tw9001.S:92
    ldr     r6,=0
      cc:	4e0d      	ldr	r6, [pc, #52]	; (104 <JumpToSelf+0x2>)
D:\CQ9008\sample_codes\Release_example_240606\puf_template\debug/../project_settings/startup_code/startup_tw9001.S:93
    ldr     r7,=0
      ce:	4f0d      	ldr	r7, [pc, #52]	; (104 <JumpToSelf+0x2>)
D:\CQ9008\sample_codes\Release_example_240606\puf_template\debug/../project_settings/startup_code/startup_tw9001.S:94
    mov     r8,r7
      d0:	46b8      	mov	r8, r7
D:\CQ9008\sample_codes\Release_example_240606\puf_template\debug/../project_settings/startup_code/startup_tw9001.S:95
    mov     r9,r7
      d2:	46b9      	mov	r9, r7
D:\CQ9008\sample_codes\Release_example_240606\puf_template\debug/../project_settings/startup_code/startup_tw9001.S:96
    mov     r10,r7
      d4:	46ba      	mov	sl, r7
D:\CQ9008\sample_codes\Release_example_240606\puf_template\debug/../project_settings/startup_code/startup_tw9001.S:97
    mov     r11,r7
      d6:	46bb      	mov	fp, r7
D:\CQ9008\sample_codes\Release_example_240606\puf_template\debug/../project_settings/startup_code/startup_tw9001.S:98
    mov     r12,r7
      d8:	46bc      	mov	ip, r7
D:\CQ9008\sample_codes\Release_example_240606\puf_template\debug/../project_settings/startup_code/startup_tw9001.S:101

    /* Init ECC RAM */
    ldr r1, =__RAM_START
      da:	490b      	ldr	r1, [pc, #44]	; (108 <JumpToSelf+0x6>)
D:\CQ9008\sample_codes\Release_example_240606\puf_template\debug/../project_settings/startup_code/startup_tw9001.S:102
    ldr r2, =__RAM_END
      dc:	4a0b      	ldr	r2, [pc, #44]	; (10c <JumpToSelf+0xa>)
D:\CQ9008\sample_codes\Release_example_240606\puf_template\debug/../project_settings/startup_code/startup_tw9001.S:104

    subs    r2, r1
      de:	1a52      	subs	r2, r2, r1
D:\CQ9008\sample_codes\Release_example_240606\puf_template\debug/../project_settings/startup_code/startup_tw9001.S:105
    subs    r2, #1
      e0:	3a01      	subs	r2, #1
D:\CQ9008\sample_codes\Release_example_240606\puf_template\debug/../project_settings/startup_code/startup_tw9001.S:106
    ble .LC5
      e2:	dd05      	ble.n	f0 <Reset_Handler+0x30>
D:\CQ9008\sample_codes\Release_example_240606\puf_template\debug/../project_settings/startup_code/startup_tw9001.S:108

    movs    r0, 0
      e4:	2000      	movs	r0, #0
D:\CQ9008\sample_codes\Release_example_240606\puf_template\debug/../project_settings/startup_code/startup_tw9001.S:109
    movs    r3, #4
      e6:	2304      	movs	r3, #4
D:\CQ9008\sample_codes\Release_example_240606\puf_template\debug/../project_settings/startup_code/startup_tw9001.S:111
.LC4:
    str r0, [r1]
      e8:	6008      	str	r0, [r1, #0]
D:\CQ9008\sample_codes\Release_example_240606\puf_template\debug/../project_settings/startup_code/startup_tw9001.S:112
    add	r1, r1, r3
      ea:	4419      	add	r1, r3
D:\CQ9008\sample_codes\Release_example_240606\puf_template\debug/../project_settings/startup_code/startup_tw9001.S:113
    subs r2, 4
      ec:	3a04      	subs	r2, #4
D:\CQ9008\sample_codes\Release_example_240606\puf_template\debug/../project_settings/startup_code/startup_tw9001.S:114
    bge .LC4
      ee:	dafb      	bge.n	e8 <Reset_Handler+0x28>
D:\CQ9008\sample_codes\Release_example_240606\puf_template\debug/../project_settings/startup_code/startup_tw9001.S:118
.LC5:

    /* Initialize the stack pointer */
    ldr     r0,=__StackTop
      f0:	4807      	ldr	r0, [pc, #28]	; (110 <JumpToSelf+0xe>)
D:\CQ9008\sample_codes\Release_example_240606\puf_template\debug/../project_settings/startup_code/startup_tw9001.S:119
    mov     r13,r0
      f2:	4685      	mov	sp, r0
D:\CQ9008\sample_codes\Release_example_240606\puf_template\debug/../project_settings/startup_code/startup_tw9001.S:123

#ifndef __NO_SYSTEM_INIT
    /* Call the system init routine */
    ldr     r0,=SystemInit
      f4:	4807      	ldr	r0, [pc, #28]	; (114 <JumpToSelf+0x12>)
D:\CQ9008\sample_codes\Release_example_240606\puf_template\debug/../project_settings/startup_code/startup_tw9001.S:124
    blx     r0
      f6:	4780      	blx	r0
D:\CQ9008\sample_codes\Release_example_240606\puf_template\debug/../project_settings/startup_code/startup_tw9001.S:128
#endif

    /* Init .data and .bss sections */
    ldr     r0,=init_data_bss
      f8:	4807      	ldr	r0, [pc, #28]	; (118 <JumpToSelf+0x16>)
D:\CQ9008\sample_codes\Release_example_240606\puf_template\debug/../project_settings/startup_code/startup_tw9001.S:129
    blx     r0
      fa:	4780      	blx	r0
D:\CQ9008\sample_codes\Release_example_240606\puf_template\debug/../project_settings/startup_code/startup_tw9001.S:130
    cpsie   i               /* Unmask interrupts */
      fc:	b662      	cpsie	i
D:\CQ9008\sample_codes\Release_example_240606\puf_template\debug/../project_settings/startup_code/startup_tw9001.S:131
    bl      main
      fe:	f000 f975 	bl	3ec <main>

00000102 <JumpToSelf>:
D:\CQ9008\sample_codes\Release_example_240606\puf_template\debug/../project_settings/startup_code/startup_tw9001.S:133
JumpToSelf:
    b       JumpToSelf
     102:	e7fe      	b.n	102 <JumpToSelf>
D:\CQ9008\sample_codes\Release_example_240606\puf_template\debug/../project_settings/startup_code/startup_tw9001.S:87
    ldr     r1,=0
     104:	00000000 	.word	0x00000000
D:\CQ9008\sample_codes\Release_example_240606\puf_template\debug/../project_settings/startup_code/startup_tw9001.S:101
    ldr r1, =__RAM_START
     108:	20000000 	.word	0x20000000
D:\CQ9008\sample_codes\Release_example_240606\puf_template\debug/../project_settings/startup_code/startup_tw9001.S:102
    ldr r2, =__RAM_END
     10c:	20010000 	.word	0x20010000
D:\CQ9008\sample_codes\Release_example_240606\puf_template\debug/../project_settings/startup_code/startup_tw9001.S:118
    ldr     r0,=__StackTop
     110:	20010000 	.word	0x20010000
D:\CQ9008\sample_codes\Release_example_240606\puf_template\debug/../project_settings/startup_code/startup_tw9001.S:123
    ldr     r0,=SystemInit
     114:	0000315d 	.word	0x0000315d
D:\CQ9008\sample_codes\Release_example_240606\puf_template\debug/../project_settings/startup_code/startup_tw9001.S:128
    ldr     r0,=init_data_bss
     118:	00003181 	.word	0x00003181

0000011c <DefaultISR>:
PendSV_Handler():
D:\CQ9008\sample_codes\Release_example_240606\puf_template\debug/../project_settings/startup_code/startup_tw9001.S:143
    .align  1
    .thumb_func
    .weak DefaultISR
    .type DefaultISR, %function
DefaultISR:
    b       DefaultISR
     11c:	e7d0      	b.n	c0 <Reset_Handler>
     11e:	46c0      	nop			; (mov r8, r8)

00000120 <__gnu_thumb1_case_uqi>:
__gnu_thumb1_case_uqi():
     120:	b402      	push	{r1}
     122:	4671      	mov	r1, lr
     124:	0849      	lsrs	r1, r1, #1
     126:	0049      	lsls	r1, r1, #1
     128:	5c09      	ldrb	r1, [r1, r0]
     12a:	0049      	lsls	r1, r1, #1
     12c:	448e      	add	lr, r1
     12e:	bc02      	pop	{r1}
     130:	4770      	bx	lr
     132:	46c0      	nop			; (mov r8, r8)

00000134 <__udivsi3>:
__udivsi3():
     134:	2200      	movs	r2, #0
     136:	0843      	lsrs	r3, r0, #1
     138:	428b      	cmp	r3, r1
     13a:	d374      	bcc.n	226 <__udivsi3+0xf2>
     13c:	0903      	lsrs	r3, r0, #4
     13e:	428b      	cmp	r3, r1
     140:	d35f      	bcc.n	202 <__udivsi3+0xce>
     142:	0a03      	lsrs	r3, r0, #8
     144:	428b      	cmp	r3, r1
     146:	d344      	bcc.n	1d2 <__udivsi3+0x9e>
     148:	0b03      	lsrs	r3, r0, #12
     14a:	428b      	cmp	r3, r1
     14c:	d328      	bcc.n	1a0 <__udivsi3+0x6c>
     14e:	0c03      	lsrs	r3, r0, #16
     150:	428b      	cmp	r3, r1
     152:	d30d      	bcc.n	170 <__udivsi3+0x3c>
     154:	22ff      	movs	r2, #255	; 0xff
     156:	0209      	lsls	r1, r1, #8
     158:	ba12      	rev	r2, r2
     15a:	0c03      	lsrs	r3, r0, #16
     15c:	428b      	cmp	r3, r1
     15e:	d302      	bcc.n	166 <__udivsi3+0x32>
     160:	1212      	asrs	r2, r2, #8
     162:	0209      	lsls	r1, r1, #8
     164:	d065      	beq.n	232 <__udivsi3+0xfe>
     166:	0b03      	lsrs	r3, r0, #12
     168:	428b      	cmp	r3, r1
     16a:	d319      	bcc.n	1a0 <__udivsi3+0x6c>
     16c:	e000      	b.n	170 <__udivsi3+0x3c>
     16e:	0a09      	lsrs	r1, r1, #8
     170:	0bc3      	lsrs	r3, r0, #15
     172:	428b      	cmp	r3, r1
     174:	d301      	bcc.n	17a <__udivsi3+0x46>
     176:	03cb      	lsls	r3, r1, #15
     178:	1ac0      	subs	r0, r0, r3
     17a:	4152      	adcs	r2, r2
     17c:	0b83      	lsrs	r3, r0, #14
     17e:	428b      	cmp	r3, r1
     180:	d301      	bcc.n	186 <__udivsi3+0x52>
     182:	038b      	lsls	r3, r1, #14
     184:	1ac0      	subs	r0, r0, r3
     186:	4152      	adcs	r2, r2
     188:	0b43      	lsrs	r3, r0, #13
     18a:	428b      	cmp	r3, r1
     18c:	d301      	bcc.n	192 <__udivsi3+0x5e>
     18e:	034b      	lsls	r3, r1, #13
     190:	1ac0      	subs	r0, r0, r3
     192:	4152      	adcs	r2, r2
     194:	0b03      	lsrs	r3, r0, #12
     196:	428b      	cmp	r3, r1
     198:	d301      	bcc.n	19e <__udivsi3+0x6a>
     19a:	030b      	lsls	r3, r1, #12
     19c:	1ac0      	subs	r0, r0, r3
     19e:	4152      	adcs	r2, r2
     1a0:	0ac3      	lsrs	r3, r0, #11
     1a2:	428b      	cmp	r3, r1
     1a4:	d301      	bcc.n	1aa <__udivsi3+0x76>
     1a6:	02cb      	lsls	r3, r1, #11
     1a8:	1ac0      	subs	r0, r0, r3
     1aa:	4152      	adcs	r2, r2
     1ac:	0a83      	lsrs	r3, r0, #10
     1ae:	428b      	cmp	r3, r1
     1b0:	d301      	bcc.n	1b6 <__udivsi3+0x82>
     1b2:	028b      	lsls	r3, r1, #10
     1b4:	1ac0      	subs	r0, r0, r3
     1b6:	4152      	adcs	r2, r2
     1b8:	0a43      	lsrs	r3, r0, #9
     1ba:	428b      	cmp	r3, r1
     1bc:	d301      	bcc.n	1c2 <__udivsi3+0x8e>
     1be:	024b      	lsls	r3, r1, #9
     1c0:	1ac0      	subs	r0, r0, r3
     1c2:	4152      	adcs	r2, r2
     1c4:	0a03      	lsrs	r3, r0, #8
     1c6:	428b      	cmp	r3, r1
     1c8:	d301      	bcc.n	1ce <__udivsi3+0x9a>
     1ca:	020b      	lsls	r3, r1, #8
     1cc:	1ac0      	subs	r0, r0, r3
     1ce:	4152      	adcs	r2, r2
     1d0:	d2cd      	bcs.n	16e <__udivsi3+0x3a>
     1d2:	09c3      	lsrs	r3, r0, #7
     1d4:	428b      	cmp	r3, r1
     1d6:	d301      	bcc.n	1dc <__udivsi3+0xa8>
     1d8:	01cb      	lsls	r3, r1, #7
     1da:	1ac0      	subs	r0, r0, r3
     1dc:	4152      	adcs	r2, r2
     1de:	0983      	lsrs	r3, r0, #6
     1e0:	428b      	cmp	r3, r1
     1e2:	d301      	bcc.n	1e8 <__udivsi3+0xb4>
     1e4:	018b      	lsls	r3, r1, #6
     1e6:	1ac0      	subs	r0, r0, r3
     1e8:	4152      	adcs	r2, r2
     1ea:	0943      	lsrs	r3, r0, #5
     1ec:	428b      	cmp	r3, r1
     1ee:	d301      	bcc.n	1f4 <__udivsi3+0xc0>
     1f0:	014b      	lsls	r3, r1, #5
     1f2:	1ac0      	subs	r0, r0, r3
     1f4:	4152      	adcs	r2, r2
     1f6:	0903      	lsrs	r3, r0, #4
     1f8:	428b      	cmp	r3, r1
     1fa:	d301      	bcc.n	200 <__udivsi3+0xcc>
     1fc:	010b      	lsls	r3, r1, #4
     1fe:	1ac0      	subs	r0, r0, r3
     200:	4152      	adcs	r2, r2
     202:	08c3      	lsrs	r3, r0, #3
     204:	428b      	cmp	r3, r1
     206:	d301      	bcc.n	20c <__udivsi3+0xd8>
     208:	00cb      	lsls	r3, r1, #3
     20a:	1ac0      	subs	r0, r0, r3
     20c:	4152      	adcs	r2, r2
     20e:	0883      	lsrs	r3, r0, #2
     210:	428b      	cmp	r3, r1
     212:	d301      	bcc.n	218 <__udivsi3+0xe4>
     214:	008b      	lsls	r3, r1, #2
     216:	1ac0      	subs	r0, r0, r3
     218:	4152      	adcs	r2, r2
     21a:	0843      	lsrs	r3, r0, #1
     21c:	428b      	cmp	r3, r1
     21e:	d301      	bcc.n	224 <__udivsi3+0xf0>
     220:	004b      	lsls	r3, r1, #1
     222:	1ac0      	subs	r0, r0, r3
     224:	4152      	adcs	r2, r2
     226:	1a41      	subs	r1, r0, r1
     228:	d200      	bcs.n	22c <__udivsi3+0xf8>
     22a:	4601      	mov	r1, r0
     22c:	4152      	adcs	r2, r2
     22e:	4610      	mov	r0, r2
     230:	4770      	bx	lr
     232:	e7ff      	b.n	234 <__udivsi3+0x100>
     234:	b501      	push	{r0, lr}
     236:	2000      	movs	r0, #0
     238:	f000 f806 	bl	248 <__aeabi_idiv0>
     23c:	bd02      	pop	{r1, pc}
     23e:	46c0      	nop			; (mov r8, r8)

00000240 <__aeabi_uidivmod>:
__aeabi_uidivmod():
     240:	2900      	cmp	r1, #0
     242:	d0f7      	beq.n	234 <__udivsi3+0x100>
     244:	e776      	b.n	134 <__udivsi3>
     246:	4770      	bx	lr

00000248 <__aeabi_idiv0>:
__aeabi_ldiv0():
     248:	4770      	bx	lr
     24a:	46c0      	nop			; (mov r8, r8)

0000024c <strcmp>:
strcmp():
     24c:	7802      	ldrb	r2, [r0, #0]
     24e:	780b      	ldrb	r3, [r1, #0]
     250:	2a00      	cmp	r2, #0
     252:	d003      	beq.n	25c <strcmp+0x10>
     254:	3001      	adds	r0, #1
     256:	3101      	adds	r1, #1
     258:	429a      	cmp	r2, r3
     25a:	d0f7      	beq.n	24c <strcmp>
     25c:	1ad0      	subs	r0, r2, r3
     25e:	4770      	bx	lr

00000260 <strlen>:
strlen():
     260:	2300      	movs	r3, #0
     262:	5cc2      	ldrb	r2, [r0, r3]
     264:	3301      	adds	r3, #1
     266:	2a00      	cmp	r2, #0
     268:	d1fb      	bne.n	262 <strlen+0x2>
     26a:	1e58      	subs	r0, r3, #1
     26c:	4770      	bx	lr
	...

00000270 <__gnu_thumb1_case_shi>:
__gnu_thumb1_case_shi():
     270:	b403      	push	{r0, r1}
     272:	4671      	mov	r1, lr
     274:	0849      	lsrs	r1, r1, #1
     276:	0040      	lsls	r0, r0, #1
     278:	0049      	lsls	r1, r1, #1
     27a:	5e09      	ldrsh	r1, [r1, r0]
     27c:	0049      	lsls	r1, r1, #1
     27e:	448e      	add	lr, r1
     280:	bc03      	pop	{r0, r1}
     282:	4770      	bx	lr

00000284 <memset>:
memset():
     284:	0003      	movs	r3, r0
     286:	1882      	adds	r2, r0, r2
     288:	4293      	cmp	r3, r2
     28a:	d100      	bne.n	28e <memset+0xa>
     28c:	4770      	bx	lr
     28e:	7019      	strb	r1, [r3, #0]
     290:	3301      	adds	r3, #1
     292:	e7f9      	b.n	288 <memset+0x4>

00000294 <rx0_callback>:
rx0_callback():
D:\CQ9008\sample_codes\Release_example_240606\puf_template\debug/../src/main.c:81
    lpuart_send_data_blocking(0, (uint8_t *)p_source_str, strlen(p_source_str), TIMEOUT);
}

void
rx0_callback(void *p_driver_state, uart_event_t event, void *p_user_data)
{
     294:	b510      	push	{r4, lr}
D:\CQ9008\sample_codes\Release_example_240606\puf_template\debug/../src/main.c:86
    /* Unused parameters */
    (void)p_driver_state;
    (void)p_user_data;
    /* Check the event type */
    if (event == UART_EVENT_RX_FULL)
     296:	2900      	cmp	r1, #0
     298:	d107      	bne.n	2aa <rx0_callback+0x16>
D:\CQ9008\sample_codes\Release_example_240606\puf_template\debug/../src/main.c:89
    {
        /* The reception stops when newline is received or the buffer is full */
        if ((g_buffer0[g_buffer0_idx] != '\n') && (g_buffer0_idx != (BUFFER_SIZE - 2U)))
     29a:	4b0a      	ldr	r3, [pc, #40]	; (2c4 <rx0_callback+0x30>)
     29c:	7819      	ldrb	r1, [r3, #0]
     29e:	4b0a      	ldr	r3, [pc, #40]	; (2c8 <rx0_callback+0x34>)
     2a0:	5c5b      	ldrb	r3, [r3, r1]
     2a2:	2b0a      	cmp	r3, #10
     2a4:	d001      	beq.n	2aa <rx0_callback+0x16>
D:\CQ9008\sample_codes\Release_example_240606\puf_template\debug/../src/main.c:89 (discriminator 1)
     2a6:	29fe      	cmp	r1, #254	; 0xfe
     2a8:	d100      	bne.n	2ac <rx0_callback+0x18>
D:\CQ9008\sample_codes\Release_example_240606\puf_template\debug/../src/main.c:96
            /* Update the buffer index and the rx buffer */
            g_buffer0_idx++;
            lpuart_set_rx_buffer(0, &g_buffer0[g_buffer0_idx], 1U);
        }
    }
}
     2aa:	bd10      	pop	{r4, pc}
D:\CQ9008\sample_codes\Release_example_240606\puf_template\debug/../src/main.c:92
            g_buffer0_idx++;
     2ac:	3101      	adds	r1, #1
     2ae:	b2c9      	uxtb	r1, r1
     2b0:	4b04      	ldr	r3, [pc, #16]	; (2c4 <rx0_callback+0x30>)
     2b2:	7019      	strb	r1, [r3, #0]
D:\CQ9008\sample_codes\Release_example_240606\puf_template\debug/../src/main.c:93
            lpuart_set_rx_buffer(0, &g_buffer0[g_buffer0_idx], 1U);
     2b4:	4b04      	ldr	r3, [pc, #16]	; (2c8 <rx0_callback+0x34>)
     2b6:	18c9      	adds	r1, r1, r3
     2b8:	2201      	movs	r2, #1
     2ba:	2000      	movs	r0, #0
     2bc:	f002 fd94 	bl	2de8 <lpuart_set_rx_buffer>
D:\CQ9008\sample_codes\Release_example_240606\puf_template\debug/../src/main.c:96
}
     2c0:	e7f3      	b.n	2aa <rx0_callback+0x16>
     2c2:	46c0      	nop			; (mov r8, r8)
     2c4:	2000025c 	.word	0x2000025c
     2c8:	2000015c 	.word	0x2000015c

000002cc <HardFault_Handler>:
HardFault_Handler():
D:\CQ9008\sample_codes\Release_example_240606\puf_template\debug/../src/main.c:55 (discriminator 1)
    for (;;)
     2cc:	e7fe      	b.n	2cc <HardFault_Handler>
	...

000002d0 <LPTMR0_IRQHandler>:
LPTMR0_IRQHandler():
D:\CQ9008\sample_codes\Release_example_240606\puf_template\debug/../src/main.c:62
{
     2d0:	b510      	push	{r4, lr}
D:\CQ9008\sample_codes\Release_example_240606\puf_template\debug/../src/main.c:63
    LPTMR0->CSR |= LPTMR_CSR_TCF_MASK;
     2d2:	4a0d      	ldr	r2, [pc, #52]	; (308 <LPTMR0_IRQHandler+0x38>)
     2d4:	6813      	ldr	r3, [r2, #0]
     2d6:	2180      	movs	r1, #128	; 0x80
     2d8:	430b      	orrs	r3, r1
     2da:	6013      	str	r3, [r2, #0]
D:\CQ9008\sample_codes\Release_example_240606\puf_template\debug/../src/main.c:65
    g_led_count++;
     2dc:	4b0b      	ldr	r3, [pc, #44]	; (30c <LPTMR0_IRQHandler+0x3c>)
     2de:	681a      	ldr	r2, [r3, #0]
     2e0:	3201      	adds	r2, #1
     2e2:	601a      	str	r2, [r3, #0]
D:\CQ9008\sample_codes\Release_example_240606\puf_template\debug/../src/main.c:66
    if ((LED_FLASH_TIME <= g_led_count) && (g_led_on))
     2e4:	681a      	ldr	r2, [r3, #0]
     2e6:	4b0a      	ldr	r3, [pc, #40]	; (310 <LPTMR0_IRQHandler+0x40>)
     2e8:	429a      	cmp	r2, r3
     2ea:	d903      	bls.n	2f4 <LPTMR0_IRQHandler+0x24>
D:\CQ9008\sample_codes\Release_example_240606\puf_template\debug/../src/main.c:66 (discriminator 1)
     2ec:	4b09      	ldr	r3, [pc, #36]	; (314 <LPTMR0_IRQHandler+0x44>)
     2ee:	781b      	ldrb	r3, [r3, #0]
     2f0:	2b00      	cmp	r3, #0
     2f2:	d100      	bne.n	2f6 <LPTMR0_IRQHandler+0x26>
D:\CQ9008\sample_codes\Release_example_240606\puf_template\debug/../src/main.c:71
}
     2f4:	bd10      	pop	{r4, pc}
D:\CQ9008\sample_codes\Release_example_240606\puf_template\debug/../src/main.c:68
        g_led_count = 0;
     2f6:	4b05      	ldr	r3, [pc, #20]	; (30c <LPTMR0_IRQHandler+0x3c>)
     2f8:	2200      	movs	r2, #0
     2fa:	601a      	str	r2, [r3, #0]
D:\CQ9008\sample_codes\Release_example_240606\puf_template\debug/../src/main.c:69
        pins_toggle_pins(PTE, 0x8000); /*toggle pin*/
     2fc:	0209      	lsls	r1, r1, #8
     2fe:	4806      	ldr	r0, [pc, #24]	; (318 <LPTMR0_IRQHandler+0x48>)
     300:	f002 ff28 	bl	3154 <pins_toggle_pins>
D:\CQ9008\sample_codes\Release_example_240606\puf_template\debug/../src/main.c:71
}
     304:	e7f6      	b.n	2f4 <LPTMR0_IRQHandler+0x24>
     306:	46c0      	nop			; (mov r8, r8)
     308:	40040000 	.word	0x40040000
     30c:	20000264 	.word	0x20000264
     310:	00004e1f 	.word	0x00004e1f
     314:	20000268 	.word	0x20000268
     318:	400ff100 	.word	0x400ff100

0000031c <print>:
print():
D:\CQ9008\sample_codes\Release_example_240606\puf_template\debug/../src/main.c:75
{
     31c:	b510      	push	{r4, lr}
     31e:	0004      	movs	r4, r0
D:\CQ9008\sample_codes\Release_example_240606\puf_template\debug/../src/main.c:76
    lpuart_send_data_blocking(0, (uint8_t *)p_source_str, strlen(p_source_str), TIMEOUT);
     320:	f7ff ff9e 	bl	260 <strlen>
     324:	0002      	movs	r2, r0
     326:	23c8      	movs	r3, #200	; 0xc8
     328:	0021      	movs	r1, r4
     32a:	2000      	movs	r0, #0
     32c:	f002 fb90 	bl	2a50 <lpuart_send_data_blocking>
D:\CQ9008\sample_codes\Release_example_240606\puf_template\debug/../src/main.c:77
}
     330:	bd10      	pop	{r4, pc}
	...

00000334 <init_pins>:
init_pins():
D:\CQ9008\sample_codes\Release_example_240606\puf_template\debug/../src/main.c:100

void
init_pins(void)
{
     334:	b500      	push	{lr}
     336:	b093      	sub	sp, #76	; 0x4c
D:\CQ9008\sample_codes\Release_example_240606\puf_template\debug/../src/main.c:101
    pin_settings_config_t pin_mux_init_config_arr0[3] = {
     338:	2248      	movs	r2, #72	; 0x48
     33a:	2100      	movs	r1, #0
     33c:	4668      	mov	r0, sp
     33e:	f7ff ffa1 	bl	284 <memset>
     342:	4b0f      	ldr	r3, [pc, #60]	; (380 <init_pins+0x4c>)
     344:	9300      	str	r3, [sp, #0]
     346:	2202      	movs	r2, #2
     348:	4669      	mov	r1, sp
     34a:	728a      	strb	r2, [r1, #10]
     34c:	9306      	str	r3, [sp, #24]
     34e:	2301      	movs	r3, #1
     350:	9307      	str	r3, [sp, #28]
     352:	2122      	movs	r1, #34	; 0x22
     354:	4668      	mov	r0, sp
     356:	5442      	strb	r2, [r0, r1]
     358:	4a0a      	ldr	r2, [pc, #40]	; (384 <init_pins+0x50>)
     35a:	920c      	str	r2, [sp, #48]	; 0x30
     35c:	220f      	movs	r2, #15
     35e:	920d      	str	r2, [sp, #52]	; 0x34
     360:	322b      	adds	r2, #43	; 0x2b
     362:	5483      	strb	r3, [r0, r2]
     364:	3202      	adds	r2, #2
     366:	2109      	movs	r1, #9
     368:	5481      	strb	r1, [r0, r2]
     36a:	4a07      	ldr	r2, [pc, #28]	; (388 <init_pins+0x54>)
     36c:	9210      	str	r2, [sp, #64]	; 0x40
     36e:	2244      	movs	r2, #68	; 0x44
     370:	4669      	mov	r1, sp
     372:	5483      	strb	r3, [r0, r2]
D:\CQ9008\sample_codes\Release_example_240606\puf_template\debug/../src/main.c:141
            .direction        = GPIO_OUTPUT_DIRECTION,
            .b_digital_filter = false,
            .init_value       = 0U,
        },
    };
    pins_init(3, pin_mux_init_config_arr0);
     374:	2003      	movs	r0, #3
     376:	f002 fedd 	bl	3134 <pins_init>
D:\CQ9008\sample_codes\Release_example_240606\puf_template\debug/../src/main.c:142
}
     37a:	b013      	add	sp, #76	; 0x4c
     37c:	bd00      	pop	{pc}
     37e:	46c0      	nop			; (mov r8, r8)
     380:	4004a000 	.word	0x4004a000
     384:	4004d000 	.word	0x4004d000
     388:	400ff100 	.word	0x400ff100

0000038c <init_uart>:
init_uart():
D:\CQ9008\sample_codes\Release_example_240606\puf_template\debug/../src/main.c:146

void
init_uart(void)
{
     38c:	b530      	push	{r4, r5, lr}
     38e:	b085      	sub	sp, #20
D:\CQ9008\sample_codes\Release_example_240606\puf_template\debug/../src/main.c:148
    static lpuart_state_t      s_lpuart_state[1];
    const lpuart_user_config_t lpuart0_config = {
     390:	aa01      	add	r2, sp, #4
     392:	4b07      	ldr	r3, [pc, #28]	; (3b0 <init_uart+0x24>)
     394:	0011      	movs	r1, r2
     396:	cb31      	ldmia	r3!, {r0, r4, r5}
     398:	c131      	stmia	r1!, {r0, r4, r5}
D:\CQ9008\sample_codes\Release_example_240606\puf_template\debug/../src/main.c:157
        .stop_bit_count     = LPUART_ONE_STOP_BIT,
        .transfer_type      = LPUART_USING_INTERRUPTS,
        .rx_dma_channel     = 1UL,
        .tx_dma_channel     = 0UL,
    };
    lpuart_init(0, (lpuart_state_t *)(&s_lpuart_state[0]), &lpuart0_config);
     39a:	4906      	ldr	r1, [pc, #24]	; (3b4 <init_uart+0x28>)
     39c:	2000      	movs	r0, #0
     39e:	f002 fc83 	bl	2ca8 <lpuart_init>
D:\CQ9008\sample_codes\Release_example_240606\puf_template\debug/../src/main.c:158
    (void)lpuart_install_rx_callback(0, rx0_callback, NULL);
     3a2:	2200      	movs	r2, #0
     3a4:	4904      	ldr	r1, [pc, #16]	; (3b8 <init_uart+0x2c>)
     3a6:	2000      	movs	r0, #0
     3a8:	f002 fb44 	bl	2a34 <lpuart_install_rx_callback>
D:\CQ9008\sample_codes\Release_example_240606\puf_template\debug/../src/main.c:159
}
     3ac:	b005      	add	sp, #20
     3ae:	bd30      	pop	{r4, r5, pc}
     3b0:	000054b4 	.word	0x000054b4
     3b4:	200002a0 	.word	0x200002a0
     3b8:	00000295 	.word	0x00000295

000003bc <init_lptmr>:
init_lptmr():
D:\CQ9008\sample_codes\Release_example_240606\puf_template\debug/../src/main.c:163

void
init_lptmr(void)
{
     3bc:	b530      	push	{r4, r5, lr}
     3be:	b085      	sub	sp, #20
D:\CQ9008\sample_codes\Release_example_240606\puf_template\debug/../src/main.c:164
    const lptmr_config_t lptmr_config0 = {.work_mode          = LPTMR_WORKMODE_TIMER,
     3c0:	4669      	mov	r1, sp
     3c2:	4b08      	ldr	r3, [pc, #32]	; (3e4 <init_lptmr+0x28>)
     3c4:	330c      	adds	r3, #12
     3c6:	000a      	movs	r2, r1
     3c8:	cb31      	ldmia	r3!, {r0, r4, r5}
     3ca:	c231      	stmia	r2!, {r0, r4, r5}
     3cc:	681b      	ldr	r3, [r3, #0]
     3ce:	6013      	str	r3, [r2, #0]
D:\CQ9008\sample_codes\Release_example_240606\puf_template\debug/../src/main.c:173
                                          .compare_value      = 9UL,
                                          .clock_select       = LPTMR_CLOCKSOURCE_SIRCDIV2,
                                          .prescaler          = LPTMR_PRESCALE_8_GLITCHFILTER_4,
                                          .pin_select         = LPTMR_PINSELECT_TRGMUX,
                                          .pin_polarity       = LPTMR_PINPOLARITY_RISING};
    lptmr_init(0, &lptmr_config0, true);
     3d0:	2201      	movs	r2, #1
     3d2:	2000      	movs	r0, #0
     3d4:	f001 fdbc 	bl	1f50 <lptmr_init>
D:\CQ9008\sample_codes\Release_example_240606\puf_template\debug/../src/main.c:174
    g_led_count = 0;
     3d8:	4b03      	ldr	r3, [pc, #12]	; (3e8 <init_lptmr+0x2c>)
     3da:	2200      	movs	r2, #0
     3dc:	601a      	str	r2, [r3, #0]
D:\CQ9008\sample_codes\Release_example_240606\puf_template\debug/../src/main.c:175
}
     3de:	b005      	add	sp, #20
     3e0:	bd30      	pop	{r4, r5, pc}
     3e2:	46c0      	nop			; (mov r8, r8)
     3e4:	000054b4 	.word	0x000054b4
     3e8:	20000264 	.word	0x20000264

000003ec <main>:
main():
D:\CQ9008\sample_codes\Release_example_240606\puf_template\debug/../src/main.c:184
 * @details The startup initialization sequence is the following:
 * - main()
 */
int
main(void)
{
     3ec:	b530      	push	{r4, r5, lr}
     3ee:	b083      	sub	sp, #12
D:\CQ9008\sample_codes\Release_example_240606\puf_template\debug/../src/main.c:186
    /* Write your code here */
    uint32_t bytes_remaining = 0;
     3f0:	2300      	movs	r3, #0
     3f2:	9301      	str	r3, [sp, #4]
D:\CQ9008\sample_codes\Release_example_240606\puf_template\debug/../src/main.c:188
    status_t status;
    g_led_on = false;
     3f4:	4a3b      	ldr	r2, [pc, #236]	; (4e4 <HEAP_SIZE+0xe4>)
     3f6:	7013      	strb	r3, [r2, #0]
D:\CQ9008\sample_codes\Release_example_240606\puf_template\debug/../src/main.c:190

    pins_chip_init();
     3f8:	f002 fe76 	bl	30e8 <pins_chip_init>
D:\CQ9008\sample_codes\Release_example_240606\puf_template\debug/../src/main.c:193

    uint32_t *SCG_OSCR_REG = (uint32_t *)0x40064008;
    SCG_OSCR_REG[0]        = SCG_OSCR_REG[0] | 0x01000000; // for PLL source: OSC
     3fc:	4a3a      	ldr	r2, [pc, #232]	; (4e8 <HEAP_SIZE+0xe8>)
     3fe:	2380      	movs	r3, #128	; 0x80
     400:	045b      	lsls	r3, r3, #17
     402:	6811      	ldr	r1, [r2, #0]
     404:	430b      	orrs	r3, r1
     406:	6013      	str	r3, [r2, #0]
D:\CQ9008\sample_codes\Release_example_240606\puf_template\debug/../src/main.c:196

    /* Initialize and configure clocks */
    clock_init_config(gp_clock_man_configs_arr,
     408:	2300      	movs	r3, #0
     40a:	4a38      	ldr	r2, [pc, #224]	; (4ec <HEAP_SIZE+0xec>)
     40c:	2101      	movs	r1, #1
     40e:	4838      	ldr	r0, [pc, #224]	; (4f0 <HEAP_SIZE+0xf0>)
     410:	f001 f90e 	bl	1630 <clock_init_config>
D:\CQ9008\sample_codes\Release_example_240606\puf_template\debug/../src/main.c:200
                      CLOCK_MANAGER_CONFIG_CNT,
                      gp_clock_man_callback_arr,
                      CLOCK_MANAGER_CALLBACK_CNT);
    clock_update_config(0U, CLOCK_MANAGER_POLICY_AGREEMENT);
     414:	2100      	movs	r1, #0
     416:	2000      	movs	r0, #0
     418:	f001 f91e 	bl	1658 <clock_update_config>
D:\CQ9008\sample_codes\Release_example_240606\puf_template\debug/../src/main.c:202

    init_pins();
     41c:	f7ff ff8a 	bl	334 <init_pins>
D:\CQ9008\sample_codes\Release_example_240606\puf_template\debug/../src/main.c:203
    init_lptmr();
     420:	f7ff ffcc 	bl	3bc <init_lptmr>
D:\CQ9008\sample_codes\Release_example_240606\puf_template\debug/../src/main.c:204
    init_uart();
     424:	f7ff ffb2 	bl	38c <init_uart>
D:\CQ9008\sample_codes\Release_example_240606\puf_template\debug/../src/main.c:206

    print((const char *)"Please enter a letter p(pufs) or g(gpio) to start test.\n");
     428:	4832      	ldr	r0, [pc, #200]	; (4f4 <HEAP_SIZE+0xf4>)
     42a:	f7ff ff77 	bl	31c <print>
     42e:	e00a      	b.n	446 <HEAP_SIZE+0x46>
D:\CQ9008\sample_codes\Release_example_240606\puf_template\debug/../src/main.c:235
        print(g_message);

        /* Do tests if input matched */
        if (0 == strcmp("p\n", (const char *)g_buffer0))
        {
            print((const char *)"PUFS : Start the PUFS test \n");
     430:	4831      	ldr	r0, [pc, #196]	; (4f8 <HEAP_SIZE+0xf8>)
     432:	f7ff ff73 	bl	31c <print>
D:\CQ9008\sample_codes\Release_example_240606\puf_template\debug/../src/main.c:236
            pufs_test();
     436:	f000 fa1f 	bl	878 <pufs_test>
D:\CQ9008\sample_codes\Release_example_240606\puf_template\debug/../src/main.c:237
            print((const char *)"PUFS : End the PUFS test. \n");
     43a:	4830      	ldr	r0, [pc, #192]	; (4fc <HEAP_SIZE+0xfc>)
     43c:	f7ff ff6e 	bl	31c <print>
D:\CQ9008\sample_codes\Release_example_240606\puf_template\debug/../src/main.c:252
            {
                print((const char *)"GPIO : Turn off the LED blinking \n");
                g_led_on = false;
            }
        }
        print((const char *)"\n");
     440:	482f      	ldr	r0, [pc, #188]	; (500 <HEAP_SIZE+0x100>)
     442:	f7ff ff6b 	bl	31c <print>
D:\CQ9008\sample_codes\Release_example_240606\puf_template\debug/../src/main.c:210
        print((const char *)"(Ctrl+J to terminate input): ");
     446:	482f      	ldr	r0, [pc, #188]	; (504 <HEAP_SIZE+0x104>)
     448:	f7ff ff68 	bl	31c <print>
D:\CQ9008\sample_codes\Release_example_240606\puf_template\debug/../src/main.c:211
        memset(g_buffer0, 0, strlen((char *)g_buffer0));
     44c:	4c2e      	ldr	r4, [pc, #184]	; (508 <HEAP_SIZE+0x108>)
     44e:	0020      	movs	r0, r4
     450:	f7ff ff06 	bl	260 <strlen>
     454:	0002      	movs	r2, r0
     456:	2100      	movs	r1, #0
     458:	0020      	movs	r0, r4
     45a:	f7ff ff13 	bl	284 <memset>
D:\CQ9008\sample_codes\Release_example_240606\puf_template\debug/../src/main.c:212
        g_buffer0_idx = 0U;
     45e:	4b2b      	ldr	r3, [pc, #172]	; (50c <HEAP_SIZE+0x10c>)
     460:	2200      	movs	r2, #0
     462:	701a      	strb	r2, [r3, #0]
D:\CQ9008\sample_codes\Release_example_240606\puf_template\debug/../src/main.c:213
        lpuart_receive_data(0, g_buffer0, 1U);
     464:	3201      	adds	r2, #1
     466:	0021      	movs	r1, r4
     468:	2000      	movs	r0, #0
     46a:	f002 fb2f 	bl	2acc <lpuart_receive_data>
D:\CQ9008\sample_codes\Release_example_240606\puf_template\debug/../src/main.c:216 (discriminator 1)
        while (lpuart_get_receive_status(0, &bytes_remaining) == STATUS_BUSY)
     46e:	a901      	add	r1, sp, #4
     470:	2000      	movs	r0, #0
     472:	f002 fb49 	bl	2b08 <lpuart_get_receive_status>
     476:	2802      	cmp	r0, #2
     478:	d0f9      	beq.n	46e <HEAP_SIZE+0x6e>
D:\CQ9008\sample_codes\Release_example_240606\puf_template\debug/../src/main.c:220
        status = lpuart_get_receive_status(0, &bytes_remaining);
     47a:	a901      	add	r1, sp, #4
     47c:	2000      	movs	r0, #0
     47e:	f002 fb43 	bl	2b08 <lpuart_get_receive_status>
D:\CQ9008\sample_codes\Release_example_240606\puf_template\debug/../src/main.c:221
        if (status != STATUS_SUCCESS)
     482:	2800      	cmp	r0, #0
     484:	d127      	bne.n	4d6 <HEAP_SIZE+0xd6>
D:\CQ9008\sample_codes\Release_example_240606\puf_template\debug/../src/main.c:229
        sprintf(g_message, ">>> %s", g_buffer0);
     486:	4c20      	ldr	r4, [pc, #128]	; (508 <HEAP_SIZE+0x108>)
     488:	4d21      	ldr	r5, [pc, #132]	; (510 <HEAP_SIZE+0x110>)
     48a:	0022      	movs	r2, r4
     48c:	4921      	ldr	r1, [pc, #132]	; (514 <HEAP_SIZE+0x114>)
     48e:	0028      	movs	r0, r5
     490:	f003 ff50 	bl	4334 <siprintf>
D:\CQ9008\sample_codes\Release_example_240606\puf_template\debug/../src/main.c:230
        print(g_message);
     494:	0028      	movs	r0, r5
     496:	f7ff ff41 	bl	31c <print>
D:\CQ9008\sample_codes\Release_example_240606\puf_template\debug/../src/main.c:233
        if (0 == strcmp("p\n", (const char *)g_buffer0))
     49a:	0021      	movs	r1, r4
     49c:	481e      	ldr	r0, [pc, #120]	; (518 <HEAP_SIZE+0x118>)
     49e:	f7ff fed5 	bl	24c <strcmp>
     4a2:	2800      	cmp	r0, #0
     4a4:	d0c4      	beq.n	430 <HEAP_SIZE+0x30>
D:\CQ9008\sample_codes\Release_example_240606\puf_template\debug/../src/main.c:239
        else if (0 == strcmp("g\n", (const char *)g_buffer0))
     4a6:	4918      	ldr	r1, [pc, #96]	; (508 <HEAP_SIZE+0x108>)
     4a8:	481c      	ldr	r0, [pc, #112]	; (51c <HEAP_SIZE+0x11c>)
     4aa:	f7ff fecf 	bl	24c <strcmp>
     4ae:	2800      	cmp	r0, #0
     4b0:	d1c6      	bne.n	440 <HEAP_SIZE+0x40>
D:\CQ9008\sample_codes\Release_example_240606\puf_template\debug/../src/main.c:241
            if (g_led_on == false)
     4b2:	4b0c      	ldr	r3, [pc, #48]	; (4e4 <HEAP_SIZE+0xe4>)
     4b4:	781b      	ldrb	r3, [r3, #0]
     4b6:	2b00      	cmp	r3, #0
     4b8:	d106      	bne.n	4c8 <HEAP_SIZE+0xc8>
D:\CQ9008\sample_codes\Release_example_240606\puf_template\debug/../src/main.c:243
                print((const char *)"GPIO : Turn on the LED blinking \n");
     4ba:	4819      	ldr	r0, [pc, #100]	; (520 <HEAP_SIZE+0x120>)
     4bc:	f7ff ff2e 	bl	31c <print>
D:\CQ9008\sample_codes\Release_example_240606\puf_template\debug/../src/main.c:244
                g_led_on = true;
     4c0:	4b08      	ldr	r3, [pc, #32]	; (4e4 <HEAP_SIZE+0xe4>)
     4c2:	2201      	movs	r2, #1
     4c4:	701a      	strb	r2, [r3, #0]
     4c6:	e7bb      	b.n	440 <HEAP_SIZE+0x40>
D:\CQ9008\sample_codes\Release_example_240606\puf_template\debug/../src/main.c:248
                print((const char *)"GPIO : Turn off the LED blinking \n");
     4c8:	4816      	ldr	r0, [pc, #88]	; (524 <HEAP_SIZE+0x124>)
     4ca:	f7ff ff27 	bl	31c <print>
D:\CQ9008\sample_codes\Release_example_240606\puf_template\debug/../src/main.c:249
                g_led_on = false;
     4ce:	4b05      	ldr	r3, [pc, #20]	; (4e4 <HEAP_SIZE+0xe4>)
     4d0:	2200      	movs	r2, #0
     4d2:	701a      	strb	r2, [r3, #0]
     4d4:	e7b4      	b.n	440 <HEAP_SIZE+0x40>
D:\CQ9008\sample_codes\Release_example_240606\puf_template\debug/../src/main.c:224
            print((const char *)"uart receive error!!\n");
     4d6:	4814      	ldr	r0, [pc, #80]	; (528 <HEAP_SIZE+0x128>)
     4d8:	f7ff ff20 	bl	31c <print>
D:\CQ9008\sample_codes\Release_example_240606\puf_template\debug/../src/main.c:255
    }

    return g_exit_code;
     4dc:	4b13      	ldr	r3, [pc, #76]	; (52c <HEAP_SIZE+0x12c>)
     4de:	6818      	ldr	r0, [r3, #0]
D:\CQ9008\sample_codes\Release_example_240606\puf_template\debug/../src/main.c:256
}
     4e0:	b003      	add	sp, #12
     4e2:	bd30      	pop	{r4, r5, pc}
     4e4:	20000268 	.word	0x20000268
     4e8:	40064008 	.word	0x40064008
     4ec:	20000158 	.word	0x20000158
     4f0:	20000100 	.word	0x20000100
     4f4:	00005954 	.word	0x00005954
     4f8:	000059d4 	.word	0x000059d4
     4fc:	000059f4 	.word	0x000059f4
     500:	00005a34 	.word	0x00005a34
     504:	00005990 	.word	0x00005990
     508:	2000015c 	.word	0x2000015c
     50c:	2000025c 	.word	0x2000025c
     510:	2000026c 	.word	0x2000026c
     514:	000059c8 	.word	0x000059c8
     518:	000059d0 	.word	0x000059d0
     51c:	00005a10 	.word	0x00005a10
     520:	00005a14 	.word	0x00005a14
     524:	00005a38 	.word	0x00005a38
     528:	000059b0 	.word	0x000059b0
     52c:	20000260 	.word	0x20000260

00000530 <pufs_hash_iuf_test>:
pufs_hash_iuf_test():
D:\CQ9008\sample_codes\Release_example_240606\puf_template\debug/../src/pufs_hmac_test.c:226
/*******************************************************************************
 * Static functions
 ******************************************************************************/
static pufs_status_t
pufs_hash_iuf_test(uint32_t ntests, const struct hash_test_pattern *tp)
{
     530:	b5f0      	push	{r4, r5, r6, r7, lr}
     532:	46ce      	mov	lr, r9
     534:	4647      	mov	r7, r8
     536:	b580      	push	{r7, lr}
     538:	b093      	sub	sp, #76	; 0x4c
     53a:	4681      	mov	r9, r0
     53c:	4688      	mov	r8, r1
D:\CQ9008\sample_codes\Release_example_240606\puf_template\debug/../src/pufs_hmac_test.c:228
    pufs_status_t  check    = E_ERROR;
    pufs_hash_ctx *hash_ctx = pufs_hash_ctx_new();
     53e:	f003 f977 	bl	3830 <pufs_hmac_ctx_new>
     542:	1e05      	subs	r5, r0, #0
D:\CQ9008\sample_codes\Release_example_240606\puf_template\debug/../src/pufs_hmac_test.c:229
    if (NULL != hash_ctx)
     544:	d022      	beq.n	58c <pufs_hash_iuf_test+0x5c>
D:\CQ9008\sample_codes\Release_example_240606\puf_template\debug/../src/pufs_hmac_test.c:231
    {
        for (uint32_t i = 0; i < ntests; i++)
     546:	2700      	movs	r7, #0
D:\CQ9008\sample_codes\Release_example_240606\puf_template\debug/../src/pufs_hmac_test.c:227
    pufs_status_t  check    = E_ERROR;
     548:	240d      	movs	r4, #13
D:\CQ9008\sample_codes\Release_example_240606\puf_template\debug/../src/pufs_hmac_test.c:231 (discriminator 1)
        for (uint32_t i = 0; i < ntests; i++)
     54a:	454f      	cmp	r7, r9
     54c:	d221      	bcs.n	592 <pufs_hash_iuf_test+0x62>
D:\CQ9008\sample_codes\Release_example_240606\puf_template\debug/../src/pufs_hmac_test.c:235
        {
            pufs_dgst_st md;

            check = pufs_hash_init(hash_ctx, tp[i].hash);
     54e:	013b      	lsls	r3, r7, #4
     550:	4642      	mov	r2, r8
     552:	18d6      	adds	r6, r2, r3
     554:	5cd1      	ldrb	r1, [r2, r3]
     556:	0028      	movs	r0, r5
     558:	f003 fa2c 	bl	39b4 <pufs_hash_init>
     55c:	1e04      	subs	r4, r0, #0
D:\CQ9008\sample_codes\Release_example_240606\puf_template\debug/../src/pufs_hmac_test.c:236
            if (SUCCESS != check)
     55e:	d118      	bne.n	592 <pufs_hash_iuf_test+0x62>
D:\CQ9008\sample_codes\Release_example_240606\puf_template\debug/../src/pufs_hmac_test.c:241
            {
                break;
            }

            check = pufs_hash_update(hash_ctx, tp[i].msg, tp[i].msglen);
     560:	6872      	ldr	r2, [r6, #4]
     562:	68b1      	ldr	r1, [r6, #8]
     564:	0028      	movs	r0, r5
     566:	f003 f973 	bl	3850 <pufs_hash_update>
     56a:	1e04      	subs	r4, r0, #0
D:\CQ9008\sample_codes\Release_example_240606\puf_template\debug/../src/pufs_hmac_test.c:242
            if (SUCCESS != check)
     56c:	d111      	bne.n	592 <pufs_hash_iuf_test+0x62>
D:\CQ9008\sample_codes\Release_example_240606\puf_template\debug/../src/pufs_hmac_test.c:247
            {
                break;
            }

            check = pufs_hash_final(hash_ctx, &md);
     56e:	a901      	add	r1, sp, #4
     570:	0028      	movs	r0, r5
     572:	f003 f975 	bl	3860 <pufs_hash_final>
     576:	1e04      	subs	r4, r0, #0
D:\CQ9008\sample_codes\Release_example_240606\puf_template\debug/../src/pufs_hmac_test.c:248
            if (SUCCESS != check)
     578:	d10b      	bne.n	592 <pufs_hash_iuf_test+0x62>
D:\CQ9008\sample_codes\Release_example_240606\puf_template\debug/../src/pufs_hmac_test.c:253
            {
                break;
            }

            check = pufs_test_memcmp(tp[i].md, md.dgst, md.dlen);
     57a:	68f0      	ldr	r0, [r6, #12]
pufs_test_memcmp():
D:\CQ9008\sample_codes\Release_example_240606\puf_template\debug/../inc/pufs_test_common.h:46
 * @return SUCCESS if contents are identical, otherwise E_VERFAIL
 */
static inline pufs_status_t
pufs_test_memcmp(const void *__s1, const void *__s2, size_t __n)
{
    return memcmp(__s1, __s2, __n) == 0 ? SUCCESS : E_VERFAIL;
     57c:	9a01      	ldr	r2, [sp, #4]
     57e:	a902      	add	r1, sp, #8
     580:	f003 fda0 	bl	40c4 <memcmp>
     584:	2800      	cmp	r0, #0
     586:	d103      	bne.n	590 <pufs_hash_iuf_test+0x60>
pufs_hash_iuf_test():
D:\CQ9008\sample_codes\Release_example_240606\puf_template\debug/../src/pufs_hmac_test.c:231
        for (uint32_t i = 0; i < ntests; i++)
     588:	3701      	adds	r7, #1
     58a:	e7de      	b.n	54a <pufs_hash_iuf_test+0x1a>
D:\CQ9008\sample_codes\Release_example_240606\puf_template\debug/../src/pufs_hmac_test.c:227
    pufs_status_t  check    = E_ERROR;
     58c:	240d      	movs	r4, #13
     58e:	e003      	b.n	598 <pufs_hash_iuf_test+0x68>
pufs_test_memcmp():
D:\CQ9008\sample_codes\Release_example_240606\puf_template\debug/../inc/pufs_test_common.h:46
     590:	2408      	movs	r4, #8
pufs_hash_iuf_test():
D:\CQ9008\sample_codes\Release_example_240606\puf_template\debug/../src/pufs_hmac_test.c:259
            if (SUCCESS != check)
            {
                break;
            }
        }
        pufs_hash_ctx_free(hash_ctx);
     592:	0028      	movs	r0, r5
     594:	f003 f958 	bl	3848 <pufs_hmac_ctx_free>
D:\CQ9008\sample_codes\Release_example_240606\puf_template\debug/../src/pufs_hmac_test.c:263
    }

    return check;
}
     598:	0020      	movs	r0, r4
     59a:	b013      	add	sp, #76	; 0x4c
     59c:	bcc0      	pop	{r6, r7}
     59e:	46b9      	mov	r9, r7
     5a0:	46b0      	mov	r8, r6
     5a2:	bdf0      	pop	{r4, r5, r6, r7, pc}

000005a4 <pufs_hash_test>:
pufs_hash_test():
D:\CQ9008\sample_codes\Release_example_240606\puf_template\debug/../src/pufs_hmac_test.c:267

static pufs_status_t
pufs_hash_test(uint32_t ntests, const struct hash_test_pattern *tp)
{
     5a4:	b5f0      	push	{r4, r5, r6, r7, lr}
     5a6:	46c6      	mov	lr, r8
     5a8:	b500      	push	{lr}
     5aa:	b092      	sub	sp, #72	; 0x48
     5ac:	0007      	movs	r7, r0
     5ae:	4688      	mov	r8, r1
D:\CQ9008\sample_codes\Release_example_240606\puf_template\debug/../src/pufs_hmac_test.c:270
    pufs_status_t check = E_ERROR;

    for (uint32_t i = 0; i < ntests; i++)
     5b0:	2600      	movs	r6, #0
D:\CQ9008\sample_codes\Release_example_240606\puf_template\debug/../src/pufs_hmac_test.c:268
    pufs_status_t check = E_ERROR;
     5b2:	250d      	movs	r5, #13
D:\CQ9008\sample_codes\Release_example_240606\puf_template\debug/../src/pufs_hmac_test.c:270 (discriminator 1)
    for (uint32_t i = 0; i < ntests; i++)
     5b4:	42be      	cmp	r6, r7
     5b6:	d213      	bcs.n	5e0 <pufs_hash_test+0x3c>
D:\CQ9008\sample_codes\Release_example_240606\puf_template\debug/../src/pufs_hmac_test.c:274
    {
        pufs_dgst_st md;

        check = pufs_hash(&md, tp[i].msg, tp[i].msglen, tp[i].hash);
     5b8:	0134      	lsls	r4, r6, #4
     5ba:	4444      	add	r4, r8
     5bc:	7823      	ldrb	r3, [r4, #0]
     5be:	6862      	ldr	r2, [r4, #4]
     5c0:	68a1      	ldr	r1, [r4, #8]
     5c2:	a801      	add	r0, sp, #4
     5c4:	f003 f953 	bl	386e <pufs_hash>
     5c8:	1e05      	subs	r5, r0, #0
D:\CQ9008\sample_codes\Release_example_240606\puf_template\debug/../src/pufs_hmac_test.c:275
        if (SUCCESS != check)
     5ca:	d109      	bne.n	5e0 <pufs_hash_test+0x3c>
D:\CQ9008\sample_codes\Release_example_240606\puf_template\debug/../src/pufs_hmac_test.c:280
        {
            break;
        }

        check = pufs_test_memcmp(tp[i].md, md.dgst, md.dlen);
     5cc:	68e0      	ldr	r0, [r4, #12]
pufs_test_memcmp():
D:\CQ9008\sample_codes\Release_example_240606\puf_template\debug/../inc/pufs_test_common.h:46
     5ce:	9a01      	ldr	r2, [sp, #4]
     5d0:	a902      	add	r1, sp, #8
     5d2:	f003 fd77 	bl	40c4 <memcmp>
     5d6:	2800      	cmp	r0, #0
     5d8:	d101      	bne.n	5de <pufs_hash_test+0x3a>
pufs_hash_test():
D:\CQ9008\sample_codes\Release_example_240606\puf_template\debug/../src/pufs_hmac_test.c:270
    for (uint32_t i = 0; i < ntests; i++)
     5da:	3601      	adds	r6, #1
     5dc:	e7ea      	b.n	5b4 <pufs_hash_test+0x10>
pufs_test_memcmp():
D:\CQ9008\sample_codes\Release_example_240606\puf_template\debug/../inc/pufs_test_common.h:46
     5de:	2508      	movs	r5, #8
pufs_hash_test():
D:\CQ9008\sample_codes\Release_example_240606\puf_template\debug/../src/pufs_hmac_test.c:288
            break;
        }
    }

    return check;
}
     5e0:	0028      	movs	r0, r5
     5e2:	b012      	add	sp, #72	; 0x48
     5e4:	bc80      	pop	{r7}
     5e6:	46b8      	mov	r8, r7
     5e8:	bdf0      	pop	{r4, r5, r6, r7, pc}
	...

000005ec <pufs_sha2_iuf_test>:
pufs_sha2_iuf_test():
D:\CQ9008\sample_codes\Release_example_240606\puf_template\debug/../src/pufs_hmac_test.c:27
{
     5ec:	b510      	push	{r4, lr}
D:\CQ9008\sample_codes\Release_example_240606\puf_template\debug/../src/pufs_hmac_test.c:28
    return pufs_hash_iuf_test(g_sha2_tp_count, g_sha2_tp);
     5ee:	4b03      	ldr	r3, [pc, #12]	; (5fc <pufs_sha2_iuf_test+0x10>)
     5f0:	6818      	ldr	r0, [r3, #0]
     5f2:	4903      	ldr	r1, [pc, #12]	; (600 <pufs_sha2_iuf_test+0x14>)
     5f4:	f7ff ff9c 	bl	530 <pufs_hash_iuf_test>
D:\CQ9008\sample_codes\Release_example_240606\puf_template\debug/../src/pufs_hmac_test.c:29
}
     5f8:	bd10      	pop	{r4, pc}
     5fa:	46c0      	nop			; (mov r8, r8)
     5fc:	20000108 	.word	0x20000108
     600:	000060e8 	.word	0x000060e8

00000604 <pufs_sha2_test>:
pufs_sha2_test():
D:\CQ9008\sample_codes\Release_example_240606\puf_template\debug/../src/pufs_hmac_test.c:33
{
     604:	b510      	push	{r4, lr}
D:\CQ9008\sample_codes\Release_example_240606\puf_template\debug/../src/pufs_hmac_test.c:34
    return pufs_hash_test(g_sha2_tp_count, g_sha2_tp);
     606:	4b03      	ldr	r3, [pc, #12]	; (614 <pufs_sha2_test+0x10>)
     608:	6818      	ldr	r0, [r3, #0]
     60a:	4903      	ldr	r1, [pc, #12]	; (618 <pufs_sha2_test+0x14>)
     60c:	f7ff ffca 	bl	5a4 <pufs_hash_test>
D:\CQ9008\sample_codes\Release_example_240606\puf_template\debug/../src/pufs_hmac_test.c:35
}
     610:	bd10      	pop	{r4, pc}
     612:	46c0      	nop			; (mov r8, r8)
     614:	20000108 	.word	0x20000108
     618:	000060e8 	.word	0x000060e8

0000061c <pufs_hmac_sha2_iuf_test>:
pufs_hmac_sha2_iuf_test():
D:\CQ9008\sample_codes\Release_example_240606\puf_template\debug/../src/pufs_hmac_test.c:39
{
     61c:	b5f0      	push	{r4, r5, r6, r7, lr}
     61e:	46d6      	mov	lr, sl
     620:	464f      	mov	r7, r9
     622:	4646      	mov	r6, r8
     624:	b5c0      	push	{r6, r7, lr}
     626:	b094      	sub	sp, #80	; 0x50
D:\CQ9008\sample_codes\Release_example_240606\puf_template\debug/../src/pufs_hmac_test.c:41
    const uint32_t                  ntests = g_hmac_sha2_tp_count;
     628:	4b2f      	ldr	r3, [pc, #188]	; (6e8 <pufs_hmac_sha2_iuf_test+0xcc>)
     62a:	681b      	ldr	r3, [r3, #0]
     62c:	4698      	mov	r8, r3
D:\CQ9008\sample_codes\Release_example_240606\puf_template\debug/../src/pufs_hmac_test.c:45
    pufs_hmac_ctx *hmac_ctx = pufs_hmac_ctx_new();
     62e:	f003 f8ff 	bl	3830 <pufs_hmac_ctx_new>
     632:	4681      	mov	r9, r0
D:\CQ9008\sample_codes\Release_example_240606\puf_template\debug/../src/pufs_hmac_test.c:46
    if (NULL != hmac_ctx)
     634:	2800      	cmp	r0, #0
     636:	d002      	beq.n	63e <pufs_hmac_sha2_iuf_test+0x22>
D:\CQ9008\sample_codes\Release_example_240606\puf_template\debug/../src/pufs_hmac_test.c:48
        for (uint32_t i = 0; i < ntests; i++)
     638:	2600      	movs	r6, #0
D:\CQ9008\sample_codes\Release_example_240606\puf_template\debug/../src/pufs_hmac_test.c:44
    pufs_status_t  check    = E_ERROR;
     63a:	240d      	movs	r4, #13
     63c:	e030      	b.n	6a0 <pufs_hmac_sha2_iuf_test+0x84>
     63e:	240d      	movs	r4, #13
     640:	e04a      	b.n	6d8 <pufs_hmac_sha2_iuf_test+0xbc>
D:\CQ9008\sample_codes\Release_example_240606\puf_template\debug/../src/pufs_hmac_test.c:59
            keyslot = (kbits > 256) ? SK512_0 : (kbits > 128) ? SK256_0 : SK128_0;
     642:	230c      	movs	r3, #12
     644:	469a      	mov	sl, r3
D:\CQ9008\sample_codes\Release_example_240606\puf_template\debug/../src/pufs_hmac_test.c:60 (discriminator 8)
            check   = pufs_import_plaintext_key(SSKEY, keyslot, tp[i].key, kbits);
     646:	003b      	movs	r3, r7
     648:	68aa      	ldr	r2, [r5, #8]
     64a:	4651      	mov	r1, sl
     64c:	2005      	movs	r0, #5
     64e:	f003 fbc7 	bl	3de0 <pufs_import_plaintext_key>
     652:	1e04      	subs	r4, r0, #0
D:\CQ9008\sample_codes\Release_example_240606\puf_template\debug/../src/pufs_hmac_test.c:61 (discriminator 8)
            if (SUCCESS != check)
     654:	d13d      	bne.n	6d2 <pufs_hmac_sha2_iuf_test+0xb6>
D:\CQ9008\sample_codes\Release_example_240606\puf_template\debug/../src/pufs_hmac_test.c:66
            check = pufs_hmac_init(hmac_ctx, tp[i].hash, SSKEY, keyslot, kbits);
     656:	7829      	ldrb	r1, [r5, #0]
     658:	9700      	str	r7, [sp, #0]
     65a:	4653      	mov	r3, sl
     65c:	2205      	movs	r2, #5
     65e:	4648      	mov	r0, r9
     660:	f003 f9b2 	bl	39c8 <_pufs_hmac_init>
     664:	1e04      	subs	r4, r0, #0
D:\CQ9008\sample_codes\Release_example_240606\puf_template\debug/../src/pufs_hmac_test.c:67
            if (SUCCESS != check)
     666:	d134      	bne.n	6d2 <pufs_hmac_sha2_iuf_test+0xb6>
D:\CQ9008\sample_codes\Release_example_240606\puf_template\debug/../src/pufs_hmac_test.c:72
            check = pufs_hmac_update(hmac_ctx, tp[i].msg, tp[i].msglen);
     668:	68ea      	ldr	r2, [r5, #12]
     66a:	6929      	ldr	r1, [r5, #16]
     66c:	4648      	mov	r0, r9
     66e:	f003 f9b6 	bl	39de <pufs_hmac_update>
     672:	1e04      	subs	r4, r0, #0
D:\CQ9008\sample_codes\Release_example_240606\puf_template\debug/../src/pufs_hmac_test.c:73
            if (SUCCESS != check)
     674:	d12d      	bne.n	6d2 <pufs_hmac_sha2_iuf_test+0xb6>
D:\CQ9008\sample_codes\Release_example_240606\puf_template\debug/../src/pufs_hmac_test.c:78
            check = pufs_hmac_final(hmac_ctx, &md);
     676:	a903      	add	r1, sp, #12
     678:	4648      	mov	r0, r9
     67a:	f003 f9b8 	bl	39ee <pufs_hmac_final>
     67e:	1e04      	subs	r4, r0, #0
D:\CQ9008\sample_codes\Release_example_240606\puf_template\debug/../src/pufs_hmac_test.c:79
            if (SUCCESS != check)
     680:	d127      	bne.n	6d2 <pufs_hmac_sha2_iuf_test+0xb6>
D:\CQ9008\sample_codes\Release_example_240606\puf_template\debug/../src/pufs_hmac_test.c:84
            check = pufs_clear_key(SSKEY, keyslot, kbits);
     682:	003a      	movs	r2, r7
     684:	4651      	mov	r1, sl
     686:	2005      	movs	r0, #5
     688:	f003 fbf2 	bl	3e70 <pufs_clear_key>
     68c:	1e04      	subs	r4, r0, #0
D:\CQ9008\sample_codes\Release_example_240606\puf_template\debug/../src/pufs_hmac_test.c:85
            if (SUCCESS != check)
     68e:	d120      	bne.n	6d2 <pufs_hmac_sha2_iuf_test+0xb6>
D:\CQ9008\sample_codes\Release_example_240606\puf_template\debug/../src/pufs_hmac_test.c:90
            check = pufs_test_memcmp(tp[i].md, md.dgst, md.dlen);
     690:	6968      	ldr	r0, [r5, #20]
pufs_test_memcmp():
D:\CQ9008\sample_codes\Release_example_240606\puf_template\debug/../inc/pufs_test_common.h:46
     692:	9a03      	ldr	r2, [sp, #12]
     694:	a904      	add	r1, sp, #16
     696:	f003 fd15 	bl	40c4 <memcmp>
     69a:	2800      	cmp	r0, #0
     69c:	d118      	bne.n	6d0 <pufs_hmac_sha2_iuf_test+0xb4>
pufs_hmac_sha2_iuf_test():
D:\CQ9008\sample_codes\Release_example_240606\puf_template\debug/../src/pufs_hmac_test.c:48 (discriminator 2)
        for (uint32_t i = 0; i < ntests; i++)
     69e:	3601      	adds	r6, #1
D:\CQ9008\sample_codes\Release_example_240606\puf_template\debug/../src/pufs_hmac_test.c:48 (discriminator 1)
     6a0:	4546      	cmp	r6, r8
     6a2:	d216      	bcs.n	6d2 <pufs_hmac_sha2_iuf_test+0xb6>
D:\CQ9008\sample_codes\Release_example_240606\puf_template\debug/../src/pufs_hmac_test.c:52
            kbits = tp[i].keybits;
     6a4:	0075      	lsls	r5, r6, #1
     6a6:	19ad      	adds	r5, r5, r6
     6a8:	00ed      	lsls	r5, r5, #3
     6aa:	4b10      	ldr	r3, [pc, #64]	; (6ec <pufs_hmac_sha2_iuf_test+0xd0>)
     6ac:	18ed      	adds	r5, r5, r3
     6ae:	686f      	ldr	r7, [r5, #4]
D:\CQ9008\sample_codes\Release_example_240606\puf_template\debug/../src/pufs_hmac_test.c:53
            if (kbits > 512)
     6b0:	2380      	movs	r3, #128	; 0x80
     6b2:	009b      	lsls	r3, r3, #2
     6b4:	429f      	cmp	r7, r3
     6b6:	d8f2      	bhi.n	69e <pufs_hmac_sha2_iuf_test+0x82>
D:\CQ9008\sample_codes\Release_example_240606\puf_template\debug/../src/pufs_hmac_test.c:59
            keyslot = (kbits > 256) ? SK512_0 : (kbits > 128) ? SK256_0 : SK128_0;
     6b8:	3b01      	subs	r3, #1
     6ba:	3bff      	subs	r3, #255	; 0xff
     6bc:	429f      	cmp	r7, r3
     6be:	d8c0      	bhi.n	642 <pufs_hmac_sha2_iuf_test+0x26>
D:\CQ9008\sample_codes\Release_example_240606\puf_template\debug/../src/pufs_hmac_test.c:59 (discriminator 1)
     6c0:	2f80      	cmp	r7, #128	; 0x80
     6c2:	d902      	bls.n	6ca <pufs_hmac_sha2_iuf_test+0xae>
D:\CQ9008\sample_codes\Release_example_240606\puf_template\debug/../src/pufs_hmac_test.c:59
     6c4:	3bf8      	subs	r3, #248	; 0xf8
     6c6:	469a      	mov	sl, r3
     6c8:	e7bd      	b.n	646 <pufs_hmac_sha2_iuf_test+0x2a>
     6ca:	2300      	movs	r3, #0
     6cc:	469a      	mov	sl, r3
     6ce:	e7ba      	b.n	646 <pufs_hmac_sha2_iuf_test+0x2a>
pufs_test_memcmp():
D:\CQ9008\sample_codes\Release_example_240606\puf_template\debug/../inc/pufs_test_common.h:46
     6d0:	3408      	adds	r4, #8
pufs_hmac_sha2_iuf_test():
D:\CQ9008\sample_codes\Release_example_240606\puf_template\debug/../src/pufs_hmac_test.c:96
        pufs_hmac_ctx_free(hmac_ctx);
     6d2:	4648      	mov	r0, r9
     6d4:	f003 f8b8 	bl	3848 <pufs_hmac_ctx_free>
D:\CQ9008\sample_codes\Release_example_240606\puf_template\debug/../src/pufs_hmac_test.c:100
}
     6d8:	0020      	movs	r0, r4
     6da:	b014      	add	sp, #80	; 0x50
     6dc:	bce0      	pop	{r5, r6, r7}
     6de:	46ba      	mov	sl, r7
     6e0:	46b1      	mov	r9, r6
     6e2:	46a8      	mov	r8, r5
     6e4:	bdf0      	pop	{r4, r5, r6, r7, pc}
     6e6:	46c0      	nop			; (mov r8, r8)
     6e8:	20000104 	.word	0x20000104
     6ec:	00005d8c 	.word	0x00005d8c

000006f0 <pufs_hmac_sha2_test>:
pufs_hmac_sha2_test():
D:\CQ9008\sample_codes\Release_example_240606\puf_template\debug/../src/pufs_hmac_test.c:104
{
     6f0:	b5f0      	push	{r4, r5, r6, r7, lr}
     6f2:	46ce      	mov	lr, r9
     6f4:	4647      	mov	r7, r8
     6f6:	b580      	push	{r7, lr}
     6f8:	b097      	sub	sp, #92	; 0x5c
D:\CQ9008\sample_codes\Release_example_240606\puf_template\debug/../src/pufs_hmac_test.c:106
    const uint32_t                  ntests = g_hmac_sha2_tp_count;
     6fa:	4b25      	ldr	r3, [pc, #148]	; (790 <pufs_hmac_sha2_test+0xa0>)
     6fc:	681b      	ldr	r3, [r3, #0]
     6fe:	4698      	mov	r8, r3
D:\CQ9008\sample_codes\Release_example_240606\puf_template\debug/../src/pufs_hmac_test.c:110
    for (uint32_t i = 0; i < ntests; i++)
     700:	2700      	movs	r7, #0
D:\CQ9008\sample_codes\Release_example_240606\puf_template\debug/../src/pufs_hmac_test.c:109
    pufs_status_t check = E_ERROR;
     702:	250d      	movs	r5, #13
D:\CQ9008\sample_codes\Release_example_240606\puf_template\debug/../src/pufs_hmac_test.c:110
    for (uint32_t i = 0; i < ntests; i++)
     704:	e025      	b.n	752 <pufs_hmac_sha2_test+0x62>
D:\CQ9008\sample_codes\Release_example_240606\puf_template\debug/../src/pufs_hmac_test.c:121
        keyslot = (kbits > 256) ? SK512_0 : (kbits > 128) ? SK256_0 : SK128_0;
     706:	230c      	movs	r3, #12
     708:	4699      	mov	r9, r3
D:\CQ9008\sample_codes\Release_example_240606\puf_template\debug/../src/pufs_hmac_test.c:122 (discriminator 8)
        check   = pufs_import_plaintext_key(SSKEY, keyslot, tp[i].key, kbits);
     70a:	0033      	movs	r3, r6
     70c:	68a2      	ldr	r2, [r4, #8]
     70e:	4649      	mov	r1, r9
     710:	2005      	movs	r0, #5
     712:	f003 fb65 	bl	3de0 <pufs_import_plaintext_key>
     716:	1e05      	subs	r5, r0, #0
D:\CQ9008\sample_codes\Release_example_240606\puf_template\debug/../src/pufs_hmac_test.c:123 (discriminator 8)
        if (SUCCESS != check)
     718:	d134      	bne.n	784 <pufs_hmac_sha2_test+0x94>
D:\CQ9008\sample_codes\Release_example_240606\puf_template\debug/../src/pufs_hmac_test.c:128
        check = pufs_hmac(&md, tp[i].msg, tp[i].msglen, tp[i].hash, SSKEY, keyslot, kbits);
     71a:	6921      	ldr	r1, [r4, #16]
     71c:	7823      	ldrb	r3, [r4, #0]
     71e:	68e2      	ldr	r2, [r4, #12]
     720:	9602      	str	r6, [sp, #8]
     722:	4648      	mov	r0, r9
     724:	9001      	str	r0, [sp, #4]
     726:	2005      	movs	r0, #5
     728:	9000      	str	r0, [sp, #0]
     72a:	a805      	add	r0, sp, #20
     72c:	f003 f966 	bl	39fc <_pufs_hmac>
     730:	1e05      	subs	r5, r0, #0
D:\CQ9008\sample_codes\Release_example_240606\puf_template\debug/../src/pufs_hmac_test.c:129
        if (SUCCESS != check)
     732:	d127      	bne.n	784 <pufs_hmac_sha2_test+0x94>
D:\CQ9008\sample_codes\Release_example_240606\puf_template\debug/../src/pufs_hmac_test.c:134
        check = pufs_clear_key(SSKEY, keyslot, kbits);
     734:	0032      	movs	r2, r6
     736:	4649      	mov	r1, r9
     738:	2005      	movs	r0, #5
     73a:	f003 fb99 	bl	3e70 <pufs_clear_key>
     73e:	1e05      	subs	r5, r0, #0
D:\CQ9008\sample_codes\Release_example_240606\puf_template\debug/../src/pufs_hmac_test.c:135
        if (SUCCESS != check)
     740:	d120      	bne.n	784 <pufs_hmac_sha2_test+0x94>
D:\CQ9008\sample_codes\Release_example_240606\puf_template\debug/../src/pufs_hmac_test.c:140
        check = pufs_test_memcmp(tp[i].md, md.dgst, md.dlen);
     742:	6960      	ldr	r0, [r4, #20]
pufs_test_memcmp():
D:\CQ9008\sample_codes\Release_example_240606\puf_template\debug/../inc/pufs_test_common.h:46
     744:	9a05      	ldr	r2, [sp, #20]
     746:	a906      	add	r1, sp, #24
     748:	f003 fcbc 	bl	40c4 <memcmp>
     74c:	2800      	cmp	r0, #0
     74e:	d118      	bne.n	782 <pufs_hmac_sha2_test+0x92>
pufs_hmac_sha2_test():
D:\CQ9008\sample_codes\Release_example_240606\puf_template\debug/../src/pufs_hmac_test.c:110 (discriminator 2)
    for (uint32_t i = 0; i < ntests; i++)
     750:	3701      	adds	r7, #1
D:\CQ9008\sample_codes\Release_example_240606\puf_template\debug/../src/pufs_hmac_test.c:110 (discriminator 1)
     752:	4547      	cmp	r7, r8
     754:	d216      	bcs.n	784 <pufs_hmac_sha2_test+0x94>
D:\CQ9008\sample_codes\Release_example_240606\puf_template\debug/../src/pufs_hmac_test.c:114
        kbits = tp[i].keybits;
     756:	007c      	lsls	r4, r7, #1
     758:	19e4      	adds	r4, r4, r7
     75a:	00e4      	lsls	r4, r4, #3
     75c:	4b0d      	ldr	r3, [pc, #52]	; (794 <pufs_hmac_sha2_test+0xa4>)
     75e:	18e4      	adds	r4, r4, r3
     760:	6866      	ldr	r6, [r4, #4]
D:\CQ9008\sample_codes\Release_example_240606\puf_template\debug/../src/pufs_hmac_test.c:115
        if (kbits > 512)
     762:	2380      	movs	r3, #128	; 0x80
     764:	009b      	lsls	r3, r3, #2
     766:	429e      	cmp	r6, r3
     768:	d8f2      	bhi.n	750 <pufs_hmac_sha2_test+0x60>
D:\CQ9008\sample_codes\Release_example_240606\puf_template\debug/../src/pufs_hmac_test.c:121
        keyslot = (kbits > 256) ? SK512_0 : (kbits > 128) ? SK256_0 : SK128_0;
     76a:	3b01      	subs	r3, #1
     76c:	3bff      	subs	r3, #255	; 0xff
     76e:	429e      	cmp	r6, r3
     770:	d8c9      	bhi.n	706 <pufs_hmac_sha2_test+0x16>
D:\CQ9008\sample_codes\Release_example_240606\puf_template\debug/../src/pufs_hmac_test.c:121 (discriminator 1)
     772:	2e80      	cmp	r6, #128	; 0x80
     774:	d902      	bls.n	77c <pufs_hmac_sha2_test+0x8c>
D:\CQ9008\sample_codes\Release_example_240606\puf_template\debug/../src/pufs_hmac_test.c:121
     776:	3bf8      	subs	r3, #248	; 0xf8
     778:	4699      	mov	r9, r3
     77a:	e7c6      	b.n	70a <pufs_hmac_sha2_test+0x1a>
     77c:	2300      	movs	r3, #0
     77e:	4699      	mov	r9, r3
     780:	e7c3      	b.n	70a <pufs_hmac_sha2_test+0x1a>
pufs_test_memcmp():
D:\CQ9008\sample_codes\Release_example_240606\puf_template\debug/../inc/pufs_test_common.h:46
     782:	3508      	adds	r5, #8
pufs_hmac_sha2_test():
D:\CQ9008\sample_codes\Release_example_240606\puf_template\debug/../src/pufs_hmac_test.c:148
}
     784:	0028      	movs	r0, r5
     786:	b017      	add	sp, #92	; 0x5c
     788:	bcc0      	pop	{r6, r7}
     78a:	46b9      	mov	r9, r7
     78c:	46b0      	mov	r8, r6
     78e:	bdf0      	pop	{r4, r5, r6, r7, pc}
     790:	20000104 	.word	0x20000104
     794:	00005d8c 	.word	0x00005d8c

00000798 <pufs_hmac_sha2_swkey_iuf_test>:
pufs_hmac_sha2_swkey_iuf_test():
D:\CQ9008\sample_codes\Release_example_240606\puf_template\debug/../src/pufs_hmac_test.c:152
{
     798:	b5f0      	push	{r4, r5, r6, r7, lr}
     79a:	46c6      	mov	lr, r8
     79c:	b500      	push	{lr}
     79e:	b094      	sub	sp, #80	; 0x50
D:\CQ9008\sample_codes\Release_example_240606\puf_template\debug/../src/pufs_hmac_test.c:154
    const uint32_t                  ntests = g_hmac_sha2_tp_count;
     7a0:	4b1d      	ldr	r3, [pc, #116]	; (818 <pufs_hmac_sha2_swkey_iuf_test+0x80>)
     7a2:	681b      	ldr	r3, [r3, #0]
     7a4:	4698      	mov	r8, r3
D:\CQ9008\sample_codes\Release_example_240606\puf_template\debug/../src/pufs_hmac_test.c:157
    pufs_hmac_ctx *hmac_ctx = pufs_hmac_ctx_new();
     7a6:	f003 f843 	bl	3830 <pufs_hmac_ctx_new>
     7aa:	1e06      	subs	r6, r0, #0
D:\CQ9008\sample_codes\Release_example_240606\puf_template\debug/../src/pufs_hmac_test.c:158
    if (NULL != hmac_ctx)
     7ac:	d028      	beq.n	800 <pufs_hmac_sha2_swkey_iuf_test+0x68>
D:\CQ9008\sample_codes\Release_example_240606\puf_template\debug/../src/pufs_hmac_test.c:160
        for (uint32_t i = 0; i < ntests; i++)
     7ae:	2700      	movs	r7, #0
D:\CQ9008\sample_codes\Release_example_240606\puf_template\debug/../src/pufs_hmac_test.c:156
    pufs_status_t  check    = E_ERROR;
     7b0:	240d      	movs	r4, #13
D:\CQ9008\sample_codes\Release_example_240606\puf_template\debug/../src/pufs_hmac_test.c:160 (discriminator 1)
        for (uint32_t i = 0; i < ntests; i++)
     7b2:	4547      	cmp	r7, r8
     7b4:	d227      	bcs.n	806 <pufs_hmac_sha2_swkey_iuf_test+0x6e>
D:\CQ9008\sample_codes\Release_example_240606\puf_template\debug/../src/pufs_hmac_test.c:164
            check = pufs_hmac_init(hmac_ctx, tp[i].hash, SWKEY, tp[i].key, tp[i].keybits);
     7b6:	007d      	lsls	r5, r7, #1
     7b8:	19ed      	adds	r5, r5, r7
     7ba:	00ed      	lsls	r5, r5, #3
     7bc:	4b17      	ldr	r3, [pc, #92]	; (81c <pufs_hmac_sha2_swkey_iuf_test+0x84>)
     7be:	18ed      	adds	r5, r5, r3
     7c0:	68ab      	ldr	r3, [r5, #8]
     7c2:	7829      	ldrb	r1, [r5, #0]
     7c4:	686a      	ldr	r2, [r5, #4]
     7c6:	9200      	str	r2, [sp, #0]
     7c8:	2200      	movs	r2, #0
     7ca:	0030      	movs	r0, r6
     7cc:	f003 f8fc 	bl	39c8 <_pufs_hmac_init>
     7d0:	1e04      	subs	r4, r0, #0
D:\CQ9008\sample_codes\Release_example_240606\puf_template\debug/../src/pufs_hmac_test.c:165
            if (SUCCESS != check)
     7d2:	d118      	bne.n	806 <pufs_hmac_sha2_swkey_iuf_test+0x6e>
D:\CQ9008\sample_codes\Release_example_240606\puf_template\debug/../src/pufs_hmac_test.c:170
            check = pufs_hmac_update(hmac_ctx, tp[i].msg, tp[i].msglen);
     7d4:	68ea      	ldr	r2, [r5, #12]
     7d6:	6929      	ldr	r1, [r5, #16]
     7d8:	0030      	movs	r0, r6
     7da:	f003 f900 	bl	39de <pufs_hmac_update>
     7de:	1e04      	subs	r4, r0, #0
D:\CQ9008\sample_codes\Release_example_240606\puf_template\debug/../src/pufs_hmac_test.c:171
            if (SUCCESS != check)
     7e0:	d111      	bne.n	806 <pufs_hmac_sha2_swkey_iuf_test+0x6e>
D:\CQ9008\sample_codes\Release_example_240606\puf_template\debug/../src/pufs_hmac_test.c:176
            check = pufs_hmac_final(hmac_ctx, &md);
     7e2:	a903      	add	r1, sp, #12
     7e4:	0030      	movs	r0, r6
     7e6:	f003 f902 	bl	39ee <pufs_hmac_final>
     7ea:	1e04      	subs	r4, r0, #0
D:\CQ9008\sample_codes\Release_example_240606\puf_template\debug/../src/pufs_hmac_test.c:177
            if (SUCCESS != check)
     7ec:	d10b      	bne.n	806 <pufs_hmac_sha2_swkey_iuf_test+0x6e>
D:\CQ9008\sample_codes\Release_example_240606\puf_template\debug/../src/pufs_hmac_test.c:182
            check = pufs_test_memcmp(tp[i].md, md.dgst, md.dlen);
     7ee:	6968      	ldr	r0, [r5, #20]
pufs_test_memcmp():
D:\CQ9008\sample_codes\Release_example_240606\puf_template\debug/../inc/pufs_test_common.h:46
     7f0:	9a03      	ldr	r2, [sp, #12]
     7f2:	a904      	add	r1, sp, #16
     7f4:	f003 fc66 	bl	40c4 <memcmp>
     7f8:	2800      	cmp	r0, #0
     7fa:	d103      	bne.n	804 <pufs_hmac_sha2_swkey_iuf_test+0x6c>
pufs_hmac_sha2_swkey_iuf_test():
D:\CQ9008\sample_codes\Release_example_240606\puf_template\debug/../src/pufs_hmac_test.c:160
        for (uint32_t i = 0; i < ntests; i++)
     7fc:	3701      	adds	r7, #1
     7fe:	e7d8      	b.n	7b2 <pufs_hmac_sha2_swkey_iuf_test+0x1a>
D:\CQ9008\sample_codes\Release_example_240606\puf_template\debug/../src/pufs_hmac_test.c:156
    pufs_status_t  check    = E_ERROR;
     800:	240d      	movs	r4, #13
     802:	e003      	b.n	80c <pufs_hmac_sha2_swkey_iuf_test+0x74>
pufs_test_memcmp():
D:\CQ9008\sample_codes\Release_example_240606\puf_template\debug/../inc/pufs_test_common.h:46
     804:	2408      	movs	r4, #8
pufs_hmac_sha2_swkey_iuf_test():
D:\CQ9008\sample_codes\Release_example_240606\puf_template\debug/../src/pufs_hmac_test.c:188
        pufs_hmac_ctx_free(hmac_ctx);
     806:	0030      	movs	r0, r6
     808:	f003 f81e 	bl	3848 <pufs_hmac_ctx_free>
D:\CQ9008\sample_codes\Release_example_240606\puf_template\debug/../src/pufs_hmac_test.c:192
}
     80c:	0020      	movs	r0, r4
     80e:	b014      	add	sp, #80	; 0x50
     810:	bc80      	pop	{r7}
     812:	46b8      	mov	r8, r7
     814:	bdf0      	pop	{r4, r5, r6, r7, pc}
     816:	46c0      	nop			; (mov r8, r8)
     818:	20000104 	.word	0x20000104
     81c:	00005d8c 	.word	0x00005d8c

00000820 <pufs_hmac_sha2_swkey_test>:
pufs_hmac_sha2_swkey_test():
D:\CQ9008\sample_codes\Release_example_240606\puf_template\debug/../src/pufs_hmac_test.c:196
{
     820:	b5f0      	push	{r4, r5, r6, r7, lr}
     822:	b097      	sub	sp, #92	; 0x5c
D:\CQ9008\sample_codes\Release_example_240606\puf_template\debug/../src/pufs_hmac_test.c:198
    const uint32_t                  ntests = g_hmac_sha2_tp_count;
     824:	4b12      	ldr	r3, [pc, #72]	; (870 <pufs_hmac_sha2_swkey_test+0x50>)
     826:	681f      	ldr	r7, [r3, #0]
D:\CQ9008\sample_codes\Release_example_240606\puf_template\debug/../src/pufs_hmac_test.c:201
    for (uint32_t i = 0; i < ntests; i++)
     828:	2600      	movs	r6, #0
D:\CQ9008\sample_codes\Release_example_240606\puf_template\debug/../src/pufs_hmac_test.c:200
    pufs_status_t check = E_ERROR;
     82a:	250d      	movs	r5, #13
D:\CQ9008\sample_codes\Release_example_240606\puf_template\debug/../src/pufs_hmac_test.c:201 (discriminator 1)
    for (uint32_t i = 0; i < ntests; i++)
     82c:	42be      	cmp	r6, r7
     82e:	d21c      	bcs.n	86a <pufs_hmac_sha2_swkey_test+0x4a>
D:\CQ9008\sample_codes\Release_example_240606\puf_template\debug/../src/pufs_hmac_test.c:206
            pufs_hmac(&md, tp[i].msg, tp[i].msglen, tp[i].hash, SWKEY, tp[i].key, tp[i].keybits);
     830:	0074      	lsls	r4, r6, #1
     832:	19a4      	adds	r4, r4, r6
     834:	00e4      	lsls	r4, r4, #3
     836:	4b0f      	ldr	r3, [pc, #60]	; (874 <pufs_hmac_sha2_swkey_test+0x54>)
     838:	18e4      	adds	r4, r4, r3
     83a:	6921      	ldr	r1, [r4, #16]
     83c:	68a0      	ldr	r0, [r4, #8]
     83e:	7823      	ldrb	r3, [r4, #0]
     840:	68e2      	ldr	r2, [r4, #12]
     842:	6865      	ldr	r5, [r4, #4]
     844:	9502      	str	r5, [sp, #8]
     846:	9001      	str	r0, [sp, #4]
     848:	2000      	movs	r0, #0
     84a:	9000      	str	r0, [sp, #0]
     84c:	a805      	add	r0, sp, #20
     84e:	f003 f8d5 	bl	39fc <_pufs_hmac>
     852:	1e05      	subs	r5, r0, #0
D:\CQ9008\sample_codes\Release_example_240606\puf_template\debug/../src/pufs_hmac_test.c:207
        if (SUCCESS != check)
     854:	d109      	bne.n	86a <pufs_hmac_sha2_swkey_test+0x4a>
D:\CQ9008\sample_codes\Release_example_240606\puf_template\debug/../src/pufs_hmac_test.c:212
        check = pufs_test_memcmp(tp[i].md, md.dgst, md.dlen);
     856:	6960      	ldr	r0, [r4, #20]
pufs_test_memcmp():
D:\CQ9008\sample_codes\Release_example_240606\puf_template\debug/../inc/pufs_test_common.h:46
     858:	9a05      	ldr	r2, [sp, #20]
     85a:	a906      	add	r1, sp, #24
     85c:	f003 fc32 	bl	40c4 <memcmp>
     860:	2800      	cmp	r0, #0
     862:	d101      	bne.n	868 <pufs_hmac_sha2_swkey_test+0x48>
pufs_hmac_sha2_swkey_test():
D:\CQ9008\sample_codes\Release_example_240606\puf_template\debug/../src/pufs_hmac_test.c:201
    for (uint32_t i = 0; i < ntests; i++)
     864:	3601      	adds	r6, #1
     866:	e7e1      	b.n	82c <pufs_hmac_sha2_swkey_test+0xc>
pufs_test_memcmp():
D:\CQ9008\sample_codes\Release_example_240606\puf_template\debug/../inc/pufs_test_common.h:46
     868:	2508      	movs	r5, #8
pufs_hmac_sha2_swkey_test():
D:\CQ9008\sample_codes\Release_example_240606\puf_template\debug/../src/pufs_hmac_test.c:219
}
     86a:	0028      	movs	r0, r5
     86c:	b017      	add	sp, #92	; 0x5c
     86e:	bdf0      	pop	{r4, r5, r6, r7, pc}
     870:	20000104 	.word	0x20000104
     874:	00005d8c 	.word	0x00005d8c

00000878 <pufs_test>:
pufs_test():
D:\CQ9008\sample_codes\Release_example_240606\puf_template\debug/../src/pufs_test.c:18
/*******************************************************************************
 * Global functions
 ******************************************************************************/
void
pufs_test(void)
{
     878:	b510      	push	{r4, lr}
D:\CQ9008\sample_codes\Release_example_240606\puf_template\debug/../src/pufs_test.c:21
    pufs_status_t check;

    check = pufs_initialize();
     87a:	f002 fce1 	bl	3240 <pufs_initialize>
D:\CQ9008\sample_codes\Release_example_240606\puf_template\debug/../src/pufs_test.c:22
    if (SUCCESS == check)
     87e:	2800      	cmp	r0, #0
     880:	d000      	beq.n	884 <pufs_test+0xc>
D:\CQ9008\sample_codes\Release_example_240606\puf_template\debug/../src/pufs_test.c:57
        	print((const char *)"	pufs_hmac_sha2_swkey_test ok \n");
        }
    }

    return;
}
     882:	bd10      	pop	{r4, pc}
D:\CQ9008\sample_codes\Release_example_240606\puf_template\debug/../src/pufs_test.c:24
        check = pufs_sha2_iuf_test();
     884:	f7ff feb2 	bl	5ec <pufs_sha2_iuf_test>
D:\CQ9008\sample_codes\Release_example_240606\puf_template\debug/../src/pufs_test.c:25
        if (SUCCESS == check)
     888:	2800      	cmp	r0, #0
     88a:	d017      	beq.n	8bc <pufs_test+0x44>
D:\CQ9008\sample_codes\Release_example_240606\puf_template\debug/../src/pufs_test.c:29
        check = pufs_sha2_test();
     88c:	f7ff feba 	bl	604 <pufs_sha2_test>
D:\CQ9008\sample_codes\Release_example_240606\puf_template\debug/../src/pufs_test.c:30
        if (SUCCESS == check)
     890:	2800      	cmp	r0, #0
     892:	d017      	beq.n	8c4 <pufs_test+0x4c>
D:\CQ9008\sample_codes\Release_example_240606\puf_template\debug/../src/pufs_test.c:34
        check = pufs_hmac_sha2_iuf_test();
     894:	f7ff fec2 	bl	61c <pufs_hmac_sha2_iuf_test>
D:\CQ9008\sample_codes\Release_example_240606\puf_template\debug/../src/pufs_test.c:35
        if (SUCCESS == check)
     898:	2800      	cmp	r0, #0
     89a:	d017      	beq.n	8cc <pufs_test+0x54>
D:\CQ9008\sample_codes\Release_example_240606\puf_template\debug/../src/pufs_test.c:39
        check = pufs_hmac_sha2_test();
     89c:	f7ff ff28 	bl	6f0 <pufs_hmac_sha2_test>
D:\CQ9008\sample_codes\Release_example_240606\puf_template\debug/../src/pufs_test.c:40
        if (SUCCESS == check)
     8a0:	2800      	cmp	r0, #0
     8a2:	d017      	beq.n	8d4 <pufs_test+0x5c>
D:\CQ9008\sample_codes\Release_example_240606\puf_template\debug/../src/pufs_test.c:44
        check = pufs_hmac_sha2_swkey_iuf_test();
     8a4:	f7ff ff78 	bl	798 <pufs_hmac_sha2_swkey_iuf_test>
D:\CQ9008\sample_codes\Release_example_240606\puf_template\debug/../src/pufs_test.c:45
        if (SUCCESS == check)
     8a8:	2800      	cmp	r0, #0
     8aa:	d017      	beq.n	8dc <pufs_test+0x64>
D:\CQ9008\sample_codes\Release_example_240606\puf_template\debug/../src/pufs_test.c:49
        check = pufs_hmac_sha2_swkey_test();
     8ac:	f7ff ffb8 	bl	820 <pufs_hmac_sha2_swkey_test>
D:\CQ9008\sample_codes\Release_example_240606\puf_template\debug/../src/pufs_test.c:50
        if (SUCCESS == check)
     8b0:	2800      	cmp	r0, #0
     8b2:	d1e6      	bne.n	882 <pufs_test+0xa>
D:\CQ9008\sample_codes\Release_example_240606\puf_template\debug/../src/pufs_test.c:52
        	print((const char *)"	pufs_hmac_sha2_swkey_test ok \n");
     8b4:	480b      	ldr	r0, [pc, #44]	; (8e4 <pufs_test+0x6c>)
     8b6:	f7ff fd31 	bl	31c <print>
D:\CQ9008\sample_codes\Release_example_240606\puf_template\debug/../src/pufs_test.c:56
    return;
     8ba:	e7e2      	b.n	882 <pufs_test+0xa>
D:\CQ9008\sample_codes\Release_example_240606\puf_template\debug/../src/pufs_test.c:27
        	print((const char *)"	pufs_sha2_iuf_test ok \n");
     8bc:	480a      	ldr	r0, [pc, #40]	; (8e8 <pufs_test+0x70>)
     8be:	f7ff fd2d 	bl	31c <print>
     8c2:	e7e3      	b.n	88c <pufs_test+0x14>
D:\CQ9008\sample_codes\Release_example_240606\puf_template\debug/../src/pufs_test.c:32
        	print((const char *)"	pufs_sha2_test ok \n");
     8c4:	4809      	ldr	r0, [pc, #36]	; (8ec <pufs_test+0x74>)
     8c6:	f7ff fd29 	bl	31c <print>
     8ca:	e7e3      	b.n	894 <pufs_test+0x1c>
D:\CQ9008\sample_codes\Release_example_240606\puf_template\debug/../src/pufs_test.c:37
        	print((const char *)"	pufs_hmac_sha2_iuf_test ok \n");
     8cc:	4808      	ldr	r0, [pc, #32]	; (8f0 <pufs_test+0x78>)
     8ce:	f7ff fd25 	bl	31c <print>
     8d2:	e7e3      	b.n	89c <pufs_test+0x24>
D:\CQ9008\sample_codes\Release_example_240606\puf_template\debug/../src/pufs_test.c:42
        	print((const char *)"	pufs_hmac_sha2_test ok \n");
     8d4:	4807      	ldr	r0, [pc, #28]	; (8f4 <pufs_test+0x7c>)
     8d6:	f7ff fd21 	bl	31c <print>
     8da:	e7e3      	b.n	8a4 <pufs_test+0x2c>
D:\CQ9008\sample_codes\Release_example_240606\puf_template\debug/../src/pufs_test.c:47
        	print((const char *)"	pufs_hmac_sha2_swkey_iuf_test ok \n");
     8dc:	4806      	ldr	r0, [pc, #24]	; (8f8 <pufs_test+0x80>)
     8de:	f7ff fd1d 	bl	31c <print>
     8e2:	e7e3      	b.n	8ac <pufs_test+0x34>
     8e4:	00005af0 	.word	0x00005af0
     8e8:	00005a5c 	.word	0x00005a5c
     8ec:	00005a78 	.word	0x00005a78
     8f0:	00005a90 	.word	0x00005a90
     8f4:	00005ab0 	.word	0x00005ab0
     8f8:	00005acc 	.word	0x00005acc

000008fc <clcok_set_pcc_config>:
clcok_set_pcc_config():
D:\CQ9008\sample_codes\Release_example_240606\puf_template\debug/../sdk/platform/drivers/src/clock_tw9001.c:963
 * Function Name : clcok_set_pcc_config
 * Description   : This function configures the PCC block
 * END**************************************************************************/
static void
clcok_set_pcc_config(const pcc_config_t *p_peripheral_clk_config)
{
     8fc:	b5f0      	push	{r4, r5, r6, r7, lr}
DevAssert():
D:\CQ9008\sample_codes\Release_example_240606\puf_template\debug/../sdk/platform/devices/devassert.h:31
#elif defined(DEV_ERROR_DETECT)
/* Implement default assert macro */
static inline void
DevAssert(volatile bool x)
{
    if (x)
     8fe:	2800      	cmp	r0, #0
     900:	d101      	bne.n	906 <clcok_set_pcc_config+0xa>
D:\CQ9008\sample_codes\Release_example_240606\puf_template\debug/../sdk/platform/devices/devassert.h:36
    {
    }
    else
    {
        BKPT_ASM;
     902:	be00      	bkpt	0x0000
D:\CQ9008\sample_codes\Release_example_240606\puf_template\debug/../sdk/platform/devices/devassert.h:37
        for (;;)
     904:	e7fe      	b.n	904 <clcok_set_pcc_config+0x8>
clcok_set_pcc_config():
D:\CQ9008\sample_codes\Release_example_240606\puf_template\debug/../sdk/platform/drivers/src/clock_tw9001.c:968
    DEV_ASSERT(p_peripheral_clk_config != NULL);

    uint32_t idx;

    if ((p_peripheral_clk_config != NULL) && (p_peripheral_clk_config->p_peripheral_clocks != NULL))
     906:	2800      	cmp	r0, #0
     908:	d034      	beq.n	974 <clcok_set_pcc_config+0x78>
D:\CQ9008\sample_codes\Release_example_240606\puf_template\debug/../sdk/platform/drivers/src/clock_tw9001.c:968 (discriminator 1)
     90a:	6843      	ldr	r3, [r0, #4]
     90c:	2b00      	cmp	r3, #0
     90e:	d031      	beq.n	974 <clcok_set_pcc_config+0x78>
D:\CQ9008\sample_codes\Release_example_240606\puf_template\debug/../sdk/platform/drivers/src/clock_tw9001.c:970
    {
        for (idx = 0U; idx < p_peripheral_clk_config->count; idx++)
     910:	2200      	movs	r2, #0
     912:	e008      	b.n	926 <clcok_set_pcc_config+0x2a>
pcc_set_peripheral_clk_control():
D:\CQ9008\sample_codes\Release_example_240606\puf_template\debug/../sdk/platform/drivers/inc/pcc_access.h:49
                               uint32_t      divider,
                               uint32_t      multiplier)
{
    /* Configure the peripheral clock source, the fractional clock divider and the clock gate */
    uint32_t reg_val = PCC_PCCn_PCS(clock_source) | PCC_PCCn_FRAC(multiplier) |
                       PCC_PCCn_PCD(divider) | PCC_PCCn_CGC(b_clock_gate ? 1UL : 0UL);
     914:	2100      	movs	r1, #0
D:\CQ9008\sample_codes\Release_example_240606\puf_template\debug/../sdk/platform/drivers/inc/pcc_access.h:48
    uint32_t reg_val = PCC_PCCn_PCS(clock_source) | PCC_PCCn_FRAC(multiplier) |
     916:	430b      	orrs	r3, r1
D:\CQ9008\sample_codes\Release_example_240606\puf_template\debug/../sdk/platform/drivers/inc/pcc_access.h:51

    p_base->PCCn[g_clock_name_mappings[clock_name]] = reg_val;
     918:	0061      	lsls	r1, r4, #1
     91a:	4c17      	ldr	r4, [pc, #92]	; (978 <clcok_set_pcc_config+0x7c>)
     91c:	5b09      	ldrh	r1, [r1, r4]
     91e:	0089      	lsls	r1, r1, #2
     920:	4c16      	ldr	r4, [pc, #88]	; (97c <clcok_set_pcc_config+0x80>)
     922:	510b      	str	r3, [r1, r4]
clcok_set_pcc_config():
D:\CQ9008\sample_codes\Release_example_240606\puf_template\debug/../sdk/platform/drivers/src/clock_tw9001.c:970
     924:	3201      	adds	r2, #1
D:\CQ9008\sample_codes\Release_example_240606\puf_template\debug/../sdk/platform/drivers/src/clock_tw9001.c:970 (discriminator 1)
     926:	6803      	ldr	r3, [r0, #0]
     928:	4293      	cmp	r3, r2
     92a:	d923      	bls.n	974 <clcok_set_pcc_config+0x78>
D:\CQ9008\sample_codes\Release_example_240606\puf_template\debug/../sdk/platform/drivers/src/clock_tw9001.c:974 (discriminator 3)
        {
            /* Disable the peripheral clock */
            pcc_set_clk_mode(
                PCC, p_peripheral_clk_config->p_peripheral_clocks[idx].clk_name, false);
     92c:	0093      	lsls	r3, r2, #2
     92e:	189b      	adds	r3, r3, r2
D:\CQ9008\sample_codes\Release_example_240606\puf_template\debug/../sdk/platform/drivers/src/clock_tw9001.c:973 (discriminator 3)
            pcc_set_clk_mode(
     930:	6841      	ldr	r1, [r0, #4]
     932:	5cc9      	ldrb	r1, [r1, r3]
pcc_set_clk_mode():
D:\CQ9008\sample_codes\Release_example_240606\puf_template\debug/../sdk/platform/drivers/inc/pcc_access.h:76 (discriminator 3)
    {
        p_base->PCCn[g_clock_name_mappings[clock_name]] |= PCC_PCCn_CGC(1UL);
    }
    else
    {
        p_base->PCCn[g_clock_name_mappings[clock_name]] &= (uint32_t)(~(PCC_PCCn_CGC_MASK));
     934:	0049      	lsls	r1, r1, #1
     936:	4c10      	ldr	r4, [pc, #64]	; (978 <clcok_set_pcc_config+0x7c>)
     938:	5b09      	ldrh	r1, [r1, r4]
     93a:	4d10      	ldr	r5, [pc, #64]	; (97c <clcok_set_pcc_config+0x80>)
     93c:	0089      	lsls	r1, r1, #2
     93e:	594c      	ldr	r4, [r1, r5]
     940:	4e0f      	ldr	r6, [pc, #60]	; (980 <clcok_set_pcc_config+0x84>)
     942:	4034      	ands	r4, r6
     944:	514c      	str	r4, [r1, r5]
clcok_set_pcc_config():
D:\CQ9008\sample_codes\Release_example_240606\puf_template\debug/../sdk/platform/drivers/src/clock_tw9001.c:979 (discriminator 3)

            /* Set peripheral clock control */
            pcc_set_peripheral_clk_control(
                PCC,
                p_peripheral_clk_config->p_peripheral_clocks[idx].clk_name,
     946:	6844      	ldr	r4, [r0, #4]
     948:	18e1      	adds	r1, r4, r3
D:\CQ9008\sample_codes\Release_example_240606\puf_template\debug/../sdk/platform/drivers/src/clock_tw9001.c:977 (discriminator 3)
            pcc_set_peripheral_clk_control(
     94a:	5ce4      	ldrb	r4, [r4, r3]
     94c:	784e      	ldrb	r6, [r1, #1]
D:\CQ9008\sample_codes\Release_example_240606\puf_template\debug/../sdk/platform/drivers/src/clock_tw9001.c:981 (discriminator 3)
                p_peripheral_clk_config->p_peripheral_clocks[idx].b_clk_gate,
                (uint32_t)p_peripheral_clk_config->p_peripheral_clocks[idx].clk_src,
     94e:	788b      	ldrb	r3, [r1, #2]
D:\CQ9008\sample_codes\Release_example_240606\puf_template\debug/../sdk/platform/drivers/src/clock_tw9001.c:982 (discriminator 3)
                (uint32_t)p_peripheral_clk_config->p_peripheral_clocks[idx].divider,
     950:	790f      	ldrb	r7, [r1, #4]
D:\CQ9008\sample_codes\Release_example_240606\puf_template\debug/../sdk/platform/drivers/src/clock_tw9001.c:983 (discriminator 3)
                (uint32_t)p_peripheral_clk_config->p_peripheral_clocks[idx].frac);
     952:	78cd      	ldrb	r5, [r1, #3]
pcc_set_peripheral_clk_control():
D:\CQ9008\sample_codes\Release_example_240606\puf_template\debug/../sdk/platform/drivers/inc/pcc_access.h:48 (discriminator 3)
    uint32_t reg_val = PCC_PCCn_PCS(clock_source) | PCC_PCCn_FRAC(multiplier) |
     954:	061b      	lsls	r3, r3, #24
     956:	21e0      	movs	r1, #224	; 0xe0
     958:	04c9      	lsls	r1, r1, #19
     95a:	400b      	ands	r3, r1
     95c:	00e9      	lsls	r1, r5, #3
     95e:	2508      	movs	r5, #8
     960:	400d      	ands	r5, r1
     962:	432b      	orrs	r3, r5
D:\CQ9008\sample_codes\Release_example_240606\puf_template\debug/../sdk/platform/drivers/inc/pcc_access.h:49 (discriminator 3)
                       PCC_PCCn_PCD(divider) | PCC_PCCn_CGC(b_clock_gate ? 1UL : 0UL);
     964:	2107      	movs	r1, #7
     966:	4039      	ands	r1, r7
D:\CQ9008\sample_codes\Release_example_240606\puf_template\debug/../sdk/platform/drivers/inc/pcc_access.h:48 (discriminator 3)
    uint32_t reg_val = PCC_PCCn_PCS(clock_source) | PCC_PCCn_FRAC(multiplier) |
     968:	430b      	orrs	r3, r1
D:\CQ9008\sample_codes\Release_example_240606\puf_template\debug/../sdk/platform/drivers/inc/pcc_access.h:49 (discriminator 3)
                       PCC_PCCn_PCD(divider) | PCC_PCCn_CGC(b_clock_gate ? 1UL : 0UL);
     96a:	2e00      	cmp	r6, #0
     96c:	d0d2      	beq.n	914 <clcok_set_pcc_config+0x18>
D:\CQ9008\sample_codes\Release_example_240606\puf_template\debug/../sdk/platform/drivers/inc/pcc_access.h:49
     96e:	2180      	movs	r1, #128	; 0x80
     970:	05c9      	lsls	r1, r1, #23
     972:	e7d0      	b.n	916 <clcok_set_pcc_config+0x1a>
clcok_set_pcc_config():
D:\CQ9008\sample_codes\Release_example_240606\puf_template\debug/../sdk/platform/drivers/src/clock_tw9001.c:986
        }
    }
}
     974:	bdf0      	pop	{r4, r5, r6, r7, pc}
     976:	46c0      	nop			; (mov r8, r8)
     978:	0000623c 	.word	0x0000623c
     97c:	40065000 	.word	0x40065000
     980:	bfffffff 	.word	0xbfffffff

00000984 <clock_set_sim_config>:
clock_set_sim_config():
D:\CQ9008\sample_codes\Release_example_240606\puf_template\debug/../sdk/platform/drivers/src/clock_tw9001.c:994
 * Function Name : clock_set_sim_config
 * Description   : This function configures the SIM block
 * END**************************************************************************/
static void
clock_set_sim_config(const sim_clock_config_t *p_sim_clock_config)
{
     984:	b570      	push	{r4, r5, r6, lr}
DevAssert():
D:\CQ9008\sample_codes\Release_example_240606\puf_template\debug/../sdk/platform/devices/devassert.h:31
    if (x)
     986:	2800      	cmp	r0, #0
     988:	d101      	bne.n	98e <clock_set_sim_config+0xa>
D:\CQ9008\sample_codes\Release_example_240606\puf_template\debug/../sdk/platform/devices/devassert.h:36
        BKPT_ASM;
     98a:	be00      	bkpt	0x0000
D:\CQ9008\sample_codes\Release_example_240606\puf_template\debug/../sdk/platform/devices/devassert.h:37
        for (;;)
     98c:	e7fe      	b.n	98c <clock_set_sim_config+0x8>
clock_set_sim_config():
D:\CQ9008\sample_codes\Release_example_240606\puf_template\debug/../sdk/platform/drivers/src/clock_tw9001.c:999
    DEV_ASSERT(p_sim_clock_config != NULL);
    uint8_t idx;

    /* OSC 8MHz settings. */
    SIM->OSCCTR = (SIM->OSCCTR & ~SIM_OSCCTR_FBIN_MASK) | SIM_OSCCTR_FBIN(0x3C);
     98e:	4a42      	ldr	r2, [pc, #264]	; (a98 <clock_set_sim_config+0x114>)
     990:	2188      	movs	r1, #136	; 0x88
     992:	5853      	ldr	r3, [r2, r1]
     994:	24ff      	movs	r4, #255	; 0xff
     996:	43a3      	bics	r3, r4
     998:	3cc3      	subs	r4, #195	; 0xc3
     99a:	4323      	orrs	r3, r4
     99c:	5053      	str	r3, [r2, r1]
D:\CQ9008\sample_codes\Release_example_240606\puf_template\debug/../sdk/platform/drivers/src/clock_tw9001.c:1001
    /* USB PHY settings. */
    SIM->USBHMCR = (SIM->USBHMCR & ~0xFFFFFF) | 0xAFFFF;
     99e:	3450      	adds	r4, #80	; 0x50
     9a0:	5913      	ldr	r3, [r2, r4]
     9a2:	0e1b      	lsrs	r3, r3, #24
     9a4:	061b      	lsls	r3, r3, #24
     9a6:	493d      	ldr	r1, [pc, #244]	; (a9c <clock_set_sim_config+0x118>)
     9a8:	430b      	orrs	r3, r1
     9aa:	5113      	str	r3, [r2, r4]
D:\CQ9008\sample_codes\Release_example_240606\puf_template\debug/../sdk/platform/drivers/src/clock_tw9001.c:1004

    /* ClockOut settings. */
    if (p_sim_clock_config->clock_out_config.b_initialize)
     9ac:	7803      	ldrb	r3, [r0, #0]
     9ae:	2b00      	cmp	r3, #0
     9b0:	d106      	bne.n	9c0 <clock_set_sim_config+0x3c>
D:\CQ9008\sample_codes\Release_example_240606\puf_template\debug/../sdk/platform/drivers/src/clock_tw9001.c:1013
                         p_sim_clock_config->clock_out_config.source,
                         p_sim_clock_config->clock_out_config.divider);
    }

    /* Low Power Clock settings from SIM. */
    if (p_sim_clock_config->lpo_clock_config.b_initialize)
     9b2:	7903      	ldrb	r3, [r0, #4]
     9b4:	2b00      	cmp	r3, #0
     9b6:	d121      	bne.n	9fc <clock_set_sim_config+0x78>
D:\CQ9008\sample_codes\Release_example_240606\puf_template\debug/../sdk/platform/drivers/src/clock_tw9001.c:1023
                         p_sim_clock_config->lpo_clock_config.source_lpo_clk,
                         p_sim_clock_config->lpo_clock_config.source_rtc_clk);
    }

    /* TCLK Clock settings. */
    if (p_sim_clock_config->tclk_config.b_initialize)
     9b8:	7b03      	ldrb	r3, [r0, #12]
     9ba:	2b00      	cmp	r3, #0
     9bc:	d14a      	bne.n	a54 <clock_set_sim_config+0xd0>
D:\CQ9008\sample_codes\Release_example_240606\puf_template\debug/../sdk/platform/drivers/src/clock_tw9001.c:1035
        for (idx = 0; idx < FTM_INSTANCE_COUNT; idx++)
        {
            sim_set_ext_pin_source_ftm(SIM, idx, p_sim_clock_config->tclk_config.extPinSrc[idx]);
        }
    }
}
     9be:	bd70      	pop	{r4, r5, r6, pc}
D:\CQ9008\sample_codes\Release_example_240606\puf_template\debug/../sdk/platform/drivers/src/clock_tw9001.c:1006
        sim_set_clockout(SIM,
     9c0:	7845      	ldrb	r5, [r0, #1]
D:\CQ9008\sample_codes\Release_example_240606\puf_template\debug/../sdk/platform/drivers/src/clock_tw9001.c:1008
                         p_sim_clock_config->clock_out_config.source,
     9c2:	7881      	ldrb	r1, [r0, #2]
D:\CQ9008\sample_codes\Release_example_240606\puf_template\debug/../sdk/platform/drivers/src/clock_tw9001.c:1009
                         p_sim_clock_config->clock_out_config.divider);
     9c4:	78c2      	ldrb	r2, [r0, #3]
sim_set_clockout():
D:\CQ9008\sample_codes\Release_example_240606\puf_template\debug/../sdk/platform/drivers/inc/sim_access.h:259
sim_set_clockout(SIM_t *p_base, bool b_enable, uint32_t source, uint32_t divider)
{
    uint32_t reg_val;

    /* CLKOUTEN should be first cleared and then execute sequence */
    p_base->CHIPCTL &= ~SIM_CHIPCTL_CLKOUTEN_MASK;
     9c6:	4b34      	ldr	r3, [pc, #208]	; (a98 <clock_set_sim_config+0x114>)
     9c8:	685c      	ldr	r4, [r3, #4]
     9ca:	4e35      	ldr	r6, [pc, #212]	; (aa0 <clock_set_sim_config+0x11c>)
     9cc:	4034      	ands	r4, r6
     9ce:	605c      	str	r4, [r3, #4]
D:\CQ9008\sample_codes\Release_example_240606\puf_template\debug/../sdk/platform/drivers/inc/sim_access.h:261

    reg_val = p_base->CHIPCTL;
     9d0:	685b      	ldr	r3, [r3, #4]
D:\CQ9008\sample_codes\Release_example_240606\puf_template\debug/../sdk/platform/drivers/inc/sim_access.h:262
    reg_val &=
     9d2:	4c34      	ldr	r4, [pc, #208]	; (aa4 <clock_set_sim_config+0x120>)
     9d4:	4023      	ands	r3, r4
D:\CQ9008\sample_codes\Release_example_240606\puf_template\debug/../sdk/platform/drivers/inc/sim_access.h:265
        ~(SIM_CHIPCTL_CLKOUTEN_MASK | SIM_CHIPCTL_CLKOUTDIV_MASK | SIM_CHIPCTL_CLKOUTSEL_MASK);

    reg_val |= SIM_CHIPCTL_CLKOUTEN(b_enable ? 1UL : 0UL);
     9d6:	2d00      	cmp	r5, #0
     9d8:	d00e      	beq.n	9f8 <clock_set_sim_config+0x74>
     9da:	2480      	movs	r4, #128	; 0x80
     9dc:	0124      	lsls	r4, r4, #4
     9de:	4323      	orrs	r3, r4
D:\CQ9008\sample_codes\Release_example_240606\puf_template\debug/../sdk/platform/drivers/inc/sim_access.h:266
    reg_val |= SIM_CHIPCTL_CLKOUTSEL(source);
     9e0:	010c      	lsls	r4, r1, #4
     9e2:	21ff      	movs	r1, #255	; 0xff
     9e4:	4021      	ands	r1, r4
     9e6:	430b      	orrs	r3, r1
D:\CQ9008\sample_codes\Release_example_240606\puf_template\debug/../sdk/platform/drivers/inc/sim_access.h:267
    reg_val |= SIM_CHIPCTL_CLKOUTDIV(divider);
     9e8:	0212      	lsls	r2, r2, #8
     9ea:	21e0      	movs	r1, #224	; 0xe0
     9ec:	00c9      	lsls	r1, r1, #3
     9ee:	400a      	ands	r2, r1
     9f0:	4313      	orrs	r3, r2
D:\CQ9008\sample_codes\Release_example_240606\puf_template\debug/../sdk/platform/drivers/inc/sim_access.h:269

    p_base->CHIPCTL = reg_val;
     9f2:	4a29      	ldr	r2, [pc, #164]	; (a98 <clock_set_sim_config+0x114>)
     9f4:	6053      	str	r3, [r2, #4]
D:\CQ9008\sample_codes\Release_example_240606\puf_template\debug/../sdk/platform/drivers/inc/sim_access.h:270
}
     9f6:	e7dc      	b.n	9b2 <clock_set_sim_config+0x2e>
D:\CQ9008\sample_codes\Release_example_240606\puf_template\debug/../sdk/platform/drivers/inc/sim_access.h:265
    reg_val |= SIM_CHIPCTL_CLKOUTEN(b_enable ? 1UL : 0UL);
     9f8:	2400      	movs	r4, #0
     9fa:	e7f0      	b.n	9de <clock_set_sim_config+0x5a>
clock_set_sim_config():
D:\CQ9008\sample_codes\Release_example_240606\puf_template\debug/../sdk/platform/drivers/src/clock_tw9001.c:1015
        sim_set_lpo_clks(SIM,
     9fc:	7a05      	ldrb	r5, [r0, #8]
     9fe:	79c4      	ldrb	r4, [r0, #7]
D:\CQ9008\sample_codes\Release_example_240606\puf_template\debug/../sdk/platform/drivers/src/clock_tw9001.c:1018
                         p_sim_clock_config->lpo_clock_config.source_lpo_clk,
     a00:	7981      	ldrb	r1, [r0, #6]
D:\CQ9008\sample_codes\Release_example_240606\puf_template\debug/../sdk/platform/drivers/src/clock_tw9001.c:1019
                         p_sim_clock_config->lpo_clock_config.source_rtc_clk);
     a02:	7942      	ldrb	r2, [r0, #5]
sim_set_lpo_clks():
D:\CQ9008\sample_codes\Release_example_240606\puf_template\debug/../sdk/platform/drivers/inc/sim_access.h:54
    uint32_t reg_val = p_base->LPOCLKS;
     a04:	4b24      	ldr	r3, [pc, #144]	; (a98 <clock_set_sim_config+0x114>)
     a06:	691b      	ldr	r3, [r3, #16]
D:\CQ9008\sample_codes\Release_example_240606\puf_template\debug/../sdk/platform/drivers/inc/sim_access.h:56
    reg_val &= ~(SIM_LPOCLKS_LPO1KCLKEN_MASK | SIM_LPOCLKS_LPO32KCLKEN_MASK |
     a08:	263f      	movs	r6, #63	; 0x3f
     a0a:	43b3      	bics	r3, r6
D:\CQ9008\sample_codes\Release_example_240606\puf_template\debug/../sdk/platform/drivers/inc/sim_access.h:59
    reg_val |= SIM_LPOCLKS_LPO1KCLKEN(b_enable_lpo1k ? 1UL : 0UL);
     a0c:	2d00      	cmp	r5, #0
     a0e:	d010      	beq.n	a32 <clock_set_sim_config+0xae>
     a10:	2501      	movs	r5, #1
     a12:	432b      	orrs	r3, r5
D:\CQ9008\sample_codes\Release_example_240606\puf_template\debug/../sdk/platform/drivers/inc/sim_access.h:60
    reg_val |= SIM_LPOCLKS_LPO32KCLKEN(b_enable_lpo32k ? 1UL : 0UL);
     a14:	2c00      	cmp	r4, #0
     a16:	d00e      	beq.n	a36 <clock_set_sim_config+0xb2>
     a18:	2402      	movs	r4, #2
     a1a:	4323      	orrs	r3, r4
D:\CQ9008\sample_codes\Release_example_240606\puf_template\debug/../sdk/platform/drivers/inc/sim_access.h:61
    reg_val |= SIM_LPOCLKS_LPOCLKSEL(source_lpo_clk);
     a1c:	008c      	lsls	r4, r1, #2
     a1e:	210c      	movs	r1, #12
     a20:	4021      	ands	r1, r4
     a22:	430b      	orrs	r3, r1
D:\CQ9008\sample_codes\Release_example_240606\puf_template\debug/../sdk/platform/drivers/inc/sim_access.h:62
    reg_val |= SIM_LPOCLKS_RTCCLKSEL(source_rtc_clk);
     a24:	0111      	lsls	r1, r2, #4
     a26:	2230      	movs	r2, #48	; 0x30
     a28:	400a      	ands	r2, r1
     a2a:	4313      	orrs	r3, r2
D:\CQ9008\sample_codes\Release_example_240606\puf_template\debug/../sdk/platform/drivers/inc/sim_access.h:65
    p_base->LPOCLKS = reg_val;
     a2c:	4a1a      	ldr	r2, [pc, #104]	; (a98 <clock_set_sim_config+0x114>)
     a2e:	6113      	str	r3, [r2, #16]
D:\CQ9008\sample_codes\Release_example_240606\puf_template\debug/../sdk/platform/drivers/inc/sim_access.h:66
}
     a30:	e7c2      	b.n	9b8 <clock_set_sim_config+0x34>
D:\CQ9008\sample_codes\Release_example_240606\puf_template\debug/../sdk/platform/drivers/inc/sim_access.h:59
    reg_val |= SIM_LPOCLKS_LPO1KCLKEN(b_enable_lpo1k ? 1UL : 0UL);
     a32:	2500      	movs	r5, #0
     a34:	e7ed      	b.n	a12 <clock_set_sim_config+0x8e>
D:\CQ9008\sample_codes\Release_example_240606\puf_template\debug/../sdk/platform/drivers/inc/sim_access.h:60
    reg_val |= SIM_LPOCLKS_LPO32KCLKEN(b_enable_lpo32k ? 1UL : 0UL);
     a36:	2400      	movs	r4, #0
     a38:	e7ef      	b.n	a1a <clock_set_sim_config+0x96>
clock_set_sim_config():
D:\CQ9008\sample_codes\Release_example_240606\puf_template\debug/../sdk/platform/drivers/src/clock_tw9001.c:1027 (discriminator 3)
            g_tclk_freq[idx] = p_sim_clock_config->tclk_config.tclkFreq[idx];
     a3a:	1c9a      	adds	r2, r3, #2
     a3c:	0092      	lsls	r2, r2, #2
     a3e:	1882      	adds	r2, r0, r2
     a40:	6894      	ldr	r4, [r2, #8]
     a42:	0099      	lsls	r1, r3, #2
     a44:	4a18      	ldr	r2, [pc, #96]	; (aa8 <clock_set_sim_config+0x124>)
     a46:	508c      	str	r4, [r1, r2]
D:\CQ9008\sample_codes\Release_example_240606\puf_template\debug/../sdk/platform/drivers/src/clock_tw9001.c:1025 (discriminator 3)
        for (idx = 0; idx < NUMBER_OF_TCLK_INPUTS; idx++)
     a48:	3301      	adds	r3, #1
     a4a:	b2db      	uxtb	r3, r3
D:\CQ9008\sample_codes\Release_example_240606\puf_template\debug/../sdk/platform/drivers/src/clock_tw9001.c:1025 (discriminator 1)
     a4c:	2b02      	cmp	r3, #2
     a4e:	d9f4      	bls.n	a3a <clock_set_sim_config+0xb6>
D:\CQ9008\sample_codes\Release_example_240606\puf_template\debug/../sdk/platform/drivers/src/clock_tw9001.c:1030
        for (idx = 0; idx < FTM_INSTANCE_COUNT; idx++)
     a50:	2300      	movs	r3, #0
     a52:	e00c      	b.n	a6e <clock_set_sim_config+0xea>
D:\CQ9008\sample_codes\Release_example_240606\puf_template\debug/../sdk/platform/drivers/src/clock_tw9001.c:1025
        for (idx = 0; idx < NUMBER_OF_TCLK_INPUTS; idx++)
     a54:	2300      	movs	r3, #0
     a56:	e7f9      	b.n	a4c <clock_set_sim_config+0xc8>
sim_set_ext_pin_source_ftm():
D:\CQ9008\sample_codes\Release_example_240606\puf_template\debug/../sdk/platform/drivers/inc/sim_access.h:211
            reg_val &= ~SIM_FTMOPT0_FTM0CLKSEL_MASK;
     a58:	4c14      	ldr	r4, [pc, #80]	; (aac <clock_set_sim_config+0x128>)
     a5a:	4022      	ands	r2, r4
D:\CQ9008\sample_codes\Release_example_240606\puf_template\debug/../sdk/platform/drivers/inc/sim_access.h:212
            reg_val |= SIM_FTMOPT0_FTM0CLKSEL(source);
     a5c:	0609      	lsls	r1, r1, #24
     a5e:	24c0      	movs	r4, #192	; 0xc0
     a60:	04a4      	lsls	r4, r4, #18
     a62:	4021      	ands	r1, r4
     a64:	430a      	orrs	r2, r1
D:\CQ9008\sample_codes\Release_example_240606\puf_template\debug/../sdk/platform/drivers/inc/sim_access.h:243
    p_base->FTMOPT0 = reg_val;
     a66:	490c      	ldr	r1, [pc, #48]	; (a98 <clock_set_sim_config+0x114>)
     a68:	60ca      	str	r2, [r1, #12]
clock_set_sim_config():
D:\CQ9008\sample_codes\Release_example_240606\puf_template\debug/../sdk/platform/drivers/src/clock_tw9001.c:1030
        for (idx = 0; idx < FTM_INSTANCE_COUNT; idx++)
     a6a:	3301      	adds	r3, #1
     a6c:	b2db      	uxtb	r3, r3
D:\CQ9008\sample_codes\Release_example_240606\puf_template\debug/../sdk/platform/drivers/src/clock_tw9001.c:1030 (discriminator 1)
     a6e:	2b01      	cmp	r3, #1
     a70:	d8a5      	bhi.n	9be <clock_set_sim_config+0x3a>
D:\CQ9008\sample_codes\Release_example_240606\puf_template\debug/../sdk/platform/drivers/src/clock_tw9001.c:1032 (discriminator 3)
            sim_set_ext_pin_source_ftm(SIM, idx, p_sim_clock_config->tclk_config.extPinSrc[idx]);
     a72:	1d9a      	adds	r2, r3, #6
     a74:	0092      	lsls	r2, r2, #2
     a76:	1882      	adds	r2, r0, r2
     a78:	6851      	ldr	r1, [r2, #4]
sim_set_ext_pin_source_ftm():
D:\CQ9008\sample_codes\Release_example_240606\puf_template\debug/../sdk/platform/drivers/inc/sim_access.h:205 (discriminator 3)
    uint32_t reg_val = p_base->FTMOPT0;
     a7a:	4a07      	ldr	r2, [pc, #28]	; (a98 <clock_set_sim_config+0x114>)
     a7c:	68d2      	ldr	r2, [r2, #12]
D:\CQ9008\sample_codes\Release_example_240606\puf_template\debug/../sdk/platform/drivers/inc/sim_access.h:207 (discriminator 3)
    switch (instance)
     a7e:	2b00      	cmp	r3, #0
     a80:	d0ea      	beq.n	a58 <clock_set_sim_config+0xd4>
D:\CQ9008\sample_codes\Release_example_240606\puf_template\debug/../sdk/platform/drivers/inc/sim_access.h:207
     a82:	2b01      	cmp	r3, #1
     a84:	d1ef      	bne.n	a66 <clock_set_sim_config+0xe2>
D:\CQ9008\sample_codes\Release_example_240606\puf_template\debug/../sdk/platform/drivers/inc/sim_access.h:217
            reg_val &= ~SIM_FTMOPT0_FTM1CLKSEL_MASK;
     a86:	4c0a      	ldr	r4, [pc, #40]	; (ab0 <clock_set_sim_config+0x12c>)
     a88:	4022      	ands	r2, r4
D:\CQ9008\sample_codes\Release_example_240606\puf_template\debug/../sdk/platform/drivers/inc/sim_access.h:218
            reg_val |= SIM_FTMOPT0_FTM1CLKSEL(source);
     a8a:	0689      	lsls	r1, r1, #26
     a8c:	24c0      	movs	r4, #192	; 0xc0
     a8e:	0524      	lsls	r4, r4, #20
     a90:	4021      	ands	r1, r4
     a92:	430a      	orrs	r2, r1
D:\CQ9008\sample_codes\Release_example_240606\puf_template\debug/../sdk/platform/drivers/inc/sim_access.h:220
        break;
     a94:	e7e7      	b.n	a66 <clock_set_sim_config+0xe2>
     a96:	46c0      	nop			; (mov r8, r8)
     a98:	40048000 	.word	0x40048000
     a9c:	000affff 	.word	0x000affff
     aa0:	fffff7ff 	.word	0xfffff7ff
     aa4:	fffff00f 	.word	0xfffff00f
     aa8:	200002e4 	.word	0x200002e4
     aac:	fcffffff 	.word	0xfcffffff
     ab0:	f3ffffff 	.word	0xf3ffffff

00000ab4 <clock_get_default_config>:
clock_get_default_config():
D:\CQ9008\sample_codes\Release_example_240606\puf_template\debug/../sdk/platform/drivers/src/clock_tw9001.c:1045
 * only gets the clock modules registers for clock mode change, but not send
 * notifications to drivers.
 * END**************************************************************************/
static void
clock_get_default_config(clock_manager_user_config_t *p_config)
{
     ab4:	b530      	push	{r4, r5, lr}
D:\CQ9008\sample_codes\Release_example_240606\puf_template\debug/../sdk/platform/drivers/src/clock_tw9001.c:1458
#endif
    };

    /* SCG */
    /* SIRCDIV */
    p_config->scg_config.sirc_config.b_initialize = true;                     /**< Initialize */
     ab6:	2301      	movs	r3, #1
     ab8:	7083      	strb	r3, [r0, #2]
D:\CQ9008\sample_codes\Release_example_240606\puf_template\debug/../sdk/platform/drivers/src/clock_tw9001.c:1459
    p_config->scg_config.sirc_config.div1         = SCG_ASYNC_CLOCK_DIV_BY_1; /**< SIRCDIV1  */
     aba:	7003      	strb	r3, [r0, #0]
D:\CQ9008\sample_codes\Release_example_240606\puf_template\debug/../sdk/platform/drivers/src/clock_tw9001.c:1460
    p_config->scg_config.sirc_config.div2         = SCG_ASYNC_CLOCK_DIV_BY_1; /**< SIRCDIV2  */
     abc:	7043      	strb	r3, [r0, #1]
D:\CQ9008\sample_codes\Release_example_240606\puf_template\debug/../sdk/platform/drivers/src/clock_tw9001.c:1463

    /* FIRCDIV */
    p_config->scg_config.firc_config.b_initialize = true;                     /**< Initialize */
     abe:	7143      	strb	r3, [r0, #5]
D:\CQ9008\sample_codes\Release_example_240606\puf_template\debug/../sdk/platform/drivers/src/clock_tw9001.c:1464
    p_config->scg_config.firc_config.div1         = SCG_ASYNC_CLOCK_DIV_BY_1; /**< FIRCDIV1   */
     ac0:	70c3      	strb	r3, [r0, #3]
D:\CQ9008\sample_codes\Release_example_240606\puf_template\debug/../sdk/platform/drivers/src/clock_tw9001.c:1465
    p_config->scg_config.firc_config.div2         = SCG_ASYNC_CLOCK_DIV_BY_1; /**< FIRCDIV2   */
     ac2:	7103      	strb	r3, [r0, #4]
D:\CQ9008\sample_codes\Release_example_240606\puf_template\debug/../sdk/platform/drivers/src/clock_tw9001.c:1467

    p_config->scg_config.rtc_config.b_initialize    = true;                   /**< Initialize  */
     ac4:	7603      	strb	r3, [r0, #24]
D:\CQ9008\sample_codes\Release_example_240606\puf_template\debug/../sdk/platform/drivers/src/clock_tw9001.c:1468
    p_config->scg_config.rtc_config.rtc_clk_in_freq = 0U;                     /**< RTC_CLKIN   */
     ac6:	2200      	movs	r2, #0
     ac8:	6142      	str	r2, [r0, #20]
D:\CQ9008\sample_codes\Release_example_240606\puf_template\debug/../sdk/platform/drivers/src/clock_tw9001.c:1471

    /* SOSCDIV */
    p_config->scg_config.sosc_config.b_initialize = true;                     /**< Initialize */
     aca:	7383      	strb	r3, [r0, #14]
D:\CQ9008\sample_codes\Release_example_240606\puf_template\debug/../sdk/platform/drivers/src/clock_tw9001.c:1472
    p_config->scg_config.sosc_config.freq         = 8000000U;                 /**< Frequency  */
     acc:	491c      	ldr	r1, [pc, #112]	; (b40 <clock_get_default_config+0x8c>)
     ace:	6081      	str	r1, [r0, #8]
D:\CQ9008\sample_codes\Release_example_240606\puf_template\debug/../sdk/platform/drivers/src/clock_tw9001.c:1473
    p_config->scg_config.sosc_config.div1         = SCG_ASYNC_CLOCK_DIV_BY_1; /**< SOSCDIV1    */
     ad0:	7303      	strb	r3, [r0, #12]
D:\CQ9008\sample_codes\Release_example_240606\puf_template\debug/../sdk/platform/drivers/src/clock_tw9001.c:1474
    p_config->scg_config.sosc_config.div2         = SCG_ASYNC_CLOCK_DIV_BY_1; /**< SOSCDIV2    */
     ad2:	7343      	strb	r3, [r0, #13]
D:\CQ9008\sample_codes\Release_example_240606\puf_template\debug/../sdk/platform/drivers/src/clock_tw9001.c:1476

    p_config->scg_config.clock_out_config.b_initialize = true;                /**< Initialize    */
     ad4:	7743      	strb	r3, [r0, #29]
D:\CQ9008\sample_codes\Release_example_240606\puf_template\debug/../sdk/platform/drivers/src/clock_tw9001.c:1477
    p_config->scg_config.clock_out_config.source = SCG_CLOCKOUT_SRC_FIRC; /**< SCG CLKOUTSEL     */
     ad6:	2103      	movs	r1, #3
     ad8:	7701      	strb	r1, [r0, #28]
D:\CQ9008\sample_codes\Release_example_240606\puf_template\debug/../sdk/platform/drivers/src/clock_tw9001.c:1479

    p_config->scg_config.clock_mode_config.b_initialize = true;           /**< Initialize */
     ada:	2428      	movs	r4, #40	; 0x28
     adc:	5503      	strb	r3, [r0, r4]
D:\CQ9008\sample_codes\Release_example_240606\puf_template\debug/../sdk/platform/drivers/src/clock_tw9001.c:1481
    /**< RCCR - Run Clock Control Register          */
    p_config->scg_config.clock_mode_config.rccr_config.src = SCG_SYSTEM_CLOCK_SRC_FIRC; /**< SCS */
     ade:	3c08      	subs	r4, #8
     ae0:	5501      	strb	r1, [r0, r4]
D:\CQ9008\sample_codes\Release_example_240606\puf_template\debug/../sdk/platform/drivers/src/clock_tw9001.c:1482
    p_config->scg_config.clock_mode_config.rccr_config.div_core =
     ae2:	77c2      	strb	r2, [r0, #31]
D:\CQ9008\sample_codes\Release_example_240606\puf_template\debug/../sdk/platform/drivers/src/clock_tw9001.c:1484
        SCG_SYSTEM_CLOCK_DIV_BY_1; /**< DIVCORE    */
    p_config->scg_config.clock_mode_config.rccr_config.div_slow =
     ae4:	7783      	strb	r3, [r0, #30]
D:\CQ9008\sample_codes\Release_example_240606\puf_template\debug/../sdk/platform/drivers/src/clock_tw9001.c:1488
        SCG_SYSTEM_CLOCK_DIV_BY_2; /**< DIVSLOW    */

    /**< VCCR - VLPR Clock Control Register        */
    p_config->scg_config.clock_mode_config.vccr_config.src = SCG_SYSTEM_CLOCK_SRC_SIRC; /**< SCS */
     ae6:	3403      	adds	r4, #3
     ae8:	2502      	movs	r5, #2
     aea:	5505      	strb	r5, [r0, r4]
D:\CQ9008\sample_codes\Release_example_240606\puf_template\debug/../sdk/platform/drivers/src/clock_tw9001.c:1489
    p_config->scg_config.clock_mode_config.vccr_config.div_core =
     aec:	3c01      	subs	r4, #1
     aee:	5503      	strb	r3, [r0, r4]
D:\CQ9008\sample_codes\Release_example_240606\puf_template\debug/../sdk/platform/drivers/src/clock_tw9001.c:1491
        SCG_SYSTEM_CLOCK_DIV_BY_2; /**< DIVCORE    */
    p_config->scg_config.clock_mode_config.vccr_config.div_slow =
     af0:	3c01      	subs	r4, #1
     af2:	5501      	strb	r1, [r0, r4]
D:\CQ9008\sample_codes\Release_example_240606\puf_template\debug/../sdk/platform/drivers/src/clock_tw9001.c:1495
        SCG_SYSTEM_CLOCK_DIV_BY_4; /**< DIVSLOW    */

    /* PCC */
    p_config->pcc_config.p_peripheral_clocks = peripheral_clk_config; /**< Peripheral
     af4:	4913      	ldr	r1, [pc, #76]	; (b44 <clock_get_default_config+0x90>)
     af6:	6541      	str	r1, [r0, #84]	; 0x54
D:\CQ9008\sample_codes\Release_example_240606\puf_template\debug/../sdk/platform/drivers/src/clock_tw9001.c:1499
                                                                   clock control
                                                                   configurations
                                                                 */
    p_config->pcc_config.count = CLOCK_PERIPHERALS_COUNT; /**< Number of the peripheral clock
     af8:	210d      	movs	r1, #13
     afa:	6501      	str	r1, [r0, #80]	; 0x50
D:\CQ9008\sample_codes\Release_example_240606\puf_template\debug/../sdk/platform/drivers/src/clock_tw9001.c:1504
                                                          control configurations  */

    /* SIM */
    /**< Clock Out configuration.           */
    p_config->sim_config.clock_out_config.b_initialize = true;           /**< Initialize    */
     afc:	311f      	adds	r1, #31
     afe:	5443      	strb	r3, [r0, r1]
D:\CQ9008\sample_codes\Release_example_240606\puf_template\debug/../sdk/platform/drivers/src/clock_tw9001.c:1505
    p_config->sim_config.clock_out_config.b_enable     = false;          /**< CLKOUTEN      */
     b00:	3101      	adds	r1, #1
     b02:	5442      	strb	r2, [r0, r1]
D:\CQ9008\sample_codes\Release_example_240606\puf_template\debug/../sdk/platform/drivers/src/clock_tw9001.c:1506
    p_config->sim_config.clock_out_config.source =
     b04:	3101      	adds	r1, #1
     b06:	5442      	strb	r2, [r0, r1]
D:\CQ9008\sample_codes\Release_example_240606\puf_template\debug/../sdk/platform/drivers/src/clock_tw9001.c:1508
        SIM_CLKOUT_SEL_SYSTEM_SCG_CLKOUT;                                /**< CLKOUTSEL */
    p_config->sim_config.clock_out_config.divider = SIM_CLKOUT_DIV_BY_1; /**< CLKOUTDIV     */
     b08:	3101      	adds	r1, #1
     b0a:	5442      	strb	r2, [r0, r1]
D:\CQ9008\sample_codes\Release_example_240606\puf_template\debug/../sdk/platform/drivers/src/clock_tw9001.c:1510
    /**< Low Power Clock configuration.     */
    p_config->sim_config.lpo_clock_config.b_initialize    = true; /**< Initialize    */
     b0c:	3101      	adds	r1, #1
     b0e:	5443      	strb	r3, [r0, r1]
D:\CQ9008\sample_codes\Release_example_240606\puf_template\debug/../sdk/platform/drivers/src/clock_tw9001.c:1511
    p_config->sim_config.lpo_clock_config.b_enable_lpo1k  = true; /**< LPO1KCLKEN    */
     b10:	3104      	adds	r1, #4
     b12:	5443      	strb	r3, [r0, r1]
D:\CQ9008\sample_codes\Release_example_240606\puf_template\debug/../sdk/platform/drivers/src/clock_tw9001.c:1512
    p_config->sim_config.lpo_clock_config.b_enable_lpo32k = true; /**< LPO32KCLKEN   */
     b14:	3901      	subs	r1, #1
     b16:	5443      	strb	r3, [r0, r1]
D:\CQ9008\sample_codes\Release_example_240606\puf_template\debug/../sdk/platform/drivers/src/clock_tw9001.c:1513
    p_config->sim_config.lpo_clock_config.source_lpo_clk =
     b18:	3901      	subs	r1, #1
     b1a:	5442      	strb	r2, [r0, r1]
D:\CQ9008\sample_codes\Release_example_240606\puf_template\debug/../sdk/platform/drivers/src/clock_tw9001.c:1515
        SIM_LPO_CLK_SEL_LPO_128K;                                 /**< LPOCLKSEL     */
    p_config->sim_config.lpo_clock_config.source_rtc_clk =
     b1c:	3901      	subs	r1, #1
     b1e:	5442      	strb	r2, [r0, r1]
D:\CQ9008\sample_codes\Release_example_240606\puf_template\debug/../sdk/platform/drivers/src/clock_tw9001.c:1518
        SIM_RTCCLK_SEL_SOSCDIV1_CLK;                              /**< RTCCLKSEL */
    /**< TCLK CLOCK configuration. */
    p_config->sim_config.tclk_config.b_initialize = true; /**< Initialize    */
     b20:	3107      	adds	r1, #7
     b22:	5443      	strb	r3, [r0, r1]
D:\CQ9008\sample_codes\Release_example_240606\puf_template\debug/../sdk/platform/drivers/src/clock_tw9001.c:1519
    p_config->sim_config.tclk_config.tclkFreq[0]  = 0U;   /**< TCLK0         */
     b24:	63c2      	str	r2, [r0, #60]	; 0x3c
D:\CQ9008\sample_codes\Release_example_240606\puf_template\debug/../sdk/platform/drivers/src/clock_tw9001.c:1520
    p_config->sim_config.tclk_config.tclkFreq[1]  = 0U;   /**< TCLK0         */
     b26:	6402      	str	r2, [r0, #64]	; 0x40
D:\CQ9008\sample_codes\Release_example_240606\puf_template\debug/../sdk/platform/drivers/src/clock_tw9001.c:1521
    p_config->sim_config.tclk_config.tclkFreq[2]  = 0U;   /**< TCLK0         */
     b28:	6442      	str	r2, [r0, #68]	; 0x44
D:\CQ9008\sample_codes\Release_example_240606\puf_template\debug/../sdk/platform/drivers/src/clock_tw9001.c:1522
    for (idx = 0; idx < FTM_INSTANCE_COUNT; idx++)
     b2a:	e006      	b.n	b3a <clock_get_default_config+0x86>
D:\CQ9008\sample_codes\Release_example_240606\puf_template\debug/../sdk/platform/drivers/src/clock_tw9001.c:1524 (discriminator 3)
    {
        p_config->sim_config.tclk_config.extPinSrc[idx] = 0U; /**< FTMx ext pin source */
     b2c:	0013      	movs	r3, r2
     b2e:	3310      	adds	r3, #16
     b30:	009b      	lsls	r3, r3, #2
     b32:	18c3      	adds	r3, r0, r3
     b34:	2100      	movs	r1, #0
     b36:	6099      	str	r1, [r3, #8]
D:\CQ9008\sample_codes\Release_example_240606\puf_template\debug/../sdk/platform/drivers/src/clock_tw9001.c:1522 (discriminator 3)
    for (idx = 0; idx < FTM_INSTANCE_COUNT; idx++)
     b38:	3201      	adds	r2, #1
D:\CQ9008\sample_codes\Release_example_240606\puf_template\debug/../sdk/platform/drivers/src/clock_tw9001.c:1522 (discriminator 1)
     b3a:	2a01      	cmp	r2, #1
     b3c:	d9f6      	bls.n	b2c <clock_get_default_config+0x78>
D:\CQ9008\sample_codes\Release_example_240606\puf_template\debug/../sdk/platform/drivers/src/clock_tw9001.c:1526
    }
}
     b3e:	bd30      	pop	{r4, r5, pc}
     b40:	007a1200 	.word	0x007a1200
     b44:	2000010c 	.word	0x2000010c

00000b48 <clock_check_pcc_clock>:
clock_check_pcc_clock():
D:\CQ9008\sample_codes\Release_example_240606\puf_template\debug/../sdk/platform/drivers/src/clock_tw9001.c:1817
clock_check_pcc_clock(clock_names_t clock_name)
{
    status_t return_code = STATUS_SUCCESS;

    /* Invalid PCC clock names. */
    if ((clock_name <= SIM_END_OF_CLOCKS) || (clock_name == PCC_END_OF_BUS_CLOCKS) ||
     b48:	2822      	cmp	r0, #34	; 0x22
     b4a:	d916      	bls.n	b7a <clock_check_pcc_clock+0x32>
D:\CQ9008\sample_codes\Release_example_240606\puf_template\debug/../sdk/platform/drivers/src/clock_tw9001.c:1817 (discriminator 1)
     b4c:	2832      	cmp	r0, #50	; 0x32
     b4e:	d016      	beq.n	b7e <clock_check_pcc_clock+0x36>
D:\CQ9008\sample_codes\Release_example_240606\puf_template\debug/../sdk/platform/drivers/src/clock_tw9001.c:1817 (discriminator 2)
     b50:	2835      	cmp	r0, #53	; 0x35
     b52:	d016      	beq.n	b82 <clock_check_pcc_clock+0x3a>
D:\CQ9008\sample_codes\Release_example_240606\puf_template\debug/../sdk/platform/drivers/src/clock_tw9001.c:1818
        (clock_name == PCC_END_OF_SYS_CLOCKS) || (clock_name == PCC_END_OF_SLOW_CLOCKS) ||
     b54:	2837      	cmp	r0, #55	; 0x37
     b56:	d016      	beq.n	b86 <clock_check_pcc_clock+0x3e>
D:\CQ9008\sample_codes\Release_example_240606\puf_template\debug/../sdk/platform/drivers/src/clock_tw9001.c:1818 (discriminator 1)
     b58:	283a      	cmp	r0, #58	; 0x3a
     b5a:	d016      	beq.n	b8a <clock_check_pcc_clock+0x42>
D:\CQ9008\sample_codes\Release_example_240606\puf_template\debug/../sdk/platform/drivers/src/clock_tw9001.c:1819
        (clock_name == PCC_END_OF_ASYNCH_DIV1_CLOCKS) ||
     b5c:	2849      	cmp	r0, #73	; 0x49
     b5e:	d016      	beq.n	b8e <clock_check_pcc_clock+0x46>
pcc_get_clk_mode():
D:\CQ9008\sample_codes\Release_example_240606\puf_template\debug/../sdk/platform/drivers/inc/pcc_access.h:94
 *        - true : Clock is enabled
 */
static inline bool
pcc_get_clk_mode(const PCC_t *const p_base, const clock_names_t clock_name)
{
    uint32_t reg_val = (uint32_t)p_base->PCCn[g_clock_name_mappings[clock_name]];
     b60:	0040      	lsls	r0, r0, #1
     b62:	4b0c      	ldr	r3, [pc, #48]	; (b94 <clock_check_pcc_clock+0x4c>)
     b64:	5ac3      	ldrh	r3, [r0, r3]
     b66:	009b      	lsls	r3, r3, #2
     b68:	4a0b      	ldr	r2, [pc, #44]	; (b98 <clock_check_pcc_clock+0x50>)
     b6a:	589b      	ldr	r3, [r3, r2]
clock_check_pcc_clock():
D:\CQ9008\sample_codes\Release_example_240606\puf_template\debug/../sdk/platform/drivers/src/clock_tw9001.c:1824
        (clock_name == PCC_END_OF_ASYNCH_DIV2_CLOCKS))
    {
        return_code = STATUS_UNSUPPORTED;
    }
    else if (pcc_get_clk_mode(PCC, clock_name) == false)
     b6c:	005b      	lsls	r3, r3, #1
     b6e:	d501      	bpl.n	b74 <clock_check_pcc_clock+0x2c>
D:\CQ9008\sample_codes\Release_example_240606\puf_template\debug/../sdk/platform/drivers/src/clock_tw9001.c:1831
        /* Module is not clocked. */
        return_code = STATUS_MCU_GATED_OFF;
    }
    else
    {
        return_code = STATUS_SUCCESS;
     b70:	2000      	movs	r0, #0
     b72:	e003      	b.n	b7c <clock_check_pcc_clock+0x34>
D:\CQ9008\sample_codes\Release_example_240606\puf_template\debug/../sdk/platform/drivers/src/clock_tw9001.c:1827
        return_code = STATUS_MCU_GATED_OFF;
     b74:	2080      	movs	r0, #128	; 0x80
     b76:	0040      	lsls	r0, r0, #1
     b78:	e000      	b.n	b7c <clock_check_pcc_clock+0x34>
D:\CQ9008\sample_codes\Release_example_240606\puf_template\debug/../sdk/platform/drivers/src/clock_tw9001.c:1822
        return_code = STATUS_UNSUPPORTED;
     b7a:	2004      	movs	r0, #4
D:\CQ9008\sample_codes\Release_example_240606\puf_template\debug/../sdk/platform/drivers/src/clock_tw9001.c:1835
    }

    return return_code;
}
     b7c:	4770      	bx	lr
D:\CQ9008\sample_codes\Release_example_240606\puf_template\debug/../sdk/platform/drivers/src/clock_tw9001.c:1822
        return_code = STATUS_UNSUPPORTED;
     b7e:	2004      	movs	r0, #4
     b80:	e7fc      	b.n	b7c <clock_check_pcc_clock+0x34>
     b82:	2004      	movs	r0, #4
     b84:	e7fa      	b.n	b7c <clock_check_pcc_clock+0x34>
     b86:	2004      	movs	r0, #4
     b88:	e7f8      	b.n	b7c <clock_check_pcc_clock+0x34>
     b8a:	2004      	movs	r0, #4
     b8c:	e7f6      	b.n	b7c <clock_check_pcc_clock+0x34>
     b8e:	2004      	movs	r0, #4
     b90:	e7f4      	b.n	b7c <clock_check_pcc_clock+0x34>
     b92:	46c0      	nop			; (mov r8, r8)
     b94:	0000623c 	.word	0x0000623c
     b98:	40065000 	.word	0x40065000

00000b9c <clock_get_current_run_mode>:
smc_get_current_running_mode():
D:\CQ9008\sample_codes\Release_example_240606\puf_template\debug/../sdk/platform/drivers/inc/smc_access.h:37
 * @return stat  Current power mode stat
 */
static inline uint32_t
smc_get_current_running_mode(const SMC_t *const p_base)
{
    return (p_base->PMSTAT & SMC_PMSTAT_PMSTAT_MASK) >> SMC_PMSTAT_PMSTAT_SHIFT;
     b9c:	4b08      	ldr	r3, [pc, #32]	; (bc0 <clock_get_current_run_mode+0x24>)
     b9e:	695a      	ldr	r2, [r3, #20]
     ba0:	23ff      	movs	r3, #255	; 0xff
     ba2:	4013      	ands	r3, r2
clock_get_current_run_mode():
D:\CQ9008\sample_codes\Release_example_240606\puf_template\debug/../sdk/platform/drivers/src/clock_tw9001.c:2062
clock_get_current_run_mode(void)
{
    scg_system_clock_mode_t mode;

    /* Get the current running mode */
    switch (smc_get_current_running_mode(SMC))
     ba4:	2b04      	cmp	r3, #4
     ba6:	d007      	beq.n	bb8 <clock_get_current_run_mode+0x1c>
     ba8:	2b80      	cmp	r3, #128	; 0x80
     baa:	d007      	beq.n	bbc <clock_get_current_run_mode+0x20>
     bac:	2b01      	cmp	r3, #1
     bae:	d001      	beq.n	bb4 <clock_get_current_run_mode+0x18>
D:\CQ9008\sample_codes\Release_example_240606\puf_template\debug/../sdk/platform/drivers/src/clock_tw9001.c:2086
        break;
        /* This should never happen - core has to be in some run mode to execute
         * code */
        default:
        {
            mode = SCG_SYSTEM_CLOCK_MODE_NONE;
     bb0:	2004      	movs	r0, #4
D:\CQ9008\sample_codes\Release_example_240606\puf_template\debug/../sdk/platform/drivers/src/clock_tw9001.c:2092
        }
        break;
    }

    return mode;
}
     bb2:	4770      	bx	lr
D:\CQ9008\sample_codes\Release_example_240606\puf_template\debug/../sdk/platform/drivers/src/clock_tw9001.c:2073
            mode = SCG_SYSTEM_CLOCK_MODE_RUN;
     bb4:	2001      	movs	r0, #1
     bb6:	e7fc      	b.n	bb2 <clock_get_current_run_mode+0x16>
D:\CQ9008\sample_codes\Release_example_240606\puf_template\debug/../sdk/platform/drivers/src/clock_tw9001.c:2079
            mode = SCG_SYSTEM_CLOCK_MODE_VLPR;
     bb8:	2002      	movs	r0, #2
     bba:	e7fa      	b.n	bb2 <clock_get_current_run_mode+0x16>
D:\CQ9008\sample_codes\Release_example_240606\puf_template\debug/../sdk/platform/drivers/src/clock_tw9001.c:2062
    switch (smc_get_current_running_mode(SMC))
     bbc:	2003      	movs	r0, #3
     bbe:	e7f8      	b.n	bb2 <clock_get_current_run_mode+0x16>
     bc0:	4007e000 	.word	0x4007e000

00000bc4 <clock_get_sys_osc_freq>:
clock_get_sys_osc_freq():
D:\CQ9008\sample_codes\Release_example_240606\puf_template\debug/../sdk/platform/drivers/src/clock_tw9001.c:2913
 * END**************************************************************************/
static uint32_t
clock_get_sys_osc_freq(void)
{
    uint32_t ret_value;
    ret_value = g_xtal0_clk_freq;
     bc4:	4b01      	ldr	r3, [pc, #4]	; (bcc <clock_get_sys_osc_freq+0x8>)
     bc6:	6818      	ldr	r0, [r3, #0]
D:\CQ9008\sample_codes\Release_example_240606\puf_template\debug/../sdk/platform/drivers/src/clock_tw9001.c:2917
    // ret_value = 0U;

    return ret_value;
}
     bc8:	4770      	bx	lr
     bca:	46c0      	nop			; (mov r8, r8)
     bcc:	200002f0 	.word	0x200002f0

00000bd0 <clock_configure_sosc>:
clock_configure_sosc():
D:\CQ9008\sample_codes\Release_example_240606\puf_template\debug/../sdk/platform/drivers/src/clock_tw9001.c:2404
{
     bd0:	b510      	push	{r4, lr}
     bd2:	b082      	sub	sp, #8
D:\CQ9008\sample_codes\Release_example_240606\puf_template\debug/../sdk/platform/drivers/src/clock_tw9001.c:2410
    if (p_sosc_config == NULL)
     bd4:	2900      	cmp	r1, #0
     bd6:	d01a      	beq.n	c0e <clock_configure_sosc+0x3e>
D:\CQ9008\sample_codes\Release_example_240606\puf_template\debug/../sdk/platform/drivers/src/clock_tw9001.c:2424
    if (b_enable && (status == STATUS_SUCCESS))
     bd8:	2800      	cmp	r0, #0
     bda:	d024      	beq.n	c26 <clock_configure_sosc+0x56>
D:\CQ9008\sample_codes\Release_example_240606\puf_template\debug/../sdk/platform/drivers/src/clock_tw9001.c:2428
        scg_set_sosc_async_config(SCG, p_sosc_cfg->div1, p_sosc_cfg->div2);
     bdc:	7908      	ldrb	r0, [r1, #4]
     bde:	794a      	ldrb	r2, [r1, #5]
scg_set_sosc_async_config():
D:\CQ9008\sample_codes\Release_example_240606\puf_template\debug/../sdk/platform/drivers/inc/scg_access.h:256
 */
static inline void
scg_set_sosc_async_config(SCG_t *p_base, uint32_t div1, uint32_t div2)
{
    uint32_t reg_val =
        (uint32_t)(((div1 << SCG_SOSCDIV_SOSCDIV1_SHIFT) & SCG_SOSCDIV_SOSCDIV1_MASK) |
     be0:	2307      	movs	r3, #7
     be2:	4003      	ands	r3, r0
D:\CQ9008\sample_codes\Release_example_240606\puf_template\debug/../sdk/platform/drivers/inc/scg_access.h:257
                   ((div2 << SCG_SOSCDIV_SOSCDIV2_SHIFT) & SCG_SOSCDIV_SOSCDIV2_MASK));
     be4:	0212      	lsls	r2, r2, #8
     be6:	20e0      	movs	r0, #224	; 0xe0
     be8:	00c0      	lsls	r0, r0, #3
     bea:	4002      	ands	r2, r0
D:\CQ9008\sample_codes\Release_example_240606\puf_template\debug/../sdk/platform/drivers/inc/scg_access.h:255
    uint32_t reg_val =
     bec:	4313      	orrs	r3, r2
D:\CQ9008\sample_codes\Release_example_240606\puf_template\debug/../sdk/platform/drivers/inc/scg_access.h:258
    p_base->SOSCDIV = reg_val;
     bee:	4810      	ldr	r0, [pc, #64]	; (c30 <clock_configure_sosc+0x60>)
     bf0:	2282      	movs	r2, #130	; 0x82
     bf2:	0052      	lsls	r2, r2, #1
     bf4:	5083      	str	r3, [r0, r2]
clock_configure_sosc():
D:\CQ9008\sample_codes\Release_example_240606\puf_template\debug/../sdk/platform/drivers/src/clock_tw9001.c:2434
        g_xtal0_clk_freq = p_sosc_cfg->freq;
     bf6:	680a      	ldr	r2, [r1, #0]
     bf8:	4b0e      	ldr	r3, [pc, #56]	; (c34 <clock_configure_sosc+0x64>)
     bfa:	601a      	str	r2, [r3, #0]
D:\CQ9008\sample_codes\Release_example_240606\puf_template\debug/../sdk/platform/drivers/src/clock_tw9001.c:2437
        timeout = SOSC_STABILIZATION_TIMEOUT;
     bfc:	4c0e      	ldr	r4, [pc, #56]	; (c38 <clock_configure_sosc+0x68>)
D:\CQ9008\sample_codes\Release_example_240606\puf_template\debug/../sdk/platform/drivers/src/clock_tw9001.c:2438
        while ((clock_get_sys_osc_freq() == 0U) && (timeout > 0U))
     bfe:	f7ff ffe1 	bl	bc4 <clock_get_sys_osc_freq>
     c02:	2800      	cmp	r0, #0
     c04:	d10b      	bne.n	c1e <clock_configure_sosc+0x4e>
D:\CQ9008\sample_codes\Release_example_240606\puf_template\debug/../sdk/platform/drivers/src/clock_tw9001.c:2438 (discriminator 1)
     c06:	2c00      	cmp	r4, #0
     c08:	d009      	beq.n	c1e <clock_configure_sosc+0x4e>
D:\CQ9008\sample_codes\Release_example_240606\puf_template\debug/../sdk/platform/drivers/src/clock_tw9001.c:2440
            timeout--;
     c0a:	3c01      	subs	r4, #1
     c0c:	e7f7      	b.n	bfe <clock_configure_sosc+0x2e>
D:\CQ9008\sample_codes\Release_example_240606\puf_template\debug/../sdk/platform/drivers/src/clock_tw9001.c:2412
        sosc_default_config.div1 = SCG_ASYNC_CLOCK_DIV_BY_1;
     c0e:	2301      	movs	r3, #1
     c10:	466a      	mov	r2, sp
     c12:	7113      	strb	r3, [r2, #4]
D:\CQ9008\sample_codes\Release_example_240606\puf_template\debug/../sdk/platform/drivers/src/clock_tw9001.c:2413
        sosc_default_config.div2 = SCG_ASYNC_CLOCK_DIV_BY_1;
     c14:	7153      	strb	r3, [r2, #5]
D:\CQ9008\sample_codes\Release_example_240606\puf_template\debug/../sdk/platform/drivers/src/clock_tw9001.c:2414
        sosc_default_config.freq = 8000000U;
     c16:	4b09      	ldr	r3, [pc, #36]	; (c3c <clock_configure_sosc+0x6c>)
     c18:	9300      	str	r3, [sp, #0]
D:\CQ9008\sample_codes\Release_example_240606\puf_template\debug/../sdk/platform/drivers/src/clock_tw9001.c:2416
        p_sosc_cfg = &sosc_default_config;
     c1a:	4669      	mov	r1, sp
     c1c:	e7dc      	b.n	bd8 <clock_configure_sosc+0x8>
D:\CQ9008\sample_codes\Release_example_240606\puf_template\debug/../sdk/platform/drivers/src/clock_tw9001.c:2443
        if (timeout == 0U)
     c1e:	2c00      	cmp	r4, #0
     c20:	d004      	beq.n	c2c <clock_configure_sosc+0x5c>
D:\CQ9008\sample_codes\Release_example_240606\puf_template\debug/../sdk/platform/drivers/src/clock_tw9001.c:2405
    status_t                 status = STATUS_SUCCESS;
     c22:	2000      	movs	r0, #0
     c24:	e000      	b.n	c28 <clock_configure_sosc+0x58>
     c26:	2000      	movs	r0, #0
D:\CQ9008\sample_codes\Release_example_240606\puf_template\debug/../sdk/platform/drivers/src/clock_tw9001.c:2450
}
     c28:	b002      	add	sp, #8
     c2a:	bd10      	pop	{r4, pc}
D:\CQ9008\sample_codes\Release_example_240606\puf_template\debug/../sdk/platform/drivers/src/clock_tw9001.c:2445
            status = STATUS_TIMEOUT;
     c2c:	2003      	movs	r0, #3
     c2e:	e7fb      	b.n	c28 <clock_configure_sosc+0x58>
     c30:	40064000 	.word	0x40064000
     c34:	200002f0 	.word	0x200002f0
     c38:	0030e788 	.word	0x0030e788
     c3c:	007a1200 	.word	0x007a1200

00000c40 <clock_get_sirc_freq>:
clock_get_sirc_freq():
D:\CQ9008\sample_codes\Release_example_240606\puf_template\debug/../sdk/platform/drivers/src/clock_tw9001.c:2929
clock_get_sirc_freq(void)
{
    uint32_t ret_value = FEATURE_SCG_SIRC_HIGH_RANGE_FREQ;

    return ret_value;
}
     c40:	4800      	ldr	r0, [pc, #0]	; (c44 <clock_get_sirc_freq+0x4>)
     c42:	4770      	bx	lr
     c44:	007a1200 	.word	0x007a1200

00000c48 <clock_configure_sirc>:
clock_configure_sirc():
D:\CQ9008\sample_codes\Release_example_240606\puf_template\debug/../sdk/platform/drivers/src/clock_tw9001.c:2301
{
     c48:	b510      	push	{r4, lr}
     c4a:	b082      	sub	sp, #8
D:\CQ9008\sample_codes\Release_example_240606\puf_template\debug/../sdk/platform/drivers/src/clock_tw9001.c:2307
    if (p_sirc_config == NULL)
     c4c:	2900      	cmp	r1, #0
     c4e:	d017      	beq.n	c80 <clock_configure_sirc+0x38>
D:\CQ9008\sample_codes\Release_example_240606\puf_template\debug/../sdk/platform/drivers/src/clock_tw9001.c:2320
    if (b_enable && (status == STATUS_SUCCESS))
     c50:	2800      	cmp	r0, #0
     c52:	d01e      	beq.n	c92 <clock_configure_sirc+0x4a>
D:\CQ9008\sample_codes\Release_example_240606\puf_template\debug/../sdk/platform/drivers/src/clock_tw9001.c:2324
        scg_set_sirc_async_config(SCG, p_sirc_cfg->div1, p_sirc_cfg->div2);
     c54:	7808      	ldrb	r0, [r1, #0]
     c56:	784a      	ldrb	r2, [r1, #1]
scg_set_sirc_async_config():
D:\CQ9008\sample_codes\Release_example_240606\puf_template\debug/../sdk/platform/drivers/inc/scg_access.h:210
        (uint32_t)(((div1 << SCG_SIRCDIV_SIRCDIV1_SHIFT) & SCG_SIRCDIV_SIRCDIV1_MASK) |
     c58:	2307      	movs	r3, #7
     c5a:	4003      	ands	r3, r0
D:\CQ9008\sample_codes\Release_example_240606\puf_template\debug/../sdk/platform/drivers/inc/scg_access.h:211
                   ((div2 << SCG_SIRCDIV_SIRCDIV2_SHIFT) & SCG_SIRCDIV_SIRCDIV2_MASK));
     c5c:	0212      	lsls	r2, r2, #8
     c5e:	21e0      	movs	r1, #224	; 0xe0
     c60:	00c9      	lsls	r1, r1, #3
     c62:	400a      	ands	r2, r1
D:\CQ9008\sample_codes\Release_example_240606\puf_template\debug/../sdk/platform/drivers/inc/scg_access.h:209
    uint32_t reg_val =
     c64:	4313      	orrs	r3, r2
D:\CQ9008\sample_codes\Release_example_240606\puf_template\debug/../sdk/platform/drivers/inc/scg_access.h:212
    p_base->SIRCDIV = reg_val;
     c66:	490d      	ldr	r1, [pc, #52]	; (c9c <clock_configure_sirc+0x54>)
     c68:	2281      	movs	r2, #129	; 0x81
     c6a:	0092      	lsls	r2, r2, #2
     c6c:	508b      	str	r3, [r1, r2]
clock_configure_sirc():
D:\CQ9008\sample_codes\Release_example_240606\puf_template\debug/../sdk/platform/drivers/src/clock_tw9001.c:2332
        timeout = SIRC_STABILIZATION_TIMEOUT;
     c6e:	2464      	movs	r4, #100	; 0x64
D:\CQ9008\sample_codes\Release_example_240606\puf_template\debug/../sdk/platform/drivers/src/clock_tw9001.c:2333
        while ((clock_get_sirc_freq() == 0U) && (timeout > 0U))
     c70:	f7ff ffe6 	bl	c40 <clock_get_sirc_freq>
     c74:	2800      	cmp	r0, #0
     c76:	d108      	bne.n	c8a <clock_configure_sirc+0x42>
D:\CQ9008\sample_codes\Release_example_240606\puf_template\debug/../sdk/platform/drivers/src/clock_tw9001.c:2333 (discriminator 1)
     c78:	2c00      	cmp	r4, #0
     c7a:	d006      	beq.n	c8a <clock_configure_sirc+0x42>
D:\CQ9008\sample_codes\Release_example_240606\puf_template\debug/../sdk/platform/drivers/src/clock_tw9001.c:2335
            timeout--;
     c7c:	3c01      	subs	r4, #1
     c7e:	e7f7      	b.n	c70 <clock_configure_sirc+0x28>
D:\CQ9008\sample_codes\Release_example_240606\puf_template\debug/../sdk/platform/drivers/src/clock_tw9001.c:2309
        sirc_default_config.div1 = SCG_ASYNC_CLOCK_DIV_BY_1;
     c80:	a901      	add	r1, sp, #4
     c82:	2301      	movs	r3, #1
     c84:	700b      	strb	r3, [r1, #0]
D:\CQ9008\sample_codes\Release_example_240606\puf_template\debug/../sdk/platform/drivers/src/clock_tw9001.c:2310
        sirc_default_config.div2 = SCG_ASYNC_CLOCK_DIV_BY_1;
     c86:	704b      	strb	r3, [r1, #1]
D:\CQ9008\sample_codes\Release_example_240606\puf_template\debug/../sdk/platform/drivers/src/clock_tw9001.c:2312
        p_sirc_cfg = &sirc_default_config;
     c88:	e7e2      	b.n	c50 <clock_configure_sirc+0x8>
D:\CQ9008\sample_codes\Release_example_240606\puf_template\debug/../sdk/platform/drivers/src/clock_tw9001.c:2338
        if (timeout == 0U)
     c8a:	2c00      	cmp	r4, #0
     c8c:	d004      	beq.n	c98 <clock_configure_sirc+0x50>
D:\CQ9008\sample_codes\Release_example_240606\puf_template\debug/../sdk/platform/drivers/src/clock_tw9001.c:2302
    status_t                 status = STATUS_SUCCESS;
     c8e:	2000      	movs	r0, #0
     c90:	e000      	b.n	c94 <clock_configure_sirc+0x4c>
     c92:	2000      	movs	r0, #0
D:\CQ9008\sample_codes\Release_example_240606\puf_template\debug/../sdk/platform/drivers/src/clock_tw9001.c:2345
}
     c94:	b002      	add	sp, #8
     c96:	bd10      	pop	{r4, pc}
D:\CQ9008\sample_codes\Release_example_240606\puf_template\debug/../sdk/platform/drivers/src/clock_tw9001.c:2340
            status = STATUS_TIMEOUT;
     c98:	2003      	movs	r0, #3
     c9a:	e7fb      	b.n	c94 <clock_configure_sirc+0x4c>
     c9c:	40064000 	.word	0x40064000

00000ca0 <clock_get_firc_freq>:
clock_get_firc_freq():
D:\CQ9008\sample_codes\Release_example_240606\puf_template\debug/../sdk/platform/drivers/src/clock_tw9001.c:2951
    {
        ret_value = FEATURE_SCG_FIRC_FREQ1;
    }
#endif
    return ret_value;
}
     ca0:	4800      	ldr	r0, [pc, #0]	; (ca4 <clock_get_firc_freq+0x4>)
     ca2:	4770      	bx	lr
     ca4:	03938700 	.word	0x03938700

00000ca8 <clock_configure_firc>:
clock_configure_firc():
D:\CQ9008\sample_codes\Release_example_240606\puf_template\debug/../sdk/platform/drivers/src/clock_tw9001.c:2353
{
     ca8:	b510      	push	{r4, lr}
     caa:	b082      	sub	sp, #8
D:\CQ9008\sample_codes\Release_example_240606\puf_template\debug/../sdk/platform/drivers/src/clock_tw9001.c:2359
    if (p_firc_config == NULL)
     cac:	2900      	cmp	r1, #0
     cae:	d017      	beq.n	ce0 <clock_configure_firc+0x38>
D:\CQ9008\sample_codes\Release_example_240606\puf_template\debug/../sdk/platform/drivers/src/clock_tw9001.c:2372
    if (b_enable && (status == STATUS_SUCCESS))
     cb0:	2800      	cmp	r0, #0
     cb2:	d01e      	beq.n	cf2 <clock_configure_firc+0x4a>
D:\CQ9008\sample_codes\Release_example_240606\puf_template\debug/../sdk/platform/drivers/src/clock_tw9001.c:2376
        scg_set_firc_async_config(SCG, p_firc_cfg->div1, p_firc_cfg->div2);
     cb4:	7808      	ldrb	r0, [r1, #0]
     cb6:	784a      	ldrb	r2, [r1, #1]
scg_set_firc_async_config():
D:\CQ9008\sample_codes\Release_example_240606\puf_template\debug/../sdk/platform/drivers/inc/scg_access.h:164
        (uint32_t)(((div1 << SCG_FIRCDIV_FIRCDIV1_SHIFT) & SCG_FIRCDIV_FIRCDIV1_MASK) |
     cb8:	2307      	movs	r3, #7
     cba:	4003      	ands	r3, r0
D:\CQ9008\sample_codes\Release_example_240606\puf_template\debug/../sdk/platform/drivers/inc/scg_access.h:165
                   ((div2 << SCG_FIRCDIV_FIRCDIV2_SHIFT) & SCG_FIRCDIV_FIRCDIV2_MASK));
     cbc:	0212      	lsls	r2, r2, #8
     cbe:	21e0      	movs	r1, #224	; 0xe0
     cc0:	00c9      	lsls	r1, r1, #3
     cc2:	400a      	ands	r2, r1
D:\CQ9008\sample_codes\Release_example_240606\puf_template\debug/../sdk/platform/drivers/inc/scg_access.h:163
    uint32_t reg_val =
     cc4:	4313      	orrs	r3, r2
D:\CQ9008\sample_codes\Release_example_240606\puf_template\debug/../sdk/platform/drivers/inc/scg_access.h:166
    p_base->FIRCDIV = reg_val;
     cc6:	490d      	ldr	r1, [pc, #52]	; (cfc <clock_configure_firc+0x54>)
     cc8:	22c1      	movs	r2, #193	; 0xc1
     cca:	0092      	lsls	r2, r2, #2
     ccc:	508b      	str	r3, [r1, r2]
clock_configure_firc():
D:\CQ9008\sample_codes\Release_example_240606\puf_template\debug/../sdk/platform/drivers/src/clock_tw9001.c:2383
        timeout = FIRC_STABILIZATION_TIMEOUT;
     cce:	2464      	movs	r4, #100	; 0x64
D:\CQ9008\sample_codes\Release_example_240606\puf_template\debug/../sdk/platform/drivers/src/clock_tw9001.c:2384
        while ((clock_get_firc_freq() == 0U) && (timeout > 0U))
     cd0:	f7ff ffe6 	bl	ca0 <clock_get_firc_freq>
     cd4:	2800      	cmp	r0, #0
     cd6:	d108      	bne.n	cea <clock_configure_firc+0x42>
D:\CQ9008\sample_codes\Release_example_240606\puf_template\debug/../sdk/platform/drivers/src/clock_tw9001.c:2384 (discriminator 1)
     cd8:	2c00      	cmp	r4, #0
     cda:	d006      	beq.n	cea <clock_configure_firc+0x42>
D:\CQ9008\sample_codes\Release_example_240606\puf_template\debug/../sdk/platform/drivers/src/clock_tw9001.c:2386
            timeout--;
     cdc:	3c01      	subs	r4, #1
     cde:	e7f7      	b.n	cd0 <clock_configure_firc+0x28>
D:\CQ9008\sample_codes\Release_example_240606\puf_template\debug/../sdk/platform/drivers/src/clock_tw9001.c:2361
        firc_default_config.div1 = SCG_ASYNC_CLOCK_DIV_BY_1;
     ce0:	a901      	add	r1, sp, #4
     ce2:	2301      	movs	r3, #1
     ce4:	700b      	strb	r3, [r1, #0]
D:\CQ9008\sample_codes\Release_example_240606\puf_template\debug/../sdk/platform/drivers/src/clock_tw9001.c:2362
        firc_default_config.div2 = SCG_ASYNC_CLOCK_DIV_BY_1;
     ce6:	704b      	strb	r3, [r1, #1]
D:\CQ9008\sample_codes\Release_example_240606\puf_template\debug/../sdk/platform/drivers/src/clock_tw9001.c:2364
        p_firc_cfg = &firc_default_config;
     ce8:	e7e2      	b.n	cb0 <clock_configure_firc+0x8>
D:\CQ9008\sample_codes\Release_example_240606\puf_template\debug/../sdk/platform/drivers/src/clock_tw9001.c:2389
        if (timeout == 0U)
     cea:	2c00      	cmp	r4, #0
     cec:	d004      	beq.n	cf8 <clock_configure_firc+0x50>
D:\CQ9008\sample_codes\Release_example_240606\puf_template\debug/../sdk/platform/drivers/src/clock_tw9001.c:2354
    status_t                 status = STATUS_SUCCESS;
     cee:	2000      	movs	r0, #0
     cf0:	e000      	b.n	cf4 <clock_configure_firc+0x4c>
     cf2:	2000      	movs	r0, #0
D:\CQ9008\sample_codes\Release_example_240606\puf_template\debug/../sdk/platform/drivers/src/clock_tw9001.c:2396
}
     cf4:	b002      	add	sp, #8
     cf6:	bd10      	pop	{r4, pc}
D:\CQ9008\sample_codes\Release_example_240606\puf_template\debug/../sdk/platform/drivers/src/clock_tw9001.c:2391
            status = STATUS_TIMEOUT;
     cf8:	2003      	movs	r0, #3
     cfa:	e7fb      	b.n	cf4 <clock_configure_firc+0x4c>
     cfc:	40064000 	.word	0x40064000

00000d00 <clock_get_src_freq>:
clock_get_src_freq():
D:\CQ9008\sample_codes\Release_example_240606\puf_template\debug/../sdk/platform/drivers/src/clock_tw9001.c:2673
{
     d00:	b510      	push	{r4, lr}
D:\CQ9008\sample_codes\Release_example_240606\puf_template\debug/../sdk/platform/drivers/src/clock_tw9001.c:2676
    switch (src)
     d02:	2802      	cmp	r0, #2
     d04:	d008      	beq.n	d18 <clock_get_src_freq+0x18>
     d06:	2803      	cmp	r0, #3
     d08:	d009      	beq.n	d1e <clock_get_src_freq+0x1e>
     d0a:	2801      	cmp	r0, #1
     d0c:	d001      	beq.n	d12 <clock_get_src_freq+0x12>
     d0e:	2000      	movs	r0, #0
D:\CQ9008\sample_codes\Release_example_240606\puf_template\debug/../sdk/platform/drivers/src/clock_tw9001.c:2701
}
     d10:	bd10      	pop	{r4, pc}
D:\CQ9008\sample_codes\Release_example_240606\puf_template\debug/../sdk/platform/drivers/src/clock_tw9001.c:2680
            src_freq = clock_get_sys_osc_freq();
     d12:	f7ff ff57 	bl	bc4 <clock_get_sys_osc_freq>
D:\CQ9008\sample_codes\Release_example_240606\puf_template\debug/../sdk/platform/drivers/src/clock_tw9001.c:2682
        break;
     d16:	e7fb      	b.n	d10 <clock_get_src_freq+0x10>
D:\CQ9008\sample_codes\Release_example_240606\puf_template\debug/../sdk/platform/drivers/src/clock_tw9001.c:2685
            src_freq = clock_get_sirc_freq();
     d18:	f7ff ff92 	bl	c40 <clock_get_sirc_freq>
D:\CQ9008\sample_codes\Release_example_240606\puf_template\debug/../sdk/platform/drivers/src/clock_tw9001.c:2687
        break;
     d1c:	e7f8      	b.n	d10 <clock_get_src_freq+0x10>
D:\CQ9008\sample_codes\Release_example_240606\puf_template\debug/../sdk/platform/drivers/src/clock_tw9001.c:2690
            src_freq = clock_get_firc_freq();
     d1e:	f7ff ffbf 	bl	ca0 <clock_get_firc_freq>
D:\CQ9008\sample_codes\Release_example_240606\puf_template\debug/../sdk/platform/drivers/src/clock_tw9001.c:2692
        break;
     d22:	e7f5      	b.n	d10 <clock_get_src_freq+0x10>

00000d24 <clock_set_sys_clk_config>:
clock_set_sys_clk_config():
D:\CQ9008\sample_codes\Release_example_240606\puf_template\debug/../sdk/platform/drivers/src/clock_tw9001.c:2710
{
     d24:	b5f8      	push	{r3, r4, r5, r6, r7, lr}
     d26:	46ce      	mov	lr, r9
     d28:	4647      	mov	r7, r8
     d2a:	b580      	push	{r7, lr}
     d2c:	0004      	movs	r4, r0
D:\CQ9008\sample_codes\Release_example_240606\puf_template\debug/../sdk/platform/drivers/src/clock_tw9001.c:2724
    const uint32_t sys_freq_mul = ((uint32_t)p_config->div_core) + 1UL;
     d2e:	784b      	ldrb	r3, [r1, #1]
     d30:	4698      	mov	r8, r3
     d32:	1c5e      	adds	r6, r3, #1
D:\CQ9008\sample_codes\Release_example_240606\puf_template\debug/../sdk/platform/drivers/src/clock_tw9001.c:2726
        (((uint32_t)p_config->div_core) + 1UL) * (((uint32_t)p_config->div_slow) + 1UL);
     d34:	780f      	ldrb	r7, [r1, #0]
     d36:	1c7b      	adds	r3, r7, #1
D:\CQ9008\sample_codes\Release_example_240606\puf_template\debug/../sdk/platform/drivers/src/clock_tw9001.c:2725
    const uint32_t slow_freq_mul =
     d38:	4373      	muls	r3, r6
     d3a:	4699      	mov	r9, r3
DevAssert():
D:\CQ9008\sample_codes\Release_example_240606\puf_template\debug/../sdk/platform/devices/devassert.h:31
    if (x)
     d3c:	2800      	cmp	r0, #0
     d3e:	d101      	bne.n	d44 <clock_set_sys_clk_config+0x20>
D:\CQ9008\sample_codes\Release_example_240606\puf_template\debug/../sdk/platform/devices/devassert.h:36
        BKPT_ASM;
     d40:	be00      	bkpt	0x0000
D:\CQ9008\sample_codes\Release_example_240606\puf_template\debug/../sdk/platform/devices/devassert.h:37
        for (;;)
     d42:	e7fe      	b.n	d42 <clock_set_sys_clk_config+0x1e>
clock_set_sys_clk_config():
D:\CQ9008\sample_codes\Release_example_240606\puf_template\debug/../sdk/platform/drivers/src/clock_tw9001.c:2730
    src_freq = clock_get_src_freq(p_config->src);
     d44:	788d      	ldrb	r5, [r1, #2]
     d46:	0028      	movs	r0, r5
     d48:	f7ff ffda 	bl	d00 <clock_get_src_freq>
D:\CQ9008\sample_codes\Release_example_240606\puf_template\debug/../sdk/platform/drivers/src/clock_tw9001.c:2731
    src_freq >>= 4U;
     d4c:	0900      	lsrs	r0, r0, #4
D:\CQ9008\sample_codes\Release_example_240606\puf_template\debug/../sdk/platform/drivers/src/clock_tw9001.c:2733
    switch (mode)
     d4e:	2c01      	cmp	r4, #1
     d50:	d003      	beq.n	d5a <clock_set_sys_clk_config+0x36>
     d52:	2c02      	cmp	r4, #2
     d54:	d022      	beq.n	d9c <clock_set_sys_clk_config+0x78>
DevAssert():
D:\CQ9008\sample_codes\Release_example_240606\puf_template\debug/../sdk/platform/devices/devassert.h:36
        BKPT_ASM;
     d56:	be00      	bkpt	0x0000
D:\CQ9008\sample_codes\Release_example_240606\puf_template\debug/../sdk/platform/devices/devassert.h:37
        for (;;)
     d58:	e7fe      	b.n	d58 <clock_set_sys_clk_config+0x34>
clock_set_sys_clk_config():
D:\CQ9008\sample_codes\Release_example_240606\puf_template\debug/../sdk/platform/drivers/src/clock_tw9001.c:2756
                                 (max_sys_clks_in_usb[(uint32_t)p_config->src][CORE_CLK_INDEX] >>
     d5a:	00eb      	lsls	r3, r5, #3
     d5c:	4a27      	ldr	r2, [pc, #156]	; (dfc <clock_set_sys_clk_config+0xd8>)
     d5e:	589b      	ldr	r3, [r3, r2]
     d60:	091b      	lsrs	r3, r3, #4
D:\CQ9008\sample_codes\Release_example_240606\puf_template\debug/../sdk/platform/drivers/src/clock_tw9001.c:2755
                if ((src_freq > (sys_freq_mul *
     d62:	435e      	muls	r6, r3
     d64:	4286      	cmp	r6, r0
     d66:	d33e      	bcc.n	de6 <clock_set_sys_clk_config+0xc2>
D:\CQ9008\sample_codes\Release_example_240606\puf_template\debug/../sdk/platform/drivers/src/clock_tw9001.c:2759
                                 (max_sys_clks_in_usb[(uint32_t)p_config->src][SLOW_CLK_INDEX] >>
     d68:	00ea      	lsls	r2, r5, #3
     d6a:	4b24      	ldr	r3, [pc, #144]	; (dfc <clock_set_sys_clk_config+0xd8>)
     d6c:	189b      	adds	r3, r3, r2
     d6e:	685b      	ldr	r3, [r3, #4]
     d70:	091b      	lsrs	r3, r3, #4
D:\CQ9008\sample_codes\Release_example_240606\puf_template\debug/../sdk/platform/drivers/src/clock_tw9001.c:2758
                    (src_freq > (slow_freq_mul *
     d72:	464a      	mov	r2, r9
     d74:	435a      	muls	r2, r3
D:\CQ9008\sample_codes\Release_example_240606\puf_template\debug/../sdk/platform/drivers/src/clock_tw9001.c:2757
                                  4U))) || /* Sys(core) clock */
     d76:	4282      	cmp	r2, r0
     d78:	d33a      	bcc.n	df0 <clock_set_sys_clk_config+0xcc>
scg_set_run_clk_control():
D:\CQ9008\sample_codes\Release_example_240606\puf_template\debug/../sdk/platform/drivers/inc/scg_access.h:95
        (uint32_t)(((source << SCG_RCCR_SCS_SHIFT) & SCG_RCCR_SCS_MASK) |
     d7a:	062d      	lsls	r5, r5, #24
     d7c:	23f0      	movs	r3, #240	; 0xf0
     d7e:	051b      	lsls	r3, r3, #20
     d80:	401d      	ands	r5, r3
D:\CQ9008\sample_codes\Release_example_240606\puf_template\debug/../sdk/platform/drivers/inc/scg_access.h:96
                   ((core_divider << SCG_RCCR_DIVCORE_SHIFT) & SCG_RCCR_DIVCORE_MASK) |
     d82:	4643      	mov	r3, r8
     d84:	041b      	lsls	r3, r3, #16
     d86:	22f0      	movs	r2, #240	; 0xf0
     d88:	0312      	lsls	r2, r2, #12
     d8a:	4013      	ands	r3, r2
D:\CQ9008\sample_codes\Release_example_240606\puf_template\debug/../sdk/platform/drivers/inc/scg_access.h:95
        (uint32_t)(((source << SCG_RCCR_SCS_SHIFT) & SCG_RCCR_SCS_MASK) |
     d8c:	432b      	orrs	r3, r5
D:\CQ9008\sample_codes\Release_example_240606\puf_template\debug/../sdk/platform/drivers/inc/scg_access.h:97
                   ((slow_divider << SCG_RCCR_DIVSLOW_SHIFT) & SCG_RCCR_DIVSLOW_MASK));
     d8e:	220f      	movs	r2, #15
     d90:	4017      	ands	r7, r2
D:\CQ9008\sample_codes\Release_example_240606\puf_template\debug/../sdk/platform/drivers/inc/scg_access.h:94
    uint32_t reg_val =
     d92:	431f      	orrs	r7, r3
D:\CQ9008\sample_codes\Release_example_240606\puf_template\debug/../sdk/platform/drivers/inc/scg_access.h:98
    p_base->RCCR = reg_val;
     d94:	4b1a      	ldr	r3, [pc, #104]	; (e00 <clock_set_sys_clk_config+0xdc>)
     d96:	615f      	str	r7, [r3, #20]
clock_set_sys_clk_config():
D:\CQ9008\sample_codes\Release_example_240606\puf_template\debug/../sdk/platform/drivers/src/clock_tw9001.c:2711
    status_t status   = STATUS_SUCCESS;
     d98:	2000      	movs	r0, #0
scg_set_run_clk_control():
D:\CQ9008\sample_codes\Release_example_240606\puf_template\debug/../sdk/platform/drivers/inc/scg_access.h:99
}
     d9a:	e025      	b.n	de8 <clock_set_sys_clk_config+0xc4>
DevAssert():
D:\CQ9008\sample_codes\Release_example_240606\puf_template\debug/../sdk/platform/devices/devassert.h:31
    if (x)
     d9c:	2d02      	cmp	r5, #2
     d9e:	d001      	beq.n	da4 <clock_set_sys_clk_config+0x80>
D:\CQ9008\sample_codes\Release_example_240606\puf_template\debug/../sdk/platform/devices/devassert.h:36
        BKPT_ASM;
     da0:	be00      	bkpt	0x0000
D:\CQ9008\sample_codes\Release_example_240606\puf_template\debug/../sdk/platform/devices/devassert.h:37
        for (;;)
     da2:	e7fe      	b.n	da2 <clock_set_sys_clk_config+0x7e>
clock_set_sys_clk_config():
D:\CQ9008\sample_codes\Release_example_240606\puf_template\debug/../sdk/platform/drivers/src/clock_tw9001.c:2781
                 (sys_freq_mul * (max_sys_clks_in_vlpr[(uint32_t)p_config->src][CORE_CLK_INDEX] >>
     da4:	00eb      	lsls	r3, r5, #3
     da6:	4a17      	ldr	r2, [pc, #92]	; (e04 <clock_set_sys_clk_config+0xe0>)
     da8:	589b      	ldr	r3, [r3, r2]
     daa:	091b      	lsrs	r3, r3, #4
     dac:	435e      	muls	r6, r3
D:\CQ9008\sample_codes\Release_example_240606\puf_template\debug/../sdk/platform/drivers/src/clock_tw9001.c:2780
            if ((src_freq >
     dae:	4286      	cmp	r6, r0
     db0:	d320      	bcc.n	df4 <clock_set_sys_clk_config+0xd0>
D:\CQ9008\sample_codes\Release_example_240606\puf_template\debug/../sdk/platform/drivers/src/clock_tw9001.c:2784
                 (slow_freq_mul * (max_sys_clks_in_vlpr[(uint32_t)p_config->src][SLOW_CLK_INDEX] >>
     db2:	00ea      	lsls	r2, r5, #3
     db4:	4b13      	ldr	r3, [pc, #76]	; (e04 <clock_set_sys_clk_config+0xe0>)
     db6:	189b      	adds	r3, r3, r2
     db8:	685b      	ldr	r3, [r3, #4]
     dba:	091b      	lsrs	r3, r3, #4
     dbc:	464a      	mov	r2, r9
     dbe:	435a      	muls	r2, r3
D:\CQ9008\sample_codes\Release_example_240606\puf_template\debug/../sdk/platform/drivers/src/clock_tw9001.c:2782
                                  4U))) || /* Sys(core) clock */
     dc0:	4282      	cmp	r2, r0
     dc2:	d319      	bcc.n	df8 <clock_set_sys_clk_config+0xd4>
scg_set_vlpr_clk_control():
D:\CQ9008\sample_codes\Release_example_240606\puf_template\debug/../sdk/platform/drivers/inc/scg_access.h:116
        (uint32_t)(((source << SCG_VCCR_SCS_SHIFT) & SCG_VCCR_SCS_MASK) |
     dc4:	062d      	lsls	r5, r5, #24
     dc6:	23f0      	movs	r3, #240	; 0xf0
     dc8:	051b      	lsls	r3, r3, #20
     dca:	401d      	ands	r5, r3
D:\CQ9008\sample_codes\Release_example_240606\puf_template\debug/../sdk/platform/drivers/inc/scg_access.h:117
                   ((core_divider << SCG_VCCR_DIVCORE_SHIFT) & SCG_VCCR_DIVCORE_MASK) |
     dcc:	4643      	mov	r3, r8
     dce:	041b      	lsls	r3, r3, #16
     dd0:	22f0      	movs	r2, #240	; 0xf0
     dd2:	0312      	lsls	r2, r2, #12
     dd4:	4013      	ands	r3, r2
D:\CQ9008\sample_codes\Release_example_240606\puf_template\debug/../sdk/platform/drivers/inc/scg_access.h:116
        (uint32_t)(((source << SCG_VCCR_SCS_SHIFT) & SCG_VCCR_SCS_MASK) |
     dd6:	432b      	orrs	r3, r5
D:\CQ9008\sample_codes\Release_example_240606\puf_template\debug/../sdk/platform/drivers/inc/scg_access.h:118
                   ((slow_divider << SCG_VCCR_DIVSLOW_SHIFT) & SCG_VCCR_DIVSLOW_MASK));
     dd8:	220f      	movs	r2, #15
     dda:	4017      	ands	r7, r2
D:\CQ9008\sample_codes\Release_example_240606\puf_template\debug/../sdk/platform/drivers/inc/scg_access.h:115
    uint32_t reg_val =
     ddc:	433b      	orrs	r3, r7
D:\CQ9008\sample_codes\Release_example_240606\puf_template\debug/../sdk/platform/drivers/inc/scg_access.h:120
    p_base->VCCR = reg_val;
     dde:	4a08      	ldr	r2, [pc, #32]	; (e00 <clock_set_sys_clk_config+0xdc>)
     de0:	6193      	str	r3, [r2, #24]
clock_set_sys_clk_config():
D:\CQ9008\sample_codes\Release_example_240606\puf_template\debug/../sdk/platform/drivers/src/clock_tw9001.c:2711
    status_t status   = STATUS_SUCCESS;
     de2:	2000      	movs	r0, #0
scg_set_vlpr_clk_control():
D:\CQ9008\sample_codes\Release_example_240606\puf_template\debug/../sdk/platform/drivers/inc/scg_access.h:121
}
     de4:	e000      	b.n	de8 <clock_set_sys_clk_config+0xc4>
clock_set_sys_clk_config():
D:\CQ9008\sample_codes\Release_example_240606\puf_template\debug/../sdk/platform/drivers/src/clock_tw9001.c:2763
                    status = STATUS_ERROR;
     de6:	2001      	movs	r0, #1
D:\CQ9008\sample_codes\Release_example_240606\puf_template\debug/../sdk/platform/drivers/src/clock_tw9001.c:2807
}
     de8:	bcc0      	pop	{r6, r7}
     dea:	46b9      	mov	r9, r7
     dec:	46b0      	mov	r8, r6
     dee:	bdf8      	pop	{r3, r4, r5, r6, r7, pc}
D:\CQ9008\sample_codes\Release_example_240606\puf_template\debug/../sdk/platform/drivers/src/clock_tw9001.c:2763
                    status = STATUS_ERROR;
     df0:	2001      	movs	r0, #1
     df2:	e7f9      	b.n	de8 <clock_set_sys_clk_config+0xc4>
D:\CQ9008\sample_codes\Release_example_240606\puf_template\debug/../sdk/platform/drivers/src/clock_tw9001.c:2788
                status = STATUS_ERROR;
     df4:	2001      	movs	r0, #1
     df6:	e7f7      	b.n	de8 <clock_set_sys_clk_config+0xc4>
     df8:	2001      	movs	r0, #1
     dfa:	e7f5      	b.n	de8 <clock_set_sys_clk_config+0xc4>
     dfc:	00006320 	.word	0x00006320
     e00:	40064000 	.word	0x40064000
     e04:	00006358 	.word	0x00006358

00000e08 <clock_transition_system_clcok>:
clock_transition_system_clcok():
D:\CQ9008\sample_codes\Release_example_240606\puf_template\debug/../sdk/platform/drivers/src/clock_tw9001.c:2101
{
     e08:	b510      	push	{r4, lr}
     e0a:	1e04      	subs	r4, r0, #0
DevAssert():
D:\CQ9008\sample_codes\Release_example_240606\puf_template\debug/../sdk/platform/devices/devassert.h:31
    if (x)
     e0c:	d101      	bne.n	e12 <clock_transition_system_clcok+0xa>
D:\CQ9008\sample_codes\Release_example_240606\puf_template\debug/../sdk/platform/devices/devassert.h:36
        BKPT_ASM;
     e0e:	be00      	bkpt	0x0000
D:\CQ9008\sample_codes\Release_example_240606\puf_template\debug/../sdk/platform/devices/devassert.h:37
        for (;;)
     e10:	e7fe      	b.n	e10 <clock_transition_system_clcok+0x8>
clock_transition_system_clcok():
D:\CQ9008\sample_codes\Release_example_240606\puf_template\debug/../sdk/platform/drivers/src/clock_tw9001.c:2108
    DEV_ASSERT(p_to_clk->src != SCG_SYSTEM_CLOCK_SRC_NONE);
     e12:	7883      	ldrb	r3, [r0, #2]
DevAssert():
D:\CQ9008\sample_codes\Release_example_240606\puf_template\debug/../sdk/platform/devices/devassert.h:31
    if (x)
     e14:	2bff      	cmp	r3, #255	; 0xff
     e16:	d101      	bne.n	e1c <clock_transition_system_clcok+0x14>
D:\CQ9008\sample_codes\Release_example_240606\puf_template\debug/../sdk/platform/devices/devassert.h:36
        BKPT_ASM;
     e18:	be00      	bkpt	0x0000
D:\CQ9008\sample_codes\Release_example_240606\puf_template\debug/../sdk/platform/devices/devassert.h:37
        for (;;)
     e1a:	e7fe      	b.n	e1a <clock_transition_system_clcok+0x12>
clock_transition_system_clcok():
D:\CQ9008\sample_codes\Release_example_240606\puf_template\debug/../sdk/platform/drivers/src/clock_tw9001.c:2111
    run_mode = clock_get_current_run_mode();
     e1c:	f7ff febe 	bl	b9c <clock_get_current_run_mode>
DevAssert():
D:\CQ9008\sample_codes\Release_example_240606\puf_template\debug/../sdk/platform/devices/devassert.h:31
    if (x)
     e20:	2804      	cmp	r0, #4
     e22:	d101      	bne.n	e28 <clock_transition_system_clcok+0x20>
D:\CQ9008\sample_codes\Release_example_240606\puf_template\debug/../sdk/platform/devices/devassert.h:36
        BKPT_ASM;
     e24:	be00      	bkpt	0x0000
D:\CQ9008\sample_codes\Release_example_240606\puf_template\debug/../sdk/platform/devices/devassert.h:37
        for (;;)
     e26:	e7fe      	b.n	e26 <clock_transition_system_clcok+0x1e>
clock_transition_system_clcok():
D:\CQ9008\sample_codes\Release_example_240606\puf_template\debug/../sdk/platform/drivers/src/clock_tw9001.c:2117
    ret_value = clock_set_sys_clk_config(run_mode, p_to_clk);
     e28:	0021      	movs	r1, r4
     e2a:	f7ff ff7b 	bl	d24 <clock_set_sys_clk_config>
D:\CQ9008\sample_codes\Release_example_240606\puf_template\debug/../sdk/platform/drivers/src/clock_tw9001.c:2119
    if (ret_value == STATUS_SUCCESS)
     e2e:	2800      	cmp	r0, #0
     e30:	d10d      	bne.n	e4e <clock_transition_system_clcok+0x46>
D:\CQ9008\sample_codes\Release_example_240606\puf_template\debug/../sdk/platform/drivers/src/clock_tw9001.c:2122
        timeout = 10U;
     e32:	210a      	movs	r1, #10
D:\CQ9008\sample_codes\Release_example_240606\puf_template\debug/../sdk/platform/drivers/src/clock_tw9001.c:2126 (discriminator 2)
            timeout--;
     e34:	3901      	subs	r1, #1
scg_get_system_clk_source():
D:\CQ9008\sample_codes\Release_example_240606\puf_template\debug/../sdk/platform/drivers/inc/scg_access.h:49 (discriminator 2)
    return ((p_base->CSR & SCG_CSR_SCS_MASK) >> SCG_CSR_SCS_SHIFT);
     e36:	4b07      	ldr	r3, [pc, #28]	; (e54 <clock_transition_system_clcok+0x4c>)
     e38:	691a      	ldr	r2, [r3, #16]
     e3a:	0e12      	lsrs	r2, r2, #24
     e3c:	230f      	movs	r3, #15
     e3e:	4013      	ands	r3, r2
clock_transition_system_clcok():
D:\CQ9008\sample_codes\Release_example_240606\puf_template\debug/../sdk/platform/drivers/src/clock_tw9001.c:2127 (discriminator 2)
        } while ((scg_get_system_clk_source(SCG) != ((uint32_t)p_to_clk->src)) && (timeout > 0U));
     e40:	78a2      	ldrb	r2, [r4, #2]
     e42:	429a      	cmp	r2, r3
     e44:	d001      	beq.n	e4a <clock_transition_system_clcok+0x42>
D:\CQ9008\sample_codes\Release_example_240606\puf_template\debug/../sdk/platform/drivers/src/clock_tw9001.c:2127 (discriminator 1)
     e46:	2900      	cmp	r1, #0
     e48:	d1f4      	bne.n	e34 <clock_transition_system_clcok+0x2c>
D:\CQ9008\sample_codes\Release_example_240606\puf_template\debug/../sdk/platform/drivers/src/clock_tw9001.c:2129
        if (timeout == 0U)
     e4a:	2900      	cmp	r1, #0
     e4c:	d000      	beq.n	e50 <clock_transition_system_clcok+0x48>
D:\CQ9008\sample_codes\Release_example_240606\puf_template\debug/../sdk/platform/drivers/src/clock_tw9001.c:2136
}
     e4e:	bd10      	pop	{r4, pc}
D:\CQ9008\sample_codes\Release_example_240606\puf_template\debug/../sdk/platform/drivers/src/clock_tw9001.c:2131
            ret_value = STATUS_TIMEOUT;
     e50:	2003      	movs	r0, #3
     e52:	e7fc      	b.n	e4e <clock_transition_system_clcok+0x46>
     e54:	40064000 	.word	0x40064000

00000e58 <clock_configure_modules_from_scg>:
clock_configure_modules_from_scg():
D:\CQ9008\sample_codes\Release_example_240606\puf_template\debug/../sdk/platform/drivers/src/clock_tw9001.c:2497
{
     e58:	b570      	push	{r4, r5, r6, lr}
     e5a:	b082      	sub	sp, #8
     e5c:	0005      	movs	r5, r0
D:\CQ9008\sample_codes\Release_example_240606\puf_template\debug/../sdk/platform/drivers/src/clock_tw9001.c:2507
        clock_configure_sirc(p_scg_config->sirc_config.b_initialize, &p_scg_config->sirc_config);
     e5e:	7880      	ldrb	r0, [r0, #2]
     e60:	0029      	movs	r1, r5
     e62:	f7ff fef1 	bl	c48 <clock_configure_sirc>
     e66:	1e04      	subs	r4, r0, #0
D:\CQ9008\sample_codes\Release_example_240606\puf_template\debug/../sdk/platform/drivers/src/clock_tw9001.c:2508
    if (status == STATUS_SUCCESS)
     e68:	d007      	beq.n	e7a <clock_configure_modules_from_scg+0x22>
D:\CQ9008\sample_codes\Release_example_240606\puf_template\debug/../sdk/platform/drivers/src/clock_tw9001.c:2515
    switch (clock_get_current_run_mode())
     e6a:	f7ff fe97 	bl	b9c <clock_get_current_run_mode>
     e6e:	2801      	cmp	r0, #1
     e70:	d00a      	beq.n	e88 <clock_configure_modules_from_scg+0x30>
     e72:	2802      	cmp	r0, #2
     e74:	d01d      	beq.n	eb2 <clock_configure_modules_from_scg+0x5a>
DevAssert():
D:\CQ9008\sample_codes\Release_example_240606\puf_template\debug/../sdk/platform/devices/devassert.h:36
        BKPT_ASM;
     e76:	be00      	bkpt	0x0000
D:\CQ9008\sample_codes\Release_example_240606\puf_template\debug/../sdk/platform/devices/devassert.h:37
        for (;;)
     e78:	e7fe      	b.n	e78 <clock_configure_modules_from_scg+0x20>
clock_configure_modules_from_scg():
D:\CQ9008\sample_codes\Release_example_240606\puf_template\debug/../sdk/platform/drivers/src/clock_tw9001.c:2510
        status = clock_configure_sosc(p_scg_config->sosc_config.b_initialize,
     e7a:	0029      	movs	r1, r5
     e7c:	3108      	adds	r1, #8
     e7e:	7ba8      	ldrb	r0, [r5, #14]
     e80:	f7ff fea6 	bl	bd0 <clock_configure_sosc>
     e84:	0004      	movs	r4, r0
     e86:	e7f0      	b.n	e6a <clock_configure_modules_from_scg+0x12>
D:\CQ9008\sample_codes\Release_example_240606\puf_template\debug/../sdk/platform/drivers/src/clock_tw9001.c:2519
            p_next_sys_clock_config = &p_scg_config->clock_mode_config.rccr_config;
     e88:	002e      	movs	r6, r5
     e8a:	361e      	adds	r6, #30
D:\CQ9008\sample_codes\Release_example_240606\puf_template\debug/../sdk/platform/drivers/src/clock_tw9001.c:2535
    if (status == STATUS_SUCCESS)
     e8c:	2c00      	cmp	r4, #0
     e8e:	d10d      	bne.n	eac <clock_configure_modules_from_scg+0x54>
D:\CQ9008\sample_codes\Release_example_240606\puf_template\debug/../sdk/platform/drivers/src/clock_tw9001.c:2539
        if (p_next_sys_clock_config->src == SCG_SYSTEM_CLOCK_SRC_FIRC)
     e90:	78b3      	ldrb	r3, [r6, #2]
     e92:	2b03      	cmp	r3, #3
     e94:	d136      	bne.n	f04 <clock_configure_modules_from_scg+0xac>
D:\CQ9008\sample_codes\Release_example_240606\puf_template\debug/../sdk/platform/drivers/src/clock_tw9001.c:2548
            if (p_scg_config->sosc_config.b_initialize && (status == STATUS_ERROR))
     e96:	7bab      	ldrb	r3, [r5, #14]
     e98:	2b00      	cmp	r3, #0
     e9a:	d10d      	bne.n	eb8 <clock_configure_modules_from_scg+0x60>
D:\CQ9008\sample_codes\Release_example_240606\puf_template\debug/../sdk/platform/drivers/src/clock_tw9001.c:2544
            status = STATUS_ERROR;
     e9c:	2401      	movs	r4, #1
D:\CQ9008\sample_codes\Release_example_240606\puf_template\debug/../sdk/platform/drivers/src/clock_tw9001.c:2558
            if (p_scg_config->sirc_config.b_initialize && (status == STATUS_ERROR))
     e9e:	78ab      	ldrb	r3, [r5, #2]
     ea0:	2b00      	cmp	r3, #0
     ea2:	d001      	beq.n	ea8 <clock_configure_modules_from_scg+0x50>
D:\CQ9008\sample_codes\Release_example_240606\puf_template\debug/../sdk/platform/drivers/src/clock_tw9001.c:2558 (discriminator 1)
     ea4:	2c01      	cmp	r4, #1
     ea6:	d011      	beq.n	ecc <clock_configure_modules_from_scg+0x74>
D:\CQ9008\sample_codes\Release_example_240606\puf_template\debug/../sdk/platform/drivers/src/clock_tw9001.c:2567
            if (status == STATUS_SUCCESS)
     ea8:	2c00      	cmp	r4, #0
     eaa:	d01a      	beq.n	ee2 <clock_configure_modules_from_scg+0x8a>
D:\CQ9008\sample_codes\Release_example_240606\puf_template\debug/../sdk/platform/drivers/src/clock_tw9001.c:2600
}
     eac:	0020      	movs	r0, r4
     eae:	b002      	add	sp, #8
     eb0:	bd70      	pop	{r4, r5, r6, pc}
D:\CQ9008\sample_codes\Release_example_240606\puf_template\debug/../sdk/platform/drivers/src/clock_tw9001.c:2524
            p_next_sys_clock_config = &p_scg_config->clock_mode_config.vccr_config;
     eb2:	002e      	movs	r6, r5
     eb4:	3621      	adds	r6, #33	; 0x21
D:\CQ9008\sample_codes\Release_example_240606\puf_template\debug/../sdk/platform/drivers/src/clock_tw9001.c:2526
        break;
     eb6:	e7e9      	b.n	e8c <clock_configure_modules_from_scg+0x34>
D:\CQ9008\sample_codes\Release_example_240606\puf_template\debug/../sdk/platform/drivers/src/clock_tw9001.c:2550
                sys_clock_config.src      = SCG_SYSTEM_CLOCK_SRC_SYS_OSC;
     eb8:	a801      	add	r0, sp, #4
     eba:	2301      	movs	r3, #1
     ebc:	7083      	strb	r3, [r0, #2]
D:\CQ9008\sample_codes\Release_example_240606\puf_template\debug/../sdk/platform/drivers/src/clock_tw9001.c:2551
                sys_clock_config.div_core = tmpSysClk[TMP_SOSC_CLK][TMP_SYS_DIV];
     ebe:	2200      	movs	r2, #0
     ec0:	7042      	strb	r2, [r0, #1]
D:\CQ9008\sample_codes\Release_example_240606\puf_template\debug/../sdk/platform/drivers/src/clock_tw9001.c:2552
                sys_clock_config.div_slow = tmpSysClk[TMP_SOSC_CLK][TMP_SLOW_DIV];
     ec2:	7003      	strb	r3, [r0, #0]
D:\CQ9008\sample_codes\Release_example_240606\puf_template\debug/../sdk/platform/drivers/src/clock_tw9001.c:2553
                status                    = clock_transition_system_clcok(&sys_clock_config);
     ec4:	f7ff ffa0 	bl	e08 <clock_transition_system_clcok>
     ec8:	0004      	movs	r4, r0
     eca:	e7e8      	b.n	e9e <clock_configure_modules_from_scg+0x46>
D:\CQ9008\sample_codes\Release_example_240606\puf_template\debug/../sdk/platform/drivers/src/clock_tw9001.c:2560
                sys_clock_config.src      = SCG_SYSTEM_CLOCK_SRC_SIRC;
     ecc:	a801      	add	r0, sp, #4
     ece:	2302      	movs	r3, #2
     ed0:	7083      	strb	r3, [r0, #2]
D:\CQ9008\sample_codes\Release_example_240606\puf_template\debug/../sdk/platform/drivers/src/clock_tw9001.c:2561
                sys_clock_config.div_core = tmpSysClk[TMP_SIRC_CLK][TMP_SYS_DIV];
     ed2:	2300      	movs	r3, #0
     ed4:	7043      	strb	r3, [r0, #1]
D:\CQ9008\sample_codes\Release_example_240606\puf_template\debug/../sdk/platform/drivers/src/clock_tw9001.c:2562
                sys_clock_config.div_slow = tmpSysClk[TMP_SIRC_CLK][TMP_SLOW_DIV];
     ed6:	3301      	adds	r3, #1
     ed8:	7003      	strb	r3, [r0, #0]
D:\CQ9008\sample_codes\Release_example_240606\puf_template\debug/../sdk/platform/drivers/src/clock_tw9001.c:2563
                status                    = clock_transition_system_clcok(&sys_clock_config);
     eda:	f7ff ff95 	bl	e08 <clock_transition_system_clcok>
     ede:	0004      	movs	r4, r0
     ee0:	e7e2      	b.n	ea8 <clock_configure_modules_from_scg+0x50>
D:\CQ9008\sample_codes\Release_example_240606\puf_template\debug/../sdk/platform/drivers/src/clock_tw9001.c:2570
                status = clock_configure_firc(p_scg_config->firc_config.b_initialize,
     ee2:	1ce9      	adds	r1, r5, #3
     ee4:	7968      	ldrb	r0, [r5, #5]
     ee6:	f7ff fedf 	bl	ca8 <clock_configure_firc>
     eea:	1e04      	subs	r4, r0, #0
D:\CQ9008\sample_codes\Release_example_240606\puf_template\debug/../sdk/platform/drivers/src/clock_tw9001.c:2573
                if (status == STATUS_SUCCESS)
     eec:	d1de      	bne.n	eac <clock_configure_modules_from_scg+0x54>
D:\CQ9008\sample_codes\Release_example_240606\puf_template\debug/../sdk/platform/drivers/src/clock_tw9001.c:2576
                    sys_clock_config.src      = p_next_sys_clock_config->src;
     eee:	78b3      	ldrb	r3, [r6, #2]
     ef0:	a801      	add	r0, sp, #4
     ef2:	7083      	strb	r3, [r0, #2]
D:\CQ9008\sample_codes\Release_example_240606\puf_template\debug/../sdk/platform/drivers/src/clock_tw9001.c:2577
                    sys_clock_config.div_core = p_next_sys_clock_config->div_core;
     ef4:	7873      	ldrb	r3, [r6, #1]
     ef6:	7043      	strb	r3, [r0, #1]
D:\CQ9008\sample_codes\Release_example_240606\puf_template\debug/../sdk/platform/drivers/src/clock_tw9001.c:2578
                    sys_clock_config.div_slow = p_next_sys_clock_config->div_slow;
     ef8:	7833      	ldrb	r3, [r6, #0]
     efa:	7003      	strb	r3, [r0, #0]
D:\CQ9008\sample_codes\Release_example_240606\puf_template\debug/../sdk/platform/drivers/src/clock_tw9001.c:2579
                    status                    = clock_transition_system_clcok(&sys_clock_config);
     efc:	f7ff ff84 	bl	e08 <clock_transition_system_clcok>
     f00:	0004      	movs	r4, r0
     f02:	e7d3      	b.n	eac <clock_configure_modules_from_scg+0x54>
D:\CQ9008\sample_codes\Release_example_240606\puf_template\debug/../sdk/platform/drivers/src/clock_tw9001.c:2585
            sys_clock_config.src      = p_next_sys_clock_config->src;
     f04:	a801      	add	r0, sp, #4
     f06:	7083      	strb	r3, [r0, #2]
D:\CQ9008\sample_codes\Release_example_240606\puf_template\debug/../sdk/platform/drivers/src/clock_tw9001.c:2586
            sys_clock_config.div_core = p_next_sys_clock_config->div_core;
     f08:	7873      	ldrb	r3, [r6, #1]
     f0a:	7043      	strb	r3, [r0, #1]
D:\CQ9008\sample_codes\Release_example_240606\puf_template\debug/../sdk/platform/drivers/src/clock_tw9001.c:2587
            sys_clock_config.div_slow = p_next_sys_clock_config->div_slow;
     f0c:	7833      	ldrb	r3, [r6, #0]
     f0e:	7003      	strb	r3, [r0, #0]
D:\CQ9008\sample_codes\Release_example_240606\puf_template\debug/../sdk/platform/drivers/src/clock_tw9001.c:2588
            status                    = clock_transition_system_clcok(&sys_clock_config);
     f10:	f7ff ff7a 	bl	e08 <clock_transition_system_clcok>
     f14:	1e04      	subs	r4, r0, #0
D:\CQ9008\sample_codes\Release_example_240606\puf_template\debug/../sdk/platform/drivers/src/clock_tw9001.c:2590
            if (status == STATUS_SUCCESS)
     f16:	d1c9      	bne.n	eac <clock_configure_modules_from_scg+0x54>
D:\CQ9008\sample_codes\Release_example_240606\puf_template\debug/../sdk/platform/drivers/src/clock_tw9001.c:2593
                status = clock_configure_firc(p_scg_config->firc_config.b_initialize,
     f18:	1ce9      	adds	r1, r5, #3
     f1a:	7968      	ldrb	r0, [r5, #5]
     f1c:	f7ff fec4 	bl	ca8 <clock_configure_firc>
     f20:	0004      	movs	r4, r0
     f22:	e7c3      	b.n	eac <clock_configure_modules_from_scg+0x54>

00000f24 <clock_configure_tmp_sys_clk>:
clock_configure_tmp_sys_clk():
D:\CQ9008\sample_codes\Release_example_240606\puf_template\debug/../sdk/platform/drivers/src/clock_tw9001.c:2459
{
     f24:	b500      	push	{lr}
     f26:	b083      	sub	sp, #12
scg_get_system_clk_source():
D:\CQ9008\sample_codes\Release_example_240606\puf_template\debug/../sdk/platform/drivers/inc/scg_access.h:49
     f28:	4b0e      	ldr	r3, [pc, #56]	; (f64 <clock_configure_tmp_sys_clk+0x40>)
     f2a:	691a      	ldr	r2, [r3, #16]
     f2c:	0e12      	lsrs	r2, r2, #24
     f2e:	230f      	movs	r3, #15
     f30:	4013      	ands	r3, r2
clock_configure_tmp_sys_clk():
D:\CQ9008\sample_codes\Release_example_240606\puf_template\debug/../sdk/platform/drivers/src/clock_tw9001.c:2469
    if (scg_get_system_clk_source(SCG) != ((uint32_t)SCG_SYSTEM_CLOCK_SRC_FIRC))
     f32:	2b03      	cmp	r3, #3
     f34:	d013      	beq.n	f5e <clock_configure_tmp_sys_clk+0x3a>
D:\CQ9008\sample_codes\Release_example_240606\puf_template\debug/../sdk/platform/drivers/src/clock_tw9001.c:2473
        if (clock_get_firc_freq() == 0UL)
     f36:	f7ff feb3 	bl	ca0 <clock_get_firc_freq>
     f3a:	2800      	cmp	r0, #0
     f3c:	d105      	bne.n	f4a <clock_configure_tmp_sys_clk+0x26>
D:\CQ9008\sample_codes\Release_example_240606\puf_template\debug/../sdk/platform/drivers/src/clock_tw9001.c:2475
            status = clock_configure_firc(true, NULL);
     f3e:	2100      	movs	r1, #0
     f40:	3001      	adds	r0, #1
     f42:	f7ff feb1 	bl	ca8 <clock_configure_firc>
D:\CQ9008\sample_codes\Release_example_240606\puf_template\debug/../sdk/platform/drivers/src/clock_tw9001.c:2479
        if (status == STATUS_SUCCESS)
     f46:	2800      	cmp	r0, #0
     f48:	d107      	bne.n	f5a <clock_configure_tmp_sys_clk+0x36>
D:\CQ9008\sample_codes\Release_example_240606\puf_template\debug/../sdk/platform/drivers/src/clock_tw9001.c:2481
            sys_clock_config.src      = SCG_SYSTEM_CLOCK_SRC_FIRC;
     f4a:	a801      	add	r0, sp, #4
     f4c:	2303      	movs	r3, #3
     f4e:	7083      	strb	r3, [r0, #2]
D:\CQ9008\sample_codes\Release_example_240606\puf_template\debug/../sdk/platform/drivers/src/clock_tw9001.c:2482
            sys_clock_config.div_core = tmpSysClk[TMP_FIRC_CLK][TMP_SYS_DIV];
     f50:	2200      	movs	r2, #0
     f52:	7042      	strb	r2, [r0, #1]
D:\CQ9008\sample_codes\Release_example_240606\puf_template\debug/../sdk/platform/drivers/src/clock_tw9001.c:2483
            sys_clock_config.div_slow = tmpSysClk[TMP_FIRC_CLK][TMP_SLOW_DIV];
     f54:	7003      	strb	r3, [r0, #0]
D:\CQ9008\sample_codes\Release_example_240606\puf_template\debug/../sdk/platform/drivers/src/clock_tw9001.c:2484
            status                    = clock_transition_system_clcok(&sys_clock_config);
     f56:	f7ff ff57 	bl	e08 <clock_transition_system_clcok>
D:\CQ9008\sample_codes\Release_example_240606\puf_template\debug/../sdk/platform/drivers/src/clock_tw9001.c:2489
}
     f5a:	b003      	add	sp, #12
     f5c:	bd00      	pop	{pc}
D:\CQ9008\sample_codes\Release_example_240606\puf_template\debug/../sdk/platform/drivers/src/clock_tw9001.c:2460
    status_t                            status = STATUS_SUCCESS;
     f5e:	2000      	movs	r0, #0
     f60:	e7fb      	b.n	f5a <clock_configure_tmp_sys_clk+0x36>
     f62:	46c0      	nop			; (mov r8, r8)
     f64:	40064000 	.word	0x40064000

00000f68 <clock_set_scg_config>:
clock_set_scg_config():
D:\CQ9008\sample_codes\Release_example_240606\puf_template\debug/../sdk/platform/drivers/src/clock_tw9001.c:908
{
     f68:	b570      	push	{r4, r5, r6, lr}
     f6a:	1e04      	subs	r4, r0, #0
DevAssert():
D:\CQ9008\sample_codes\Release_example_240606\puf_template\debug/../sdk/platform/devices/devassert.h:31
    if (x)
     f6c:	d101      	bne.n	f72 <clock_set_scg_config+0xa>
D:\CQ9008\sample_codes\Release_example_240606\puf_template\debug/../sdk/platform/devices/devassert.h:36
        BKPT_ASM;
     f6e:	be00      	bkpt	0x0000
D:\CQ9008\sample_codes\Release_example_240606\puf_template\debug/../sdk/platform/devices/devassert.h:37
        for (;;)
     f70:	e7fe      	b.n	f70 <clock_set_scg_config+0x8>
clock_set_scg_config():
D:\CQ9008\sample_codes\Release_example_240606\puf_template\debug/../sdk/platform/drivers/src/clock_tw9001.c:912
    if (p_scg_config != NULL)
     f72:	2800      	cmp	r0, #0
     f74:	d031      	beq.n	fda <clock_set_scg_config+0x72>
D:\CQ9008\sample_codes\Release_example_240606\puf_template\debug/../sdk/platform/drivers/src/clock_tw9001.c:915
        status = clock_configure_tmp_sys_clk();
     f76:	f7ff ffd5 	bl	f24 <clock_configure_tmp_sys_clk>
D:\CQ9008\sample_codes\Release_example_240606\puf_template\debug/../sdk/platform/drivers/src/clock_tw9001.c:917
        if (status == STATUS_SUCCESS)
     f7a:	2800      	cmp	r0, #0
     f7c:	d029      	beq.n	fd2 <clock_set_scg_config+0x6a>
D:\CQ9008\sample_codes\Release_example_240606\puf_template\debug/../sdk/platform/drivers/src/clock_tw9001.c:923
        if (status == STATUS_SUCCESS)
     f7e:	2800      	cmp	r0, #0
     f80:	d12c      	bne.n	fdc <clock_set_scg_config+0x74>
D:\CQ9008\sample_codes\Release_example_240606\puf_template\debug/../sdk/platform/drivers/src/clock_tw9001.c:925
            g_rtc_clk_in_freq = 0U; /* reset the value RTC_clk frequency. */
     f82:	4b17      	ldr	r3, [pc, #92]	; (fe0 <clock_set_scg_config+0x78>)
     f84:	2200      	movs	r2, #0
     f86:	601a      	str	r2, [r3, #0]
D:\CQ9008\sample_codes\Release_example_240606\puf_template\debug/../sdk/platform/drivers/src/clock_tw9001.c:926
            if (p_scg_config->rtc_config.b_initialize)
     f88:	7e23      	ldrb	r3, [r4, #24]
     f8a:	2b00      	cmp	r3, #0
     f8c:	d002      	beq.n	f94 <clock_set_scg_config+0x2c>
D:\CQ9008\sample_codes\Release_example_240606\puf_template\debug/../sdk/platform/drivers/src/clock_tw9001.c:929
                g_rtc_clk_in_freq = p_scg_config->rtc_config.rtc_clk_in_freq;
     f8e:	4b14      	ldr	r3, [pc, #80]	; (fe0 <clock_set_scg_config+0x78>)
     f90:	6962      	ldr	r2, [r4, #20]
     f92:	601a      	str	r2, [r3, #0]
D:\CQ9008\sample_codes\Release_example_240606\puf_template\debug/../sdk/platform/drivers/src/clock_tw9001.c:933
            if (p_scg_config->clock_out_config.b_initialize)
     f94:	7f63      	ldrb	r3, [r4, #29]
     f96:	2b00      	cmp	r3, #0
     f98:	d00a      	beq.n	fb0 <clock_set_scg_config+0x48>
D:\CQ9008\sample_codes\Release_example_240606\puf_template\debug/../sdk/platform/drivers/src/clock_tw9001.c:936
                scg_set_clockout_source_sel(SCG, (uint32_t)p_scg_config->clock_out_config.source);
     f9a:	7f22      	ldrb	r2, [r4, #28]
scg_set_clockout_source_sel():
D:\CQ9008\sample_codes\Release_example_240606\puf_template\debug/../sdk/platform/drivers/inc/scg_access.h:274
static inline void
scg_set_clockout_source_sel(SCG_t *p_base, uint32_t source)
{
    uint32_t reg_val;

    reg_val = p_base->CLKOUTCNFG;
     f9c:	4911      	ldr	r1, [pc, #68]	; (fe4 <clock_set_scg_config+0x7c>)
     f9e:	6a0b      	ldr	r3, [r1, #32]
D:\CQ9008\sample_codes\Release_example_240606\puf_template\debug/../sdk/platform/drivers/inc/scg_access.h:275
    reg_val &= ~(SCG_CLKOUTCNFG_CLKOUTSEL_MASK);
     fa0:	4d11      	ldr	r5, [pc, #68]	; (fe8 <clock_set_scg_config+0x80>)
     fa2:	402b      	ands	r3, r5
D:\CQ9008\sample_codes\Release_example_240606\puf_template\debug/../sdk/platform/drivers/inc/scg_access.h:276
    reg_val |= SCG_CLKOUTCNFG_CLKOUTSEL(source);
     fa4:	0612      	lsls	r2, r2, #24
     fa6:	25f0      	movs	r5, #240	; 0xf0
     fa8:	052d      	lsls	r5, r5, #20
     faa:	402a      	ands	r2, r5
     fac:	4313      	orrs	r3, r2
D:\CQ9008\sample_codes\Release_example_240606\puf_template\debug/../sdk/platform/drivers/inc/scg_access.h:277
    p_base->CLKOUTCNFG = reg_val;
     fae:	620b      	str	r3, [r1, #32]
clock_set_scg_config():
D:\CQ9008\sample_codes\Release_example_240606\puf_template\debug/../sdk/platform/drivers/src/clock_tw9001.c:940
            if (p_scg_config->clock_mode_config.b_initialize)
     fb0:	2328      	movs	r3, #40	; 0x28
     fb2:	5ce3      	ldrb	r3, [r4, r3]
     fb4:	2b00      	cmp	r3, #0
     fb6:	d011      	beq.n	fdc <clock_set_scg_config+0x74>
D:\CQ9008\sample_codes\Release_example_240606\puf_template\debug/../sdk/platform/drivers/src/clock_tw9001.c:943
                status = clock_set_sys_clk_config(SCG_SYSTEM_CLOCK_MODE_RUN,
     fb8:	0021      	movs	r1, r4
     fba:	311e      	adds	r1, #30
     fbc:	2001      	movs	r0, #1
     fbe:	f7ff feb1 	bl	d24 <clock_set_sys_clk_config>
D:\CQ9008\sample_codes\Release_example_240606\puf_template\debug/../sdk/platform/drivers/src/clock_tw9001.c:945
                if (status == STATUS_SUCCESS)
     fc2:	2800      	cmp	r0, #0
     fc4:	d10a      	bne.n	fdc <clock_set_scg_config+0x74>
D:\CQ9008\sample_codes\Release_example_240606\puf_template\debug/../sdk/platform/drivers/src/clock_tw9001.c:947
                    status = clock_set_sys_clk_config(
     fc6:	0021      	movs	r1, r4
     fc8:	3121      	adds	r1, #33	; 0x21
     fca:	3002      	adds	r0, #2
     fcc:	f7ff feaa 	bl	d24 <clock_set_sys_clk_config>
     fd0:	e004      	b.n	fdc <clock_set_scg_config+0x74>
D:\CQ9008\sample_codes\Release_example_240606\puf_template\debug/../sdk/platform/drivers/src/clock_tw9001.c:920
            status = clock_configure_modules_from_scg(p_scg_config);
     fd2:	0020      	movs	r0, r4
     fd4:	f7ff ff40 	bl	e58 <clock_configure_modules_from_scg>
     fd8:	e7d1      	b.n	f7e <clock_set_scg_config+0x16>
D:\CQ9008\sample_codes\Release_example_240606\puf_template\debug/../sdk/platform/drivers/src/clock_tw9001.c:909
    status_t status = STATUS_SUCCESS;
     fda:	2000      	movs	r0, #0
D:\CQ9008\sample_codes\Release_example_240606\puf_template\debug/../sdk/platform/drivers/src/clock_tw9001.c:955
}
     fdc:	bd70      	pop	{r4, r5, r6, pc}
     fde:	46c0      	nop			; (mov r8, r8)
     fe0:	200002e0 	.word	0x200002e0
     fe4:	40064000 	.word	0x40064000
     fe8:	f0ffffff 	.word	0xf0ffffff

00000fec <clock_get_system_clock_freq>:
clock_get_system_clock_freq():
D:\CQ9008\sample_codes\Release_example_240606\puf_template\debug/../sdk/platform/drivers/src/clock_tw9001.c:2609
{
     fec:	b510      	push	{r4, lr}
     fee:	0004      	movs	r4, r0
DevAssert():
D:\CQ9008\sample_codes\Release_example_240606\puf_template\debug/../sdk/platform/devices/devassert.h:31
    if (x)
     ff0:	2802      	cmp	r0, #2
     ff2:	d901      	bls.n	ff8 <clock_get_system_clock_freq+0xc>
D:\CQ9008\sample_codes\Release_example_240606\puf_template\debug/../sdk/platform/devices/devassert.h:36
        BKPT_ASM;
     ff4:	be00      	bkpt	0x0000
D:\CQ9008\sample_codes\Release_example_240606\puf_template\debug/../sdk/platform/devices/devassert.h:37
        for (;;)
     ff6:	e7fe      	b.n	ff6 <clock_get_system_clock_freq+0xa>
scg_get_system_clk_source():
D:\CQ9008\sample_codes\Release_example_240606\puf_template\debug/../sdk/platform/drivers/inc/scg_access.h:49
    return ((p_base->CSR & SCG_CSR_SCS_MASK) >> SCG_CSR_SCS_SHIFT);
     ff8:	4b15      	ldr	r3, [pc, #84]	; (1050 <clock_get_system_clock_freq+0x64>)
     ffa:	691a      	ldr	r2, [r3, #16]
     ffc:	0e12      	lsrs	r2, r2, #24
     ffe:	230f      	movs	r3, #15
    1000:	4013      	ands	r3, r2
clock_get_system_clock_freq():
D:\CQ9008\sample_codes\Release_example_240606\puf_template\debug/../sdk/platform/drivers/src/clock_tw9001.c:2614
    switch (scg_get_system_clk_source(SCG))
    1002:	2b02      	cmp	r3, #2
    1004:	d01b      	beq.n	103e <clock_get_system_clock_freq+0x52>
    1006:	2b03      	cmp	r3, #3
    1008:	d01c      	beq.n	1044 <clock_get_system_clock_freq+0x58>
    100a:	2b01      	cmp	r3, #1
    100c:	d014      	beq.n	1038 <clock_get_system_clock_freq+0x4c>
    100e:	2000      	movs	r0, #0
scg_get_core_clk_divider_ratio():
D:\CQ9008\sample_codes\Release_example_240606\puf_template\debug/../sdk/platform/drivers/inc/scg_access.h:63
    return ((p_base->CSR & SCG_CSR_DIVCORE_MASK) >> SCG_CSR_DIVCORE_SHIFT);
    1010:	4b0f      	ldr	r3, [pc, #60]	; (1050 <clock_get_system_clock_freq+0x64>)
    1012:	691b      	ldr	r3, [r3, #16]
    1014:	0c1b      	lsrs	r3, r3, #16
    1016:	210f      	movs	r1, #15
    1018:	4019      	ands	r1, r3
clock_get_system_clock_freq():
D:\CQ9008\sample_codes\Release_example_240606\puf_template\debug/../sdk/platform/drivers/src/clock_tw9001.c:2638
    freq /= (scg_get_core_clk_divider_ratio(SCG) + 1U);
    101a:	3101      	adds	r1, #1
    101c:	f7ff f88a 	bl	134 <__udivsi3>
D:\CQ9008\sample_codes\Release_example_240606\puf_template\debug/../sdk/platform/drivers/src/clock_tw9001.c:2640
    switch (type)
    1020:	2c01      	cmp	r4, #1
    1022:	d908      	bls.n	1036 <clock_get_system_clock_freq+0x4a>
    1024:	2c02      	cmp	r4, #2
    1026:	d110      	bne.n	104a <clock_get_system_clock_freq+0x5e>
scg_get_slow_clk_divider_ratio():
D:\CQ9008\sample_codes\Release_example_240606\puf_template\debug/../sdk/platform/drivers/inc/scg_access.h:77
    return ((p_base->CSR & SCG_CSR_DIVSLOW_MASK) >> SCG_CSR_DIVSLOW_SHIFT);
    1028:	4b09      	ldr	r3, [pc, #36]	; (1050 <clock_get_system_clock_freq+0x64>)
    102a:	691b      	ldr	r3, [r3, #16]
    102c:	210f      	movs	r1, #15
    102e:	4019      	ands	r1, r3
clock_get_system_clock_freq():
D:\CQ9008\sample_codes\Release_example_240606\puf_template\debug/../sdk/platform/drivers/src/clock_tw9001.c:2654
            freq /= (scg_get_slow_clk_divider_ratio(SCG) + 1U);
    1030:	3101      	adds	r1, #1
    1032:	f7ff f87f 	bl	134 <__udivsi3>
D:\CQ9008\sample_codes\Release_example_240606\puf_template\debug/../sdk/platform/drivers/src/clock_tw9001.c:2665
}
    1036:	bd10      	pop	{r4, pc}
D:\CQ9008\sample_codes\Release_example_240606\puf_template\debug/../sdk/platform/drivers/src/clock_tw9001.c:2618
            freq = clock_get_sys_osc_freq();
    1038:	f7ff fdc4 	bl	bc4 <clock_get_sys_osc_freq>
D:\CQ9008\sample_codes\Release_example_240606\puf_template\debug/../sdk/platform/drivers/src/clock_tw9001.c:2620
        break;
    103c:	e7e8      	b.n	1010 <clock_get_system_clock_freq+0x24>
D:\CQ9008\sample_codes\Release_example_240606\puf_template\debug/../sdk/platform/drivers/src/clock_tw9001.c:2623
            freq = clock_get_sirc_freq();
    103e:	f7ff fdff 	bl	c40 <clock_get_sirc_freq>
D:\CQ9008\sample_codes\Release_example_240606\puf_template\debug/../sdk/platform/drivers/src/clock_tw9001.c:2625
        break;
    1042:	e7e5      	b.n	1010 <clock_get_system_clock_freq+0x24>
D:\CQ9008\sample_codes\Release_example_240606\puf_template\debug/../sdk/platform/drivers/src/clock_tw9001.c:2628
            freq = clock_get_firc_freq();
    1044:	f7ff fe2c 	bl	ca0 <clock_get_firc_freq>
D:\CQ9008\sample_codes\Release_example_240606\puf_template\debug/../sdk/platform/drivers/src/clock_tw9001.c:2630
        break;
    1048:	e7e2      	b.n	1010 <clock_get_system_clock_freq+0x24>
D:\CQ9008\sample_codes\Release_example_240606\puf_template\debug/../sdk/platform/drivers/src/clock_tw9001.c:2659
            freq = 0U;
    104a:	2000      	movs	r0, #0
D:\CQ9008\sample_codes\Release_example_240606\puf_template\debug/../sdk/platform/drivers/src/clock_tw9001.c:2664
    return freq;
    104c:	e7f3      	b.n	1036 <clock_get_system_clock_freq+0x4a>
    104e:	46c0      	nop			; (mov r8, r8)
    1050:	40064000 	.word	0x40064000

00001054 <clock_get_scg_clk_out_freq>:
clock_get_scg_clk_out_freq():
D:\CQ9008\sample_codes\Release_example_240606\puf_template\debug/../sdk/platform/drivers/src/clock_tw9001.c:2222
{
    1054:	b510      	push	{r4, lr}
scg_get_clockout_source_sel():
D:\CQ9008\sample_codes\Release_example_240606\puf_template\debug/../sdk/platform/drivers/inc/scg_access.h:35
    return (p_base->CLKOUTCNFG & SCG_CLKOUTCNFG_CLKOUTSEL_MASK) >> SCG_CLKOUTCNFG_CLKOUTSEL_SHIFT;
    1056:	4b0f      	ldr	r3, [pc, #60]	; (1094 <clock_get_scg_clk_out_freq+0x40>)
    1058:	6a1a      	ldr	r2, [r3, #32]
    105a:	0e12      	lsrs	r2, r2, #24
    105c:	230f      	movs	r3, #15
    105e:	4013      	ands	r3, r2
clock_get_scg_clk_out_freq():
D:\CQ9008\sample_codes\Release_example_240606\puf_template\debug/../sdk/platform/drivers/src/clock_tw9001.c:2225
    switch (scg_get_clockout_source_sel(SCG))
    1060:	2b02      	cmp	r3, #2
    1062:	d014      	beq.n	108e <clock_get_scg_clk_out_freq+0x3a>
    1064:	d808      	bhi.n	1078 <clock_get_scg_clk_out_freq+0x24>
    1066:	2b00      	cmp	r3, #0
    1068:	d00d      	beq.n	1086 <clock_get_scg_clk_out_freq+0x32>
    106a:	2b01      	cmp	r3, #1
    106c:	d102      	bne.n	1074 <clock_get_scg_clk_out_freq+0x20>
D:\CQ9008\sample_codes\Release_example_240606\puf_template\debug/../sdk/platform/drivers/src/clock_tw9001.c:2234
            frequency = clock_get_sys_osc_freq();
    106e:	f7ff fda9 	bl	bc4 <clock_get_sys_osc_freq>
D:\CQ9008\sample_codes\Release_example_240606\puf_template\debug/../sdk/platform/drivers/src/clock_tw9001.c:2236
        break;
    1072:	e007      	b.n	1084 <clock_get_scg_clk_out_freq+0x30>
D:\CQ9008\sample_codes\Release_example_240606\puf_template\debug/../sdk/platform/drivers/src/clock_tw9001.c:2225
    switch (scg_get_clockout_source_sel(SCG))
    1074:	2000      	movs	r0, #0
    1076:	e005      	b.n	1084 <clock_get_scg_clk_out_freq+0x30>
    1078:	2b03      	cmp	r3, #3
    107a:	d102      	bne.n	1082 <clock_get_scg_clk_out_freq+0x2e>
D:\CQ9008\sample_codes\Release_example_240606\puf_template\debug/../sdk/platform/drivers/src/clock_tw9001.c:2244
            frequency = clock_get_firc_freq();
    107c:	f7ff fe10 	bl	ca0 <clock_get_firc_freq>
D:\CQ9008\sample_codes\Release_example_240606\puf_template\debug/../sdk/platform/drivers/src/clock_tw9001.c:2255
    return frequency;
    1080:	e000      	b.n	1084 <clock_get_scg_clk_out_freq+0x30>
D:\CQ9008\sample_codes\Release_example_240606\puf_template\debug/../sdk/platform/drivers/src/clock_tw9001.c:2225
    switch (scg_get_clockout_source_sel(SCG))
    1082:	2000      	movs	r0, #0
D:\CQ9008\sample_codes\Release_example_240606\puf_template\debug/../sdk/platform/drivers/src/clock_tw9001.c:2256
}
    1084:	bd10      	pop	{r4, pc}
D:\CQ9008\sample_codes\Release_example_240606\puf_template\debug/../sdk/platform/drivers/src/clock_tw9001.c:2229
            frequency = clock_get_system_clock_freq(SCG_SYSTEM_CLOCK_SLOW);
    1086:	2002      	movs	r0, #2
    1088:	f7ff ffb0 	bl	fec <clock_get_system_clock_freq>
D:\CQ9008\sample_codes\Release_example_240606\puf_template\debug/../sdk/platform/drivers/src/clock_tw9001.c:2231
        break;
    108c:	e7fa      	b.n	1084 <clock_get_scg_clk_out_freq+0x30>
D:\CQ9008\sample_codes\Release_example_240606\puf_template\debug/../sdk/platform/drivers/src/clock_tw9001.c:2239
            frequency = clock_get_sirc_freq();
    108e:	f7ff fdd7 	bl	c40 <clock_get_sirc_freq>
D:\CQ9008\sample_codes\Release_example_240606\puf_template\debug/../sdk/platform/drivers/src/clock_tw9001.c:2241
        break;
    1092:	e7f7      	b.n	1084 <clock_get_scg_clk_out_freq+0x30>
    1094:	40064000 	.word	0x40064000

00001098 <clock_get_sys_async_freq>:
clock_get_sys_async_freq():
D:\CQ9008\sample_codes\Release_example_240606\puf_template\debug/../sdk/platform/drivers/src/clock_tw9001.c:2815
{
    1098:	b510      	push	{r4, lr}
D:\CQ9008\sample_codes\Release_example_240606\puf_template\debug/../sdk/platform/drivers/src/clock_tw9001.c:2818
    switch (type)
    109a:	2900      	cmp	r1, #0
    109c:	d003      	beq.n	10a6 <clock_get_sys_async_freq+0xe>
    109e:	2901      	cmp	r1, #1
    10a0:	d02d      	beq.n	10fe <clock_get_sys_async_freq+0x66>
DevAssert():
D:\CQ9008\sample_codes\Release_example_240606\puf_template\debug/../sdk/platform/devices/devassert.h:36
        BKPT_ASM;
    10a2:	be00      	bkpt	0x0000
D:\CQ9008\sample_codes\Release_example_240606\puf_template\debug/../sdk/platform/devices/devassert.h:37
        for (;;)
    10a4:	e7fe      	b.n	10a4 <clock_get_sys_async_freq+0xc>
clock_get_sys_async_freq():
D:\CQ9008\sample_codes\Release_example_240606\puf_template\debug/../sdk/platform/drivers/src/clock_tw9001.c:2822
            switch (clock_source)
    10a6:	2805      	cmp	r0, #5
    10a8:	d005      	beq.n	10b6 <clock_get_sys_async_freq+0x1e>
    10aa:	2806      	cmp	r0, #6
    10ac:	d01d      	beq.n	10ea <clock_get_sys_async_freq+0x52>
    10ae:	2804      	cmp	r0, #4
    10b0:	d010      	beq.n	10d4 <clock_get_sys_async_freq+0x3c>
DevAssert():
D:\CQ9008\sample_codes\Release_example_240606\puf_template\debug/../sdk/platform/devices/devassert.h:36
        BKPT_ASM;
    10b2:	be00      	bkpt	0x0000
D:\CQ9008\sample_codes\Release_example_240606\puf_template\debug/../sdk/platform/devices/devassert.h:37
        for (;;)
    10b4:	e7fe      	b.n	10b4 <clock_get_sys_async_freq+0x1c>
clock_get_sys_async_freq():
D:\CQ9008\sample_codes\Release_example_240606\puf_template\debug/../sdk/platform/drivers/src/clock_tw9001.c:2826
                    freq = clock_get_firc_freq();
    10b6:	f7ff fdf3 	bl	ca0 <clock_get_firc_freq>
    10ba:	0002      	movs	r2, r0
scg_get_firc_first_async_divider():
D:\CQ9008\sample_codes\Release_example_240606\puf_template\debug/../sdk/platform/drivers/inc/scg_access.h:134
    return (p_base->FIRCDIV & SCG_FIRCDIV_FIRCDIV1_MASK) >> SCG_FIRCDIV_FIRCDIV1_SHIFT;
    10bc:	4925      	ldr	r1, [pc, #148]	; (1154 <clock_get_sys_async_freq+0xbc>)
    10be:	23c1      	movs	r3, #193	; 0xc1
    10c0:	009b      	lsls	r3, r3, #2
    10c2:	58cb      	ldr	r3, [r1, r3]
    10c4:	2007      	movs	r0, #7
    10c6:	4018      	ands	r0, r3
clock_get_sys_async_freq():
D:\CQ9008\sample_codes\Release_example_240606\puf_template\debug/../sdk/platform/drivers/src/clock_tw9001.c:2893
    if (div != 0U)
    10c8:	2800      	cmp	r0, #0
    10ca:	d002      	beq.n	10d2 <clock_get_sys_async_freq+0x3a>
D:\CQ9008\sample_codes\Release_example_240606\puf_template\debug/../sdk/platform/drivers/src/clock_tw9001.c:2895
        freq = (freq >> (div - 1U));
    10cc:	3801      	subs	r0, #1
    10ce:	40c2      	lsrs	r2, r0
    10d0:	0010      	movs	r0, r2
D:\CQ9008\sample_codes\Release_example_240606\puf_template\debug/../sdk/platform/drivers/src/clock_tw9001.c:2903
}
    10d2:	bd10      	pop	{r4, pc}
D:\CQ9008\sample_codes\Release_example_240606\puf_template\debug/../sdk/platform/drivers/src/clock_tw9001.c:2832
                    freq = clock_get_sirc_freq();
    10d4:	f7ff fdb4 	bl	c40 <clock_get_sirc_freq>
    10d8:	0002      	movs	r2, r0
scg_get_sirc_first_async_divider():
D:\CQ9008\sample_codes\Release_example_240606\puf_template\debug/../sdk/platform/drivers/inc/scg_access.h:180
    return (p_base->SIRCDIV & SCG_SIRCDIV_SIRCDIV1_MASK) >> SCG_SIRCDIV_SIRCDIV1_SHIFT;
    10da:	491e      	ldr	r1, [pc, #120]	; (1154 <clock_get_sys_async_freq+0xbc>)
    10dc:	2381      	movs	r3, #129	; 0x81
    10de:	009b      	lsls	r3, r3, #2
    10e0:	58c8      	ldr	r0, [r1, r3]
    10e2:	3bfe      	subs	r3, #254	; 0xfe
    10e4:	3bff      	subs	r3, #255	; 0xff
    10e6:	4018      	ands	r0, r3
clock_get_sys_async_freq():
D:\CQ9008\sample_codes\Release_example_240606\puf_template\debug/../sdk/platform/drivers/src/clock_tw9001.c:2835
                break;
    10e8:	e7ee      	b.n	10c8 <clock_get_sys_async_freq+0x30>
D:\CQ9008\sample_codes\Release_example_240606\puf_template\debug/../sdk/platform/drivers/src/clock_tw9001.c:2838
                    freq = clock_get_sys_osc_freq();
    10ea:	f7ff fd6b 	bl	bc4 <clock_get_sys_osc_freq>
    10ee:	0002      	movs	r2, r0
scg_get_sosc_first_async_divider():
D:\CQ9008\sample_codes\Release_example_240606\puf_template\debug/../sdk/platform/drivers/inc/scg_access.h:226
    return (p_base->SOSCDIV & SCG_SOSCDIV_SOSCDIV1_MASK) >> SCG_SOSCDIV_SOSCDIV1_SHIFT;
    10f0:	4918      	ldr	r1, [pc, #96]	; (1154 <clock_get_sys_async_freq+0xbc>)
    10f2:	2382      	movs	r3, #130	; 0x82
    10f4:	005b      	lsls	r3, r3, #1
    10f6:	58c8      	ldr	r0, [r1, r3]
    10f8:	3bfd      	subs	r3, #253	; 0xfd
    10fa:	4018      	ands	r0, r3
clock_get_sys_async_freq():
D:\CQ9008\sample_codes\Release_example_240606\puf_template\debug/../sdk/platform/drivers/src/clock_tw9001.c:2841
                break;
    10fc:	e7e4      	b.n	10c8 <clock_get_sys_async_freq+0x30>
D:\CQ9008\sample_codes\Release_example_240606\puf_template\debug/../sdk/platform/drivers/src/clock_tw9001.c:2854
            switch (clock_source)
    10fe:	2805      	cmp	r0, #5
    1100:	d005      	beq.n	110e <clock_get_sys_async_freq+0x76>
    1102:	2806      	cmp	r0, #6
    1104:	d01a      	beq.n	113c <clock_get_sys_async_freq+0xa4>
    1106:	2804      	cmp	r0, #4
    1108:	d00c      	beq.n	1124 <clock_get_sys_async_freq+0x8c>
DevAssert():
D:\CQ9008\sample_codes\Release_example_240606\puf_template\debug/../sdk/platform/devices/devassert.h:36
        BKPT_ASM;
    110a:	be00      	bkpt	0x0000
D:\CQ9008\sample_codes\Release_example_240606\puf_template\debug/../sdk/platform/devices/devassert.h:37
        for (;;)
    110c:	e7fe      	b.n	110c <clock_get_sys_async_freq+0x74>
clock_get_sys_async_freq():
D:\CQ9008\sample_codes\Release_example_240606\puf_template\debug/../sdk/platform/drivers/src/clock_tw9001.c:2858
                    freq = clock_get_firc_freq();
    110e:	f7ff fdc7 	bl	ca0 <clock_get_firc_freq>
    1112:	0002      	movs	r2, r0
scg_get_firc_second_async_divider():
D:\CQ9008\sample_codes\Release_example_240606\puf_template\debug/../sdk/platform/drivers/inc/scg_access.h:148
    return (p_base->FIRCDIV & SCG_FIRCDIV_FIRCDIV2_MASK) >> SCG_FIRCDIV_FIRCDIV2_SHIFT;
    1114:	490f      	ldr	r1, [pc, #60]	; (1154 <clock_get_sys_async_freq+0xbc>)
    1116:	23c1      	movs	r3, #193	; 0xc1
    1118:	009b      	lsls	r3, r3, #2
    111a:	58c8      	ldr	r0, [r1, r3]
    111c:	0a00      	lsrs	r0, r0, #8
    111e:	2307      	movs	r3, #7
    1120:	4018      	ands	r0, r3
clock_get_sys_async_freq():
D:\CQ9008\sample_codes\Release_example_240606\puf_template\debug/../sdk/platform/drivers/src/clock_tw9001.c:2861
                break;
    1122:	e7d1      	b.n	10c8 <clock_get_sys_async_freq+0x30>
D:\CQ9008\sample_codes\Release_example_240606\puf_template\debug/../sdk/platform/drivers/src/clock_tw9001.c:2864
                    freq = clock_get_sirc_freq();
    1124:	f7ff fd8c 	bl	c40 <clock_get_sirc_freq>
    1128:	0002      	movs	r2, r0
scg_get_sirc_second_async_divider():
D:\CQ9008\sample_codes\Release_example_240606\puf_template\debug/../sdk/platform/drivers/inc/scg_access.h:194
    return (p_base->SIRCDIV & SCG_SIRCDIV_SIRCDIV2_MASK) >> SCG_SIRCDIV_SIRCDIV2_SHIFT;
    112a:	490a      	ldr	r1, [pc, #40]	; (1154 <clock_get_sys_async_freq+0xbc>)
    112c:	2381      	movs	r3, #129	; 0x81
    112e:	009b      	lsls	r3, r3, #2
    1130:	58c8      	ldr	r0, [r1, r3]
    1132:	0a00      	lsrs	r0, r0, #8
    1134:	3bfe      	subs	r3, #254	; 0xfe
    1136:	3bff      	subs	r3, #255	; 0xff
    1138:	4018      	ands	r0, r3
clock_get_sys_async_freq():
D:\CQ9008\sample_codes\Release_example_240606\puf_template\debug/../sdk/platform/drivers/src/clock_tw9001.c:2867
                break;
    113a:	e7c5      	b.n	10c8 <clock_get_sys_async_freq+0x30>
D:\CQ9008\sample_codes\Release_example_240606\puf_template\debug/../sdk/platform/drivers/src/clock_tw9001.c:2870
                    freq = clock_get_sys_osc_freq();
    113c:	f7ff fd42 	bl	bc4 <clock_get_sys_osc_freq>
    1140:	0002      	movs	r2, r0
scg_get_sosc_second_async_divide():
D:\CQ9008\sample_codes\Release_example_240606\puf_template\debug/../sdk/platform/drivers/inc/scg_access.h:240
    return (p_base->SOSCDIV & SCG_SOSCDIV_SOSCDIV2_MASK) >> SCG_SOSCDIV_SOSCDIV2_SHIFT;
    1142:	4904      	ldr	r1, [pc, #16]	; (1154 <clock_get_sys_async_freq+0xbc>)
    1144:	2382      	movs	r3, #130	; 0x82
    1146:	005b      	lsls	r3, r3, #1
    1148:	58c8      	ldr	r0, [r1, r3]
    114a:	0a00      	lsrs	r0, r0, #8
    114c:	3bfd      	subs	r3, #253	; 0xfd
    114e:	4018      	ands	r0, r3
clock_get_sys_async_freq():
D:\CQ9008\sample_codes\Release_example_240606\puf_template\debug/../sdk/platform/drivers/src/clock_tw9001.c:2873
                break;
    1150:	e7ba      	b.n	10c8 <clock_get_sys_async_freq+0x30>
    1152:	46c0      	nop			; (mov r8, r8)
    1154:	40064000 	.word	0x40064000

00001158 <clock_get_sim_rtc_clk_freq>:
clock_get_sim_rtc_clk_freq():
D:\CQ9008\sample_codes\Release_example_240606\puf_template\debug/../sdk/platform/drivers/src/clock_tw9001.c:2264
{
    1158:	b510      	push	{r4, lr}
sim_get_rtc_clk_src():
D:\CQ9008\sample_codes\Release_example_240606\puf_template\debug/../sdk/platform/drivers/inc/sim_access.h:35
    return ((p_base->LPOCLKS & SIM_LPOCLKS_RTCCLKSEL_MASK) >> SIM_LPOCLKS_RTCCLKSEL_SHIFT);
    115a:	4b14      	ldr	r3, [pc, #80]	; (11ac <clock_get_sim_rtc_clk_freq+0x54>)
    115c:	691a      	ldr	r2, [r3, #16]
    115e:	0912      	lsrs	r2, r2, #4
    1160:	2303      	movs	r3, #3
    1162:	4013      	ands	r3, r2
clock_get_sim_rtc_clk_freq():
D:\CQ9008\sample_codes\Release_example_240606\puf_template\debug/../sdk/platform/drivers/src/clock_tw9001.c:2268
    switch (sim_get_rtc_clk_src(SIM))
    1164:	2b02      	cmp	r3, #2
    1166:	d01e      	beq.n	11a6 <clock_get_sim_rtc_clk_freq+0x4e>
    1168:	d80f      	bhi.n	118a <clock_get_sim_rtc_clk_freq+0x32>
    116a:	2b00      	cmp	r3, #0
    116c:	d016      	beq.n	119c <clock_get_sim_rtc_clk_freq+0x44>
    116e:	2b01      	cmp	r3, #1
    1170:	d109      	bne.n	1186 <clock_get_sim_rtc_clk_freq+0x2e>
sim_get_lpo32k_status():
D:\CQ9008\sample_codes\Release_example_240606\puf_template\debug/../sdk/platform/drivers/inc/sim_access.h:119
    return (((p_base->LPOCLKS & SIM_LPOCLKS_LPO32KCLKEN_MASK) >> SIM_LPOCLKS_LPO32KCLKEN_SHIFT) !=
    1172:	4b0e      	ldr	r3, [pc, #56]	; (11ac <clock_get_sim_rtc_clk_freq+0x54>)
    1174:	691b      	ldr	r3, [r3, #16]
    1176:	2202      	movs	r2, #2
    1178:	0010      	movs	r0, r2
    117a:	4018      	ands	r0, r3
clock_get_sim_rtc_clk_freq():
D:\CQ9008\sample_codes\Release_example_240606\puf_template\debug/../sdk/platform/drivers/src/clock_tw9001.c:2277
            frequency = sim_get_lpo32k_status(SIM) ? LPO_32K_FREQUENCY : 0UL;
    117c:	421a      	tst	r2, r3
    117e:	d00c      	beq.n	119a <clock_get_sim_rtc_clk_freq+0x42>
    1180:	20fa      	movs	r0, #250	; 0xfa
    1182:	01c0      	lsls	r0, r0, #7
    1184:	e009      	b.n	119a <clock_get_sim_rtc_clk_freq+0x42>
D:\CQ9008\sample_codes\Release_example_240606\puf_template\debug/../sdk/platform/drivers/src/clock_tw9001.c:2268
    switch (sim_get_rtc_clk_src(SIM))
    1186:	2000      	movs	r0, #0
    1188:	e007      	b.n	119a <clock_get_sim_rtc_clk_freq+0x42>
    118a:	2b03      	cmp	r3, #3
    118c:	d104      	bne.n	1198 <clock_get_sim_rtc_clk_freq+0x40>
D:\CQ9008\sample_codes\Release_example_240606\puf_template\debug/../sdk/platform/drivers/src/clock_tw9001.c:2284
            frequency = clock_get_sys_async_freq(FIRC_CLK, SCG_ASYNC_CLOCK_DIV1);
    118e:	2100      	movs	r1, #0
    1190:	2005      	movs	r0, #5
    1192:	f7ff ff81 	bl	1098 <clock_get_sys_async_freq>
D:\CQ9008\sample_codes\Release_example_240606\puf_template\debug/../sdk/platform/drivers/src/clock_tw9001.c:2292
    return frequency;
    1196:	e000      	b.n	119a <clock_get_sim_rtc_clk_freq+0x42>
D:\CQ9008\sample_codes\Release_example_240606\puf_template\debug/../sdk/platform/drivers/src/clock_tw9001.c:2268
    switch (sim_get_rtc_clk_src(SIM))
    1198:	2000      	movs	r0, #0
D:\CQ9008\sample_codes\Release_example_240606\puf_template\debug/../sdk/platform/drivers/src/clock_tw9001.c:2293
}
    119a:	bd10      	pop	{r4, pc}
D:\CQ9008\sample_codes\Release_example_240606\puf_template\debug/../sdk/platform/drivers/src/clock_tw9001.c:2272
            frequency = clock_get_sys_async_freq(SOSC_CLK, SCG_ASYNC_CLOCK_DIV1);
    119c:	2100      	movs	r1, #0
    119e:	2006      	movs	r0, #6
    11a0:	f7ff ff7a 	bl	1098 <clock_get_sys_async_freq>
D:\CQ9008\sample_codes\Release_example_240606\puf_template\debug/../sdk/platform/drivers/src/clock_tw9001.c:2274
        break;
    11a4:	e7f9      	b.n	119a <clock_get_sim_rtc_clk_freq+0x42>
D:\CQ9008\sample_codes\Release_example_240606\puf_template\debug/../sdk/platform/drivers/src/clock_tw9001.c:2281
            frequency = g_rtc_clk_in_freq;
    11a6:	4b02      	ldr	r3, [pc, #8]	; (11b0 <clock_get_sim_rtc_clk_freq+0x58>)
    11a8:	6818      	ldr	r0, [r3, #0]
D:\CQ9008\sample_codes\Release_example_240606\puf_template\debug/../sdk/platform/drivers/src/clock_tw9001.c:2282
            break;
    11aa:	e7f6      	b.n	119a <clock_get_sim_rtc_clk_freq+0x42>
    11ac:	40048000 	.word	0x40048000
    11b0:	200002e0 	.word	0x200002e0

000011b4 <clock_get_lpo_freq>:
sim_get_lpo_clk_selector_value():
D:\CQ9008\sample_codes\Release_example_240606\puf_template\debug/../sdk/platform/drivers/inc/sim_access.h:148
    return ((p_base->LPOCLKS & SIM_LPOCLKS_LPOCLKSEL_MASK) >> SIM_LPOCLKS_LPOCLKSEL_SHIFT);
    11b4:	4b17      	ldr	r3, [pc, #92]	; (1214 <clock_get_lpo_freq+0x60>)
    11b6:	691a      	ldr	r2, [r3, #16]
    11b8:	0892      	lsrs	r2, r2, #2
    11ba:	2303      	movs	r3, #3
    11bc:	4013      	ands	r3, r2
clock_get_lpo_freq():
D:\CQ9008\sample_codes\Release_example_240606\puf_template\debug/../sdk/platform/drivers/src/clock_tw9001.c:2962
static uint32_t
clock_get_lpo_freq(void)
{
    uint32_t freq = 0U;

    switch (sim_get_lpo_clk_selector_value(SIM))
    11be:	2b02      	cmp	r3, #2
    11c0:	d019      	beq.n	11f6 <clock_get_lpo_freq+0x42>
    11c2:	d805      	bhi.n	11d0 <clock_get_lpo_freq+0x1c>
    11c4:	2b00      	cmp	r3, #0
    11c6:	d022      	beq.n	120e <clock_get_lpo_freq+0x5a>
    11c8:	2b01      	cmp	r3, #1
    11ca:	d11e      	bne.n	120a <clock_get_lpo_freq+0x56>
D:\CQ9008\sample_codes\Release_example_240606\puf_template\debug/../sdk/platform/drivers/src/clock_tw9001.c:2971
            freq = LPO_128K_FREQUENCY;
        }
        break;
        case 1U: /* SIM_LPO_CLK_SEL_NO_CLOCK: */
        {
            freq = 0U;
    11cc:	2000      	movs	r0, #0
D:\CQ9008\sample_codes\Release_example_240606\puf_template\debug/../sdk/platform/drivers/src/clock_tw9001.c:2993
        }
        break;
    }

    return freq;
}
    11ce:	4770      	bx	lr
D:\CQ9008\sample_codes\Release_example_240606\puf_template\debug/../sdk/platform/drivers/src/clock_tw9001.c:2962
    switch (sim_get_lpo_clk_selector_value(SIM))
    11d0:	2b03      	cmp	r3, #3
    11d2:	d11a      	bne.n	120a <clock_get_lpo_freq+0x56>
sim_get_lpo32k_status():
D:\CQ9008\sample_codes\Release_example_240606\puf_template\debug/../sdk/platform/drivers/inc/sim_access.h:119
    return (((p_base->LPOCLKS & SIM_LPOCLKS_LPO32KCLKEN_MASK) >> SIM_LPOCLKS_LPO32KCLKEN_SHIFT) !=
    11d4:	4b0f      	ldr	r3, [pc, #60]	; (1214 <clock_get_lpo_freq+0x60>)
    11d6:	691b      	ldr	r3, [r3, #16]
    11d8:	2202      	movs	r2, #2
    11da:	0010      	movs	r0, r2
    11dc:	4018      	ands	r0, r3
clock_get_lpo_freq():
D:\CQ9008\sample_codes\Release_example_240606\puf_template\debug/../sdk/platform/drivers/src/clock_tw9001.c:2982
                                                                                 : 0UL;
    11de:	421a      	tst	r2, r3
    11e0:	d0f5      	beq.n	11ce <clock_get_lpo_freq+0x1a>
sim_get_lpo1k_status():
D:\CQ9008\sample_codes\Release_example_240606\puf_template\debug/../sdk/platform/drivers/inc/sim_access.h:132
    return (((p_base->LPOCLKS & SIM_LPOCLKS_LPO1KCLKEN_MASK) >> SIM_LPOCLKS_LPO1KCLKEN_SHIFT) != 0U)
    11e2:	4b0c      	ldr	r3, [pc, #48]	; (1214 <clock_get_lpo_freq+0x60>)
    11e4:	691b      	ldr	r3, [r3, #16]
    11e6:	3a01      	subs	r2, #1
    11e8:	0010      	movs	r0, r2
    11ea:	4018      	ands	r0, r3
clock_get_lpo_freq():
D:\CQ9008\sample_codes\Release_example_240606\puf_template\debug/../sdk/platform/drivers/src/clock_tw9001.c:2981
            freq = ((sim_get_lpo32k_status(SIM)) && (sim_get_lpo1k_status(SIM))) ? LPO_1K_FREQUENCY
    11ec:	421a      	tst	r2, r3
    11ee:	d0ee      	beq.n	11ce <clock_get_lpo_freq+0x1a>
D:\CQ9008\sample_codes\Release_example_240606\puf_template\debug/../sdk/platform/drivers/src/clock_tw9001.c:2982
                                                                                 : 0UL;
    11f0:	20fa      	movs	r0, #250	; 0xfa
    11f2:	0080      	lsls	r0, r0, #2
    11f4:	e7eb      	b.n	11ce <clock_get_lpo_freq+0x1a>
sim_get_lpo32k_status():
D:\CQ9008\sample_codes\Release_example_240606\puf_template\debug/../sdk/platform/drivers/inc/sim_access.h:119
    return (((p_base->LPOCLKS & SIM_LPOCLKS_LPO32KCLKEN_MASK) >> SIM_LPOCLKS_LPO32KCLKEN_SHIFT) !=
    11f6:	4b07      	ldr	r3, [pc, #28]	; (1214 <clock_get_lpo_freq+0x60>)
    11f8:	691b      	ldr	r3, [r3, #16]
    11fa:	2202      	movs	r2, #2
    11fc:	0010      	movs	r0, r2
    11fe:	4018      	ands	r0, r3
clock_get_lpo_freq():
D:\CQ9008\sample_codes\Release_example_240606\puf_template\debug/../sdk/platform/drivers/src/clock_tw9001.c:2976
            freq = sim_get_lpo32k_status(SIM) ? LPO_32K_FREQUENCY : 0UL;
    1200:	421a      	tst	r2, r3
    1202:	d0e4      	beq.n	11ce <clock_get_lpo_freq+0x1a>
    1204:	20fa      	movs	r0, #250	; 0xfa
    1206:	01c0      	lsls	r0, r0, #7
    1208:	e7e1      	b.n	11ce <clock_get_lpo_freq+0x1a>
DevAssert():
D:\CQ9008\sample_codes\Release_example_240606\puf_template\debug/../sdk/platform/devices/devassert.h:36
        BKPT_ASM;
    120a:	be00      	bkpt	0x0000
D:\CQ9008\sample_codes\Release_example_240606\puf_template\debug/../sdk/platform/devices/devassert.h:37
        for (;;)
    120c:	e7fe      	b.n	120c <clock_get_lpo_freq+0x58>
clock_get_lpo_freq():
D:\CQ9008\sample_codes\Release_example_240606\puf_template\debug/../sdk/platform/drivers/src/clock_tw9001.c:2962
    switch (sim_get_lpo_clk_selector_value(SIM))
    120e:	20fa      	movs	r0, #250	; 0xfa
    1210:	0240      	lsls	r0, r0, #9
    1212:	e7dc      	b.n	11ce <clock_get_lpo_freq+0x1a>
    1214:	40048000 	.word	0x40048000

00001218 <clock_get_sim_clk_out_freq>:
clock_get_sim_clk_out_freq():
D:\CQ9008\sample_codes\Release_example_240606\puf_template\debug/../sdk/platform/drivers/src/clock_tw9001.c:2144
{
    1218:	b510      	push	{r4, lr}
sim_get_clockout_status():
D:\CQ9008\sample_codes\Release_example_240606\puf_template\debug/../sdk/platform/drivers/inc/sim_access.h:162
    return (((p_base->CHIPCTL & SIM_CHIPCTL_CLKOUTEN_MASK) >> SIM_CHIPCTL_CLKOUTEN_SHIFT) == 0U)
    121a:	4b20      	ldr	r3, [pc, #128]	; (129c <clock_get_sim_clk_out_freq+0x84>)
    121c:	685a      	ldr	r2, [r3, #4]
    121e:	2380      	movs	r3, #128	; 0x80
    1220:	011b      	lsls	r3, r3, #4
    1222:	0010      	movs	r0, r2
    1224:	4018      	ands	r0, r3
clock_get_sim_clk_out_freq():
D:\CQ9008\sample_codes\Release_example_240606\puf_template\debug/../sdk/platform/drivers/src/clock_tw9001.c:2147
    if (sim_get_clockout_status(SIM))
    1226:	421a      	tst	r2, r3
    1228:	d036      	beq.n	1298 <clock_get_sim_clk_out_freq+0x80>
sim_get_clockout_selector_value():
D:\CQ9008\sample_codes\Release_example_240606\puf_template\debug/../sdk/platform/drivers/inc/sim_access.h:192
    return ((p_base->CHIPCTL & SIM_CHIPCTL_CLKOUTSEL_MASK) >> SIM_CHIPCTL_CLKOUTSEL_SHIFT);
    122a:	4b1c      	ldr	r3, [pc, #112]	; (129c <clock_get_sim_clk_out_freq+0x84>)
    122c:	685a      	ldr	r2, [r3, #4]
    122e:	0912      	lsrs	r2, r2, #4
    1230:	230f      	movs	r3, #15
    1232:	4013      	ands	r3, r2
clock_get_sim_clk_out_freq():
D:\CQ9008\sample_codes\Release_example_240606\puf_template\debug/../sdk/platform/drivers/src/clock_tw9001.c:2149
        switch (sim_get_clockout_selector_value(SIM))
    1234:	2b0e      	cmp	r3, #14
    1236:	d826      	bhi.n	1286 <clock_get_sim_clk_out_freq+0x6e>
    1238:	009b      	lsls	r3, r3, #2
    123a:	4a19      	ldr	r2, [pc, #100]	; (12a0 <clock_get_sim_clk_out_freq+0x88>)
    123c:	58d3      	ldr	r3, [r2, r3]
    123e:	469f      	mov	pc, r3
    1240:	20fa      	movs	r0, #250	; 0xfa
    1242:	0240      	lsls	r0, r0, #9
    1244:	e020      	b.n	1288 <clock_get_sim_clk_out_freq+0x70>
D:\CQ9008\sample_codes\Release_example_240606\puf_template\debug/../sdk/platform/drivers/src/clock_tw9001.c:2153
                frequency = clock_get_scg_clk_out_freq();
    1246:	f7ff ff05 	bl	1054 <clock_get_scg_clk_out_freq>
D:\CQ9008\sample_codes\Release_example_240606\puf_template\debug/../sdk/platform/drivers/src/clock_tw9001.c:2155
            break;
    124a:	e01d      	b.n	1288 <clock_get_sim_clk_out_freq+0x70>
D:\CQ9008\sample_codes\Release_example_240606\puf_template\debug/../sdk/platform/drivers/src/clock_tw9001.c:2158
                frequency = clock_get_sys_async_freq(SOSC_CLK, SCG_ASYNC_CLOCK_DIV2);
    124c:	2101      	movs	r1, #1
    124e:	2006      	movs	r0, #6
    1250:	f7ff ff22 	bl	1098 <clock_get_sys_async_freq>
D:\CQ9008\sample_codes\Release_example_240606\puf_template\debug/../sdk/platform/drivers/src/clock_tw9001.c:2160
            break;
    1254:	e018      	b.n	1288 <clock_get_sim_clk_out_freq+0x70>
D:\CQ9008\sample_codes\Release_example_240606\puf_template\debug/../sdk/platform/drivers/src/clock_tw9001.c:2163
                frequency = clock_get_sys_async_freq(SIRC_CLK, SCG_ASYNC_CLOCK_DIV2);
    1256:	2101      	movs	r1, #1
    1258:	2004      	movs	r0, #4
    125a:	f7ff ff1d 	bl	1098 <clock_get_sys_async_freq>
D:\CQ9008\sample_codes\Release_example_240606\puf_template\debug/../sdk/platform/drivers/src/clock_tw9001.c:2165
            break;
    125e:	e013      	b.n	1288 <clock_get_sim_clk_out_freq+0x70>
D:\CQ9008\sample_codes\Release_example_240606\puf_template\debug/../sdk/platform/drivers/src/clock_tw9001.c:2168
                frequency = clock_get_sys_async_freq(FIRC_CLK, SCG_ASYNC_CLOCK_DIV2);
    1260:	2101      	movs	r1, #1
    1262:	2005      	movs	r0, #5
    1264:	f7ff ff18 	bl	1098 <clock_get_sys_async_freq>
D:\CQ9008\sample_codes\Release_example_240606\puf_template\debug/../sdk/platform/drivers/src/clock_tw9001.c:2170
            break;
    1268:	e00e      	b.n	1288 <clock_get_sim_clk_out_freq+0x70>
D:\CQ9008\sample_codes\Release_example_240606\puf_template\debug/../sdk/platform/drivers/src/clock_tw9001.c:2173
                frequency = clock_get_system_clock_freq(SCG_SYSTEM_CLOCK_CORE);
    126a:	2000      	movs	r0, #0
    126c:	f7ff febe 	bl	fec <clock_get_system_clock_freq>
D:\CQ9008\sample_codes\Release_example_240606\puf_template\debug/../sdk/platform/drivers/src/clock_tw9001.c:2175
            break;
    1270:	e00a      	b.n	1288 <clock_get_sim_clk_out_freq+0x70>
D:\CQ9008\sample_codes\Release_example_240606\puf_template\debug/../sdk/platform/drivers/src/clock_tw9001.c:2178
                frequency = clock_get_system_clock_freq(SCG_SYSTEM_CLOCK_BUS);
    1272:	2001      	movs	r0, #1
    1274:	f7ff feba 	bl	fec <clock_get_system_clock_freq>
D:\CQ9008\sample_codes\Release_example_240606\puf_template\debug/../sdk/platform/drivers/src/clock_tw9001.c:2180
            break;
    1278:	e006      	b.n	1288 <clock_get_sim_clk_out_freq+0x70>
D:\CQ9008\sample_codes\Release_example_240606\puf_template\debug/../sdk/platform/drivers/src/clock_tw9001.c:2188
                frequency = clock_get_lpo_freq();
    127a:	f7ff ff9b 	bl	11b4 <clock_get_lpo_freq>
D:\CQ9008\sample_codes\Release_example_240606\puf_template\debug/../sdk/platform/drivers/src/clock_tw9001.c:2190
            break;
    127e:	e003      	b.n	1288 <clock_get_sim_clk_out_freq+0x70>
D:\CQ9008\sample_codes\Release_example_240606\puf_template\debug/../sdk/platform/drivers/src/clock_tw9001.c:2193
                frequency = clock_get_sim_rtc_clk_freq();
    1280:	f7ff ff6a 	bl	1158 <clock_get_sim_rtc_clk_freq>
D:\CQ9008\sample_codes\Release_example_240606\puf_template\debug/../sdk/platform/drivers/src/clock_tw9001.c:2195
            break;
    1284:	e000      	b.n	1288 <clock_get_sim_clk_out_freq+0x70>
D:\CQ9008\sample_codes\Release_example_240606\puf_template\debug/../sdk/platform/drivers/src/clock_tw9001.c:2199
                frequency = 0U;
    1286:	2000      	movs	r0, #0
sim_get_clockout_divider_value():
D:\CQ9008\sample_codes\Release_example_240606\puf_template\debug/../sdk/platform/drivers/inc/sim_access.h:178
    return ((p_base->CHIPCTL & SIM_CHIPCTL_CLKOUTDIV_MASK) >> SIM_CHIPCTL_CLKOUTDIV_SHIFT);
    1288:	4b04      	ldr	r3, [pc, #16]	; (129c <clock_get_sim_clk_out_freq+0x84>)
    128a:	685b      	ldr	r3, [r3, #4]
    128c:	0a1b      	lsrs	r3, r3, #8
    128e:	2107      	movs	r1, #7
    1290:	4019      	ands	r1, r3
clock_get_sim_clk_out_freq():
D:\CQ9008\sample_codes\Release_example_240606\puf_template\debug/../sdk/platform/drivers/src/clock_tw9001.c:2205
        frequency /= (sim_get_clockout_divider_value(SIM) + 1U);
    1292:	3101      	adds	r1, #1
    1294:	f7fe ff4e 	bl	134 <__udivsi3>
D:\CQ9008\sample_codes\Release_example_240606\puf_template\debug/../sdk/platform/drivers/src/clock_tw9001.c:2214
}
    1298:	bd10      	pop	{r4, pc}
    129a:	46c0      	nop			; (mov r8, r8)
    129c:	40048000 	.word	0x40048000
    12a0:	000061a8 	.word	0x000061a8

000012a4 <clock_get_scg_clock_freq>:
clock_get_scg_clock_freq():
D:\CQ9008\sample_codes\Release_example_240606\puf_template\debug/../sdk/platform/drivers/src/clock_tw9001.c:1534
{
    12a4:	b510      	push	{r4, lr}
    12a6:	000c      	movs	r4, r1
D:\CQ9008\sample_codes\Release_example_240606\puf_template\debug/../sdk/platform/drivers/src/clock_tw9001.c:1538
    switch (clock_name)
    12a8:	280f      	cmp	r0, #15
    12aa:	d85f      	bhi.n	136c <clock_get_scg_clock_freq+0xc8>
    12ac:	0080      	lsls	r0, r0, #2
    12ae:	4b31      	ldr	r3, [pc, #196]	; (1374 <clock_get_scg_clock_freq+0xd0>)
    12b0:	581b      	ldr	r3, [r3, r0]
    12b2:	469f      	mov	pc, r3
D:\CQ9008\sample_codes\Release_example_240606\puf_template\debug/../sdk/platform/drivers/src/clock_tw9001.c:1543
            freq = clock_get_system_clock_freq(SCG_SYSTEM_CLOCK_CORE);
    12b4:	2000      	movs	r0, #0
    12b6:	f7ff fe99 	bl	fec <clock_get_system_clock_freq>
    12ba:	0003      	movs	r3, r0
D:\CQ9008\sample_codes\Release_example_240606\puf_template\debug/../sdk/platform/drivers/src/clock_tw9001.c:1535
    status_t return_code = STATUS_SUCCESS;
    12bc:	2000      	movs	r0, #0
D:\CQ9008\sample_codes\Release_example_240606\puf_template\debug/../sdk/platform/drivers/src/clock_tw9001.c:1625
    if (p_frequency != NULL)
    12be:	2c00      	cmp	r4, #0
    12c0:	d000      	beq.n	12c4 <clock_get_scg_clock_freq+0x20>
D:\CQ9008\sample_codes\Release_example_240606\puf_template\debug/../sdk/platform/drivers/src/clock_tw9001.c:1627
        *p_frequency = freq;
    12c2:	6023      	str	r3, [r4, #0]
D:\CQ9008\sample_codes\Release_example_240606\puf_template\debug/../sdk/platform/drivers/src/clock_tw9001.c:1631
}
    12c4:	bd10      	pop	{r4, pc}
D:\CQ9008\sample_codes\Release_example_240606\puf_template\debug/../sdk/platform/drivers/src/clock_tw9001.c:1548
            freq = clock_get_system_clock_freq(SCG_SYSTEM_CLOCK_BUS);
    12c6:	2001      	movs	r0, #1
    12c8:	f7ff fe90 	bl	fec <clock_get_system_clock_freq>
    12cc:	0003      	movs	r3, r0
D:\CQ9008\sample_codes\Release_example_240606\puf_template\debug/../sdk/platform/drivers/src/clock_tw9001.c:1535
    status_t return_code = STATUS_SUCCESS;
    12ce:	2000      	movs	r0, #0
D:\CQ9008\sample_codes\Release_example_240606\puf_template\debug/../sdk/platform/drivers/src/clock_tw9001.c:1550
        break;
    12d0:	e7f5      	b.n	12be <clock_get_scg_clock_freq+0x1a>
D:\CQ9008\sample_codes\Release_example_240606\puf_template\debug/../sdk/platform/drivers/src/clock_tw9001.c:1553
            freq = clock_get_system_clock_freq(SCG_SYSTEM_CLOCK_SLOW);
    12d2:	2002      	movs	r0, #2
    12d4:	f7ff fe8a 	bl	fec <clock_get_system_clock_freq>
    12d8:	0003      	movs	r3, r0
D:\CQ9008\sample_codes\Release_example_240606\puf_template\debug/../sdk/platform/drivers/src/clock_tw9001.c:1535
    status_t return_code = STATUS_SUCCESS;
    12da:	2000      	movs	r0, #0
D:\CQ9008\sample_codes\Release_example_240606\puf_template\debug/../sdk/platform/drivers/src/clock_tw9001.c:1555
        break;
    12dc:	e7ef      	b.n	12be <clock_get_scg_clock_freq+0x1a>
D:\CQ9008\sample_codes\Release_example_240606\puf_template\debug/../sdk/platform/drivers/src/clock_tw9001.c:1558
            freq = clock_get_sim_clk_out_freq();
    12de:	f7ff ff9b 	bl	1218 <clock_get_sim_clk_out_freq>
    12e2:	0003      	movs	r3, r0
D:\CQ9008\sample_codes\Release_example_240606\puf_template\debug/../sdk/platform/drivers/src/clock_tw9001.c:1535
    status_t return_code = STATUS_SUCCESS;
    12e4:	2000      	movs	r0, #0
D:\CQ9008\sample_codes\Release_example_240606\puf_template\debug/../sdk/platform/drivers/src/clock_tw9001.c:1560
        break;
    12e6:	e7ea      	b.n	12be <clock_get_scg_clock_freq+0x1a>
D:\CQ9008\sample_codes\Release_example_240606\puf_template\debug/../sdk/platform/drivers/src/clock_tw9001.c:1565
            freq = clock_get_sirc_freq();
    12e8:	f7ff fcaa 	bl	c40 <clock_get_sirc_freq>
    12ec:	0003      	movs	r3, r0
D:\CQ9008\sample_codes\Release_example_240606\puf_template\debug/../sdk/platform/drivers/src/clock_tw9001.c:1535
    status_t return_code = STATUS_SUCCESS;
    12ee:	2000      	movs	r0, #0
D:\CQ9008\sample_codes\Release_example_240606\puf_template\debug/../sdk/platform/drivers/src/clock_tw9001.c:1567
        break;
    12f0:	e7e5      	b.n	12be <clock_get_scg_clock_freq+0x1a>
D:\CQ9008\sample_codes\Release_example_240606\puf_template\debug/../sdk/platform/drivers/src/clock_tw9001.c:1570
            freq = clock_get_firc_freq();
    12f2:	f7ff fcd5 	bl	ca0 <clock_get_firc_freq>
    12f6:	0003      	movs	r3, r0
D:\CQ9008\sample_codes\Release_example_240606\puf_template\debug/../sdk/platform/drivers/src/clock_tw9001.c:1535
    status_t return_code = STATUS_SUCCESS;
    12f8:	2000      	movs	r0, #0
D:\CQ9008\sample_codes\Release_example_240606\puf_template\debug/../sdk/platform/drivers/src/clock_tw9001.c:1572
        break;
    12fa:	e7e0      	b.n	12be <clock_get_scg_clock_freq+0x1a>
D:\CQ9008\sample_codes\Release_example_240606\puf_template\debug/../sdk/platform/drivers/src/clock_tw9001.c:1575
            freq = clock_get_sys_osc_freq();
    12fc:	f7ff fc62 	bl	bc4 <clock_get_sys_osc_freq>
    1300:	0003      	movs	r3, r0
D:\CQ9008\sample_codes\Release_example_240606\puf_template\debug/../sdk/platform/drivers/src/clock_tw9001.c:1535
    status_t return_code = STATUS_SUCCESS;
    1302:	2000      	movs	r0, #0
D:\CQ9008\sample_codes\Release_example_240606\puf_template\debug/../sdk/platform/drivers/src/clock_tw9001.c:1577
        break;
    1304:	e7db      	b.n	12be <clock_get_scg_clock_freq+0x1a>
D:\CQ9008\sample_codes\Release_example_240606\puf_template\debug/../sdk/platform/drivers/src/clock_tw9001.c:1580
            freq = g_rtc_clk_in_freq;
    1306:	4b1c      	ldr	r3, [pc, #112]	; (1378 <clock_get_scg_clock_freq+0xd4>)
    1308:	681b      	ldr	r3, [r3, #0]
D:\CQ9008\sample_codes\Release_example_240606\puf_template\debug/../sdk/platform/drivers/src/clock_tw9001.c:1535
    status_t return_code = STATUS_SUCCESS;
    130a:	2000      	movs	r0, #0
D:\CQ9008\sample_codes\Release_example_240606\puf_template\debug/../sdk/platform/drivers/src/clock_tw9001.c:1582
        break;
    130c:	e7d7      	b.n	12be <clock_get_scg_clock_freq+0x1a>
D:\CQ9008\sample_codes\Release_example_240606\puf_template\debug/../sdk/platform/drivers/src/clock_tw9001.c:1585
            freq = clock_get_scg_clk_out_freq();
    130e:	f7ff fea1 	bl	1054 <clock_get_scg_clk_out_freq>
    1312:	0003      	movs	r3, r0
D:\CQ9008\sample_codes\Release_example_240606\puf_template\debug/../sdk/platform/drivers/src/clock_tw9001.c:1535
    status_t return_code = STATUS_SUCCESS;
    1314:	2000      	movs	r0, #0
D:\CQ9008\sample_codes\Release_example_240606\puf_template\debug/../sdk/platform/drivers/src/clock_tw9001.c:1587
        break;
    1316:	e7d2      	b.n	12be <clock_get_scg_clock_freq+0x1a>
D:\CQ9008\sample_codes\Release_example_240606\puf_template\debug/../sdk/platform/drivers/src/clock_tw9001.c:1590
            freq = clock_get_sys_async_freq(SIRC_CLK, SCG_ASYNC_CLOCK_DIV1);
    1318:	2100      	movs	r1, #0
    131a:	2004      	movs	r0, #4
    131c:	f7ff febc 	bl	1098 <clock_get_sys_async_freq>
    1320:	0003      	movs	r3, r0
D:\CQ9008\sample_codes\Release_example_240606\puf_template\debug/../sdk/platform/drivers/src/clock_tw9001.c:1535
    status_t return_code = STATUS_SUCCESS;
    1322:	2000      	movs	r0, #0
D:\CQ9008\sample_codes\Release_example_240606\puf_template\debug/../sdk/platform/drivers/src/clock_tw9001.c:1592
        break;
    1324:	e7cb      	b.n	12be <clock_get_scg_clock_freq+0x1a>
D:\CQ9008\sample_codes\Release_example_240606\puf_template\debug/../sdk/platform/drivers/src/clock_tw9001.c:1595
            freq = clock_get_sys_async_freq(SIRC_CLK, SCG_ASYNC_CLOCK_DIV2);
    1326:	2101      	movs	r1, #1
    1328:	2004      	movs	r0, #4
    132a:	f7ff feb5 	bl	1098 <clock_get_sys_async_freq>
    132e:	0003      	movs	r3, r0
D:\CQ9008\sample_codes\Release_example_240606\puf_template\debug/../sdk/platform/drivers/src/clock_tw9001.c:1535
    status_t return_code = STATUS_SUCCESS;
    1330:	2000      	movs	r0, #0
D:\CQ9008\sample_codes\Release_example_240606\puf_template\debug/../sdk/platform/drivers/src/clock_tw9001.c:1597
        break;
    1332:	e7c4      	b.n	12be <clock_get_scg_clock_freq+0x1a>
D:\CQ9008\sample_codes\Release_example_240606\puf_template\debug/../sdk/platform/drivers/src/clock_tw9001.c:1600
            freq = clock_get_sys_async_freq(FIRC_CLK, SCG_ASYNC_CLOCK_DIV1);
    1334:	2100      	movs	r1, #0
    1336:	2005      	movs	r0, #5
    1338:	f7ff feae 	bl	1098 <clock_get_sys_async_freq>
    133c:	0003      	movs	r3, r0
D:\CQ9008\sample_codes\Release_example_240606\puf_template\debug/../sdk/platform/drivers/src/clock_tw9001.c:1535
    status_t return_code = STATUS_SUCCESS;
    133e:	2000      	movs	r0, #0
D:\CQ9008\sample_codes\Release_example_240606\puf_template\debug/../sdk/platform/drivers/src/clock_tw9001.c:1602
        break;
    1340:	e7bd      	b.n	12be <clock_get_scg_clock_freq+0x1a>
D:\CQ9008\sample_codes\Release_example_240606\puf_template\debug/../sdk/platform/drivers/src/clock_tw9001.c:1605
            freq = clock_get_sys_async_freq(FIRC_CLK, SCG_ASYNC_CLOCK_DIV2);
    1342:	2101      	movs	r1, #1
    1344:	2005      	movs	r0, #5
    1346:	f7ff fea7 	bl	1098 <clock_get_sys_async_freq>
    134a:	0003      	movs	r3, r0
D:\CQ9008\sample_codes\Release_example_240606\puf_template\debug/../sdk/platform/drivers/src/clock_tw9001.c:1535
    status_t return_code = STATUS_SUCCESS;
    134c:	2000      	movs	r0, #0
D:\CQ9008\sample_codes\Release_example_240606\puf_template\debug/../sdk/platform/drivers/src/clock_tw9001.c:1607
        break;
    134e:	e7b6      	b.n	12be <clock_get_scg_clock_freq+0x1a>
D:\CQ9008\sample_codes\Release_example_240606\puf_template\debug/../sdk/platform/drivers/src/clock_tw9001.c:1610
            freq = clock_get_sys_async_freq(SOSC_CLK, SCG_ASYNC_CLOCK_DIV1);
    1350:	2100      	movs	r1, #0
    1352:	2006      	movs	r0, #6
    1354:	f7ff fea0 	bl	1098 <clock_get_sys_async_freq>
    1358:	0003      	movs	r3, r0
D:\CQ9008\sample_codes\Release_example_240606\puf_template\debug/../sdk/platform/drivers/src/clock_tw9001.c:1535
    status_t return_code = STATUS_SUCCESS;
    135a:	2000      	movs	r0, #0
D:\CQ9008\sample_codes\Release_example_240606\puf_template\debug/../sdk/platform/drivers/src/clock_tw9001.c:1612
        break;
    135c:	e7af      	b.n	12be <clock_get_scg_clock_freq+0x1a>
D:\CQ9008\sample_codes\Release_example_240606\puf_template\debug/../sdk/platform/drivers/src/clock_tw9001.c:1615
            freq = clock_get_sys_async_freq(SOSC_CLK, SCG_ASYNC_CLOCK_DIV2);
    135e:	2101      	movs	r1, #1
    1360:	2006      	movs	r0, #6
    1362:	f7ff fe99 	bl	1098 <clock_get_sys_async_freq>
    1366:	0003      	movs	r3, r0
D:\CQ9008\sample_codes\Release_example_240606\puf_template\debug/../sdk/platform/drivers/src/clock_tw9001.c:1535
    status_t return_code = STATUS_SUCCESS;
    1368:	2000      	movs	r0, #0
D:\CQ9008\sample_codes\Release_example_240606\puf_template\debug/../sdk/platform/drivers/src/clock_tw9001.c:1617
        break;
    136a:	e7a8      	b.n	12be <clock_get_scg_clock_freq+0x1a>
D:\CQ9008\sample_codes\Release_example_240606\puf_template\debug/../sdk/platform/drivers/src/clock_tw9001.c:1538
    switch (clock_name)
    136c:	2300      	movs	r3, #0
    136e:	2004      	movs	r0, #4
    1370:	e7a5      	b.n	12be <clock_get_scg_clock_freq+0x1a>
    1372:	46c0      	nop			; (mov r8, r8)
    1374:	000061e4 	.word	0x000061e4
    1378:	200002e0 	.word	0x200002e0

0000137c <clock_get_other_sim_clock_freq>:
clock_get_other_sim_clock_freq():
D:\CQ9008\sample_codes\Release_example_240606\puf_template\debug/../sdk/platform/drivers/src/clock_tw9001.c:1698
{
    137c:	b510      	push	{r4, lr}
    137e:	000c      	movs	r4, r1
D:\CQ9008\sample_codes\Release_example_240606\puf_template\debug/../sdk/platform/drivers/src/clock_tw9001.c:1702
    switch (clock_name)
    1380:	3817      	subs	r0, #23
    1382:	b2c3      	uxtb	r3, r0
    1384:	2b05      	cmp	r3, #5
    1386:	d803      	bhi.n	1390 <clock_get_other_sim_clock_freq+0x14>
    1388:	0098      	lsls	r0, r3, #2
    138a:	4b18      	ldr	r3, [pc, #96]	; (13ec <clock_get_other_sim_clock_freq+0x70>)
    138c:	581b      	ldr	r3, [r3, r0]
    138e:	469f      	mov	pc, r3
    1390:	2000      	movs	r0, #0
    1392:	e025      	b.n	13e0 <clock_get_other_sim_clock_freq+0x64>
D:\CQ9008\sample_codes\Release_example_240606\puf_template\debug/../sdk/platform/drivers/src/clock_tw9001.c:1706
            freq = clock_get_sim_clk_out_freq();
    1394:	f7ff ff40 	bl	1218 <clock_get_sim_clk_out_freq>
D:\CQ9008\sample_codes\Release_example_240606\puf_template\debug/../sdk/platform/drivers/src/clock_tw9001.c:1708
        break;
    1398:	e022      	b.n	13e0 <clock_get_other_sim_clock_freq+0x64>
D:\CQ9008\sample_codes\Release_example_240606\puf_template\debug/../sdk/platform/drivers/src/clock_tw9001.c:1711
            freq = clock_get_sim_rtc_clk_freq();
    139a:	f7ff fedd 	bl	1158 <clock_get_sim_rtc_clk_freq>
D:\CQ9008\sample_codes\Release_example_240606\puf_template\debug/../sdk/platform/drivers/src/clock_tw9001.c:1713
        break;
    139e:	e01f      	b.n	13e0 <clock_get_other_sim_clock_freq+0x64>
D:\CQ9008\sample_codes\Release_example_240606\puf_template\debug/../sdk/platform/drivers/src/clock_tw9001.c:1716
            freq = clock_get_lpo_freq();
    13a0:	f7ff ff08 	bl	11b4 <clock_get_lpo_freq>
D:\CQ9008\sample_codes\Release_example_240606\puf_template\debug/../sdk/platform/drivers/src/clock_tw9001.c:1718
        break;
    13a4:	e01c      	b.n	13e0 <clock_get_other_sim_clock_freq+0x64>
sim_get_lpo32k_status():
D:\CQ9008\sample_codes\Release_example_240606\puf_template\debug/../sdk/platform/drivers/inc/sim_access.h:119
    return (((p_base->LPOCLKS & SIM_LPOCLKS_LPO32KCLKEN_MASK) >> SIM_LPOCLKS_LPO32KCLKEN_SHIFT) !=
    13a6:	4b12      	ldr	r3, [pc, #72]	; (13f0 <clock_get_other_sim_clock_freq+0x74>)
    13a8:	691b      	ldr	r3, [r3, #16]
    13aa:	2202      	movs	r2, #2
    13ac:	0010      	movs	r0, r2
    13ae:	4018      	ands	r0, r3
clock_get_other_sim_clock_freq():
D:\CQ9008\sample_codes\Release_example_240606\puf_template\debug/../sdk/platform/drivers/src/clock_tw9001.c:1722
                                                                                 : 0UL;
    13b0:	421a      	tst	r2, r3
    13b2:	d015      	beq.n	13e0 <clock_get_other_sim_clock_freq+0x64>
sim_get_lpo1k_status():
D:\CQ9008\sample_codes\Release_example_240606\puf_template\debug/../sdk/platform/drivers/inc/sim_access.h:132
    return (((p_base->LPOCLKS & SIM_LPOCLKS_LPO1KCLKEN_MASK) >> SIM_LPOCLKS_LPO1KCLKEN_SHIFT) != 0U)
    13b4:	4b0e      	ldr	r3, [pc, #56]	; (13f0 <clock_get_other_sim_clock_freq+0x74>)
    13b6:	691b      	ldr	r3, [r3, #16]
    13b8:	3a01      	subs	r2, #1
    13ba:	0010      	movs	r0, r2
    13bc:	4018      	ands	r0, r3
clock_get_other_sim_clock_freq():
D:\CQ9008\sample_codes\Release_example_240606\puf_template\debug/../sdk/platform/drivers/src/clock_tw9001.c:1721
            freq = ((sim_get_lpo32k_status(SIM)) && (sim_get_lpo1k_status(SIM))) ? LPO_1K_FREQUENCY
    13be:	421a      	tst	r2, r3
    13c0:	d00e      	beq.n	13e0 <clock_get_other_sim_clock_freq+0x64>
D:\CQ9008\sample_codes\Release_example_240606\puf_template\debug/../sdk/platform/drivers/src/clock_tw9001.c:1722
                                                                                 : 0UL;
    13c2:	20fa      	movs	r0, #250	; 0xfa
    13c4:	0080      	lsls	r0, r0, #2
    13c6:	e00b      	b.n	13e0 <clock_get_other_sim_clock_freq+0x64>
sim_get_lpo32k_status():
D:\CQ9008\sample_codes\Release_example_240606\puf_template\debug/../sdk/platform/drivers/inc/sim_access.h:119
    return (((p_base->LPOCLKS & SIM_LPOCLKS_LPO32KCLKEN_MASK) >> SIM_LPOCLKS_LPO32KCLKEN_SHIFT) !=
    13c8:	4b09      	ldr	r3, [pc, #36]	; (13f0 <clock_get_other_sim_clock_freq+0x74>)
    13ca:	691b      	ldr	r3, [r3, #16]
    13cc:	2202      	movs	r2, #2
    13ce:	0010      	movs	r0, r2
    13d0:	4018      	ands	r0, r3
clock_get_other_sim_clock_freq():
D:\CQ9008\sample_codes\Release_example_240606\puf_template\debug/../sdk/platform/drivers/src/clock_tw9001.c:1727
            freq = sim_get_lpo32k_status(SIM) ? LPO_32K_FREQUENCY : 0UL;
    13d2:	421a      	tst	r2, r3
    13d4:	d004      	beq.n	13e0 <clock_get_other_sim_clock_freq+0x64>
    13d6:	20fa      	movs	r0, #250	; 0xfa
    13d8:	01c0      	lsls	r0, r0, #7
    13da:	e001      	b.n	13e0 <clock_get_other_sim_clock_freq+0x64>
D:\CQ9008\sample_codes\Release_example_240606\puf_template\debug/../sdk/platform/drivers/src/clock_tw9001.c:1732
            freq = LPO_128K_FREQUENCY;
    13dc:	20fa      	movs	r0, #250	; 0xfa
    13de:	0240      	lsls	r0, r0, #9
D:\CQ9008\sample_codes\Release_example_240606\puf_template\debug/../sdk/platform/drivers/src/clock_tw9001.c:1741
    if (p_frequency != NULL)
    13e0:	2c00      	cmp	r4, #0
    13e2:	d000      	beq.n	13e6 <clock_get_other_sim_clock_freq+0x6a>
D:\CQ9008\sample_codes\Release_example_240606\puf_template\debug/../sdk/platform/drivers/src/clock_tw9001.c:1743
        *p_frequency = freq;
    13e4:	6020      	str	r0, [r4, #0]
D:\CQ9008\sample_codes\Release_example_240606\puf_template\debug/../sdk/platform/drivers/src/clock_tw9001.c:1747
}
    13e6:	2000      	movs	r0, #0
    13e8:	bd10      	pop	{r4, pc}
    13ea:	46c0      	nop			; (mov r8, r8)
    13ec:	00006224 	.word	0x00006224
    13f0:	40048000 	.word	0x40048000

000013f4 <clock_get_sim_clock_freq>:
clock_get_sim_clock_freq():
D:\CQ9008\sample_codes\Release_example_240606\puf_template\debug/../sdk/platform/drivers/src/clock_tw9001.c:1639
{
    13f4:	b570      	push	{r4, r5, r6, lr}
    13f6:	b082      	sub	sp, #8
    13f8:	0004      	movs	r4, r0
    13fa:	000e      	movs	r6, r1
D:\CQ9008\sample_codes\Release_example_240606\puf_template\debug/../sdk/platform/drivers/src/clock_tw9001.c:1642
    uint32_t freq = 0U;
    13fc:	2300      	movs	r3, #0
    13fe:	9301      	str	r3, [sp, #4]
D:\CQ9008\sample_codes\Release_example_240606\puf_template\debug/../sdk/platform/drivers/src/clock_tw9001.c:1644
    switch (clock_name)
    1400:	2815      	cmp	r0, #21
    1402:	d018      	beq.n	1436 <clock_get_sim_clock_freq+0x42>
    1404:	2816      	cmp	r0, #22
    1406:	d023      	beq.n	1450 <clock_get_sim_clock_freq+0x5c>
D:\CQ9008\sample_codes\Release_example_240606\puf_template\debug/../sdk/platform/drivers/src/clock_tw9001.c:1667
            return_code = clock_get_other_sim_clock_freq(clock_name, &freq);
    1408:	a901      	add	r1, sp, #4
    140a:	f7ff ffb7 	bl	137c <clock_get_other_sim_clock_freq>
    140e:	0005      	movs	r5, r0
D:\CQ9008\sample_codes\Release_example_240606\puf_template\debug/../sdk/platform/drivers/src/clock_tw9001.c:1673
    if ((clock_name > SIM_LPO_128K_CLK) && (clock_name <= SIM_MSCM_CLK) &&
    1410:	3c1d      	subs	r4, #29
    1412:	b2e4      	uxtb	r4, r4
    1414:	2c04      	cmp	r4, #4
    1416:	d801      	bhi.n	141c <clock_get_sim_clock_freq+0x28>
D:\CQ9008\sample_codes\Release_example_240606\puf_template\debug/../sdk/platform/drivers/src/clock_tw9001.c:1673 (discriminator 1)
    1418:	2d00      	cmp	r5, #0
    141a:	d02a      	beq.n	1472 <clock_get_sim_clock_freq+0x7e>
D:\CQ9008\sample_codes\Release_example_240606\puf_template\debug/../sdk/platform/drivers/src/clock_tw9001.c:1679
    if ((freq == 0UL) && (return_code != STATUS_UNSUPPORTED))
    141c:	9b01      	ldr	r3, [sp, #4]
    141e:	2b00      	cmp	r3, #0
    1420:	d103      	bne.n	142a <clock_get_sim_clock_freq+0x36>
D:\CQ9008\sample_codes\Release_example_240606\puf_template\debug/../sdk/platform/drivers/src/clock_tw9001.c:1679 (discriminator 1)
    1422:	2d04      	cmp	r5, #4
    1424:	d001      	beq.n	142a <clock_get_sim_clock_freq+0x36>
D:\CQ9008\sample_codes\Release_example_240606\puf_template\debug/../sdk/platform/drivers/src/clock_tw9001.c:1681
        return_code = STATUS_MCU_GATED_OFF;
    1426:	2580      	movs	r5, #128	; 0x80
    1428:	006d      	lsls	r5, r5, #1
D:\CQ9008\sample_codes\Release_example_240606\puf_template\debug/../sdk/platform/drivers/src/clock_tw9001.c:1684
    if (p_frequency != NULL)
    142a:	2e00      	cmp	r6, #0
    142c:	d000      	beq.n	1430 <clock_get_sim_clock_freq+0x3c>
D:\CQ9008\sample_codes\Release_example_240606\puf_template\debug/../sdk/platform/drivers/src/clock_tw9001.c:1686
        *p_frequency = freq;
    142e:	6033      	str	r3, [r6, #0]
D:\CQ9008\sample_codes\Release_example_240606\puf_template\debug/../sdk/platform/drivers/src/clock_tw9001.c:1690
}
    1430:	0028      	movs	r0, r5
    1432:	b002      	add	sp, #8
    1434:	bd70      	pop	{r4, r5, r6, pc}
sim_get_ftm0_ext_clk_pin_mode():
D:\CQ9008\sample_codes\Release_example_240606\puf_template\debug/../sdk/platform/drivers/inc/sim_access.h:76
    return (p_base->FTMOPT0 & SIM_FTMOPT0_FTM0CLKSEL_MASK) >> SIM_FTMOPT0_FTM0CLKSEL_SHIFT;
    1436:	4b11      	ldr	r3, [pc, #68]	; (147c <clock_get_sim_clock_freq+0x88>)
    1438:	68da      	ldr	r2, [r3, #12]
    143a:	0e12      	lsrs	r2, r2, #24
    143c:	2303      	movs	r3, #3
    143e:	4013      	ands	r3, r2
clock_get_sim_clock_freq():
D:\CQ9008\sample_codes\Release_example_240606\puf_template\debug/../sdk/platform/drivers/src/clock_tw9001.c:1650
            if (clockPinSelect < NUMBER_OF_TCLK_INPUTS)
    1440:	2b02      	cmp	r3, #2
    1442:	d812      	bhi.n	146a <clock_get_sim_clock_freq+0x76>
D:\CQ9008\sample_codes\Release_example_240606\puf_template\debug/../sdk/platform/drivers/src/clock_tw9001.c:1652
                freq = g_tclk_freq[clockPinSelect];
    1444:	009b      	lsls	r3, r3, #2
    1446:	4a0e      	ldr	r2, [pc, #56]	; (1480 <clock_get_sim_clock_freq+0x8c>)
    1448:	589b      	ldr	r3, [r3, r2]
    144a:	9301      	str	r3, [sp, #4]
D:\CQ9008\sample_codes\Release_example_240606\puf_template\debug/../sdk/platform/drivers/src/clock_tw9001.c:1640
    status_t return_code = STATUS_SUCCESS;
    144c:	2500      	movs	r5, #0
    144e:	e7df      	b.n	1410 <clock_get_sim_clock_freq+0x1c>
sim_get_ftm1_ext_clk_pin_mode():
D:\CQ9008\sample_codes\Release_example_240606\puf_template\debug/../sdk/platform/drivers/inc/sim_access.h:87
    return (p_base->FTMOPT0 & SIM_FTMOPT0_FTM1CLKSEL_MASK) >> SIM_FTMOPT0_FTM1CLKSEL_SHIFT;
    1450:	4b0a      	ldr	r3, [pc, #40]	; (147c <clock_get_sim_clock_freq+0x88>)
    1452:	68da      	ldr	r2, [r3, #12]
    1454:	0e92      	lsrs	r2, r2, #26
    1456:	2303      	movs	r3, #3
    1458:	4013      	ands	r3, r2
clock_get_sim_clock_freq():
D:\CQ9008\sample_codes\Release_example_240606\puf_template\debug/../sdk/platform/drivers/src/clock_tw9001.c:1659
            if (clockPinSelect < NUMBER_OF_TCLK_INPUTS)
    145a:	2b02      	cmp	r3, #2
    145c:	d807      	bhi.n	146e <clock_get_sim_clock_freq+0x7a>
D:\CQ9008\sample_codes\Release_example_240606\puf_template\debug/../sdk/platform/drivers/src/clock_tw9001.c:1661
                freq = g_tclk_freq[clockPinSelect];
    145e:	009b      	lsls	r3, r3, #2
    1460:	4a07      	ldr	r2, [pc, #28]	; (1480 <clock_get_sim_clock_freq+0x8c>)
    1462:	589b      	ldr	r3, [r3, r2]
    1464:	9301      	str	r3, [sp, #4]
D:\CQ9008\sample_codes\Release_example_240606\puf_template\debug/../sdk/platform/drivers/src/clock_tw9001.c:1640
    status_t return_code = STATUS_SUCCESS;
    1466:	2500      	movs	r5, #0
    1468:	e7d2      	b.n	1410 <clock_get_sim_clock_freq+0x1c>
    146a:	2500      	movs	r5, #0
    146c:	e7d0      	b.n	1410 <clock_get_sim_clock_freq+0x1c>
    146e:	2500      	movs	r5, #0
    1470:	e7ce      	b.n	1410 <clock_get_sim_clock_freq+0x1c>
D:\CQ9008\sample_codes\Release_example_240606\puf_template\debug/../sdk/platform/drivers/src/clock_tw9001.c:1676
        freq = clock_get_system_clock_freq(SCG_SYSTEM_CLOCK_BUS);
    1472:	2001      	movs	r0, #1
    1474:	f7ff fdba 	bl	fec <clock_get_system_clock_freq>
    1478:	9001      	str	r0, [sp, #4]
    147a:	e7cf      	b.n	141c <clock_get_sim_clock_freq+0x28>
    147c:	40048000 	.word	0x40048000
    1480:	200002e4 	.word	0x200002e4

00001484 <clock_get_ftm_option_freq>:
clock_get_ftm_option_freq():
D:\CQ9008\sample_codes\Release_example_240606\puf_template\debug/../sdk/platform/drivers/src/clock_tw9001.c:1926
{
    1484:	b510      	push	{r4, lr}
D:\CQ9008\sample_codes\Release_example_240606\puf_template\debug/../sdk/platform/drivers/src/clock_tw9001.c:1929
    switch (clock_name)
    1486:	2838      	cmp	r0, #56	; 0x38
    1488:	d003      	beq.n	1492 <clock_get_ftm_option_freq+0xe>
    148a:	2839      	cmp	r0, #57	; 0x39
    148c:	d005      	beq.n	149a <clock_get_ftm_option_freq+0x16>
    148e:	2000      	movs	r0, #0
D:\CQ9008\sample_codes\Release_example_240606\puf_template\debug/../sdk/platform/drivers/src/clock_tw9001.c:1991
}
    1490:	bd10      	pop	{r4, pc}
D:\CQ9008\sample_codes\Release_example_240606\puf_template\debug/../sdk/platform/drivers/src/clock_tw9001.c:1933
            return_code = clock_get_sim_clock_freq(SIM_FTM0_CLOCKSEL, p_frequency);
    1492:	2015      	movs	r0, #21
    1494:	f7ff ffae 	bl	13f4 <clock_get_sim_clock_freq>
D:\CQ9008\sample_codes\Release_example_240606\puf_template\debug/../sdk/platform/drivers/src/clock_tw9001.c:1935
        break;
    1498:	e7fa      	b.n	1490 <clock_get_ftm_option_freq+0xc>
D:\CQ9008\sample_codes\Release_example_240606\puf_template\debug/../sdk/platform/drivers/src/clock_tw9001.c:1938
            return_code = clock_get_sim_clock_freq(SIM_FTM1_CLOCKSEL, p_frequency);
    149a:	2016      	movs	r0, #22
    149c:	f7ff ffaa 	bl	13f4 <clock_get_sim_clock_freq>
D:\CQ9008\sample_codes\Release_example_240606\puf_template\debug/../sdk/platform/drivers/src/clock_tw9001.c:1940
        break;
    14a0:	e7f6      	b.n	1490 <clock_get_ftm_option_freq+0xc>
	...

000014a4 <clock_get_peripheral_clock>:
clock_get_peripheral_clock():
D:\CQ9008\sample_codes\Release_example_240606\puf_template\debug/../sdk/platform/drivers/src/clock_tw9001.c:1999
{
    14a4:	b570      	push	{r4, r5, r6, lr}
    14a6:	b082      	sub	sp, #8
D:\CQ9008\sample_codes\Release_example_240606\puf_template\debug/../sdk/platform/drivers/src/clock_tw9001.c:2000
    uint32_t frequency  = 0;
    14a8:	2300      	movs	r3, #0
    14aa:	9301      	str	r3, [sp, #4]
pcc_get_frac_value_sel():
D:\CQ9008\sample_codes\Release_example_240606\puf_template\debug/../sdk/platform/drivers/inc/pcc_access.h:130
 *        - PCC_MULTPCCnLY_BY_TWO : Fractional value is one
 */
static inline uint32_t
pcc_get_frac_value_sel(const PCC_t *const p_base, const clock_names_t clock_name)
{
    return ((p_base->PCCn[g_clock_name_mappings[clock_name]] & PCC_PCCn_FRAC_MASK) >>
    14ac:	0042      	lsls	r2, r0, #1
    14ae:	4b1d      	ldr	r3, [pc, #116]	; (1524 <clock_get_peripheral_clock+0x80>)
    14b0:	5ad3      	ldrh	r3, [r2, r3]
    14b2:	4a1d      	ldr	r2, [pc, #116]	; (1528 <clock_get_peripheral_clock+0x84>)
    14b4:	009d      	lsls	r5, r3, #2
    14b6:	58ac      	ldr	r4, [r5, r2]
    14b8:	08e4      	lsrs	r4, r4, #3
    14ba:	2601      	movs	r6, #1
    14bc:	4034      	ands	r4, r6
pcc_get_divider_sel():
D:\CQ9008\sample_codes\Release_example_240606\puf_template\debug/../sdk/platform/drivers/inc/pcc_access.h:154
 *        - PCC_DIVIDE_BY_EIGTH : Divide by 8
 */
static inline uint32_t
pcc_get_divider_sel(const PCC_t *const p_base, const clock_names_t clock_name)
{
    return ((p_base->PCCn[g_clock_name_mappings[clock_name]] & PCC_PCCn_PCD_MASK) >>
    14be:	58aa      	ldr	r2, [r5, r2]
    14c0:	2507      	movs	r5, #7
    14c2:	4015      	ands	r5, r2
clock_get_peripheral_clock():
D:\CQ9008\sample_codes\Release_example_240606\puf_template\debug/../sdk/platform/drivers/src/clock_tw9001.c:2005
    if (((uint32_t)frac_value) <= ((uint32_t)div_value))
    14c4:	42a5      	cmp	r5, r4
    14c6:	d320      	bcc.n	150a <clock_get_peripheral_clock+0x66>
pcc_get_clk_mode():
D:\CQ9008\sample_codes\Release_example_240606\puf_template\debug/../sdk/platform/drivers/inc/pcc_access.h:94
    uint32_t reg_val = (uint32_t)p_base->PCCn[g_clock_name_mappings[clock_name]];
    14c8:	009a      	lsls	r2, r3, #2
    14ca:	4e17      	ldr	r6, [pc, #92]	; (1528 <clock_get_peripheral_clock+0x84>)
    14cc:	5992      	ldr	r2, [r2, r6]
clock_get_peripheral_clock():
D:\CQ9008\sample_codes\Release_example_240606\puf_template\debug/../sdk/platform/drivers/src/clock_tw9001.c:2008
        if (pcc_get_clk_mode(PCC, clock_name))
    14ce:	0052      	lsls	r2, r2, #1
    14d0:	d51b      	bpl.n	150a <clock_get_peripheral_clock+0x66>
pcc_get_clk_source_sel():
D:\CQ9008\sample_codes\Release_example_240606\puf_template\debug/../sdk/platform/drivers/inc/pcc_access.h:111
    return ((p_base->PCCn[g_clock_name_mappings[clock_name]] & PCC_PCCn_PCS_MASK) >>
    14d2:	009b      	lsls	r3, r3, #2
    14d4:	599a      	ldr	r2, [r3, r6]
    14d6:	0e12      	lsrs	r2, r2, #24
    14d8:	2307      	movs	r3, #7
    14da:	4013      	ands	r3, r2
clock_get_peripheral_clock():
D:\CQ9008\sample_codes\Release_example_240606\puf_template\debug/../sdk/platform/drivers/src/clock_tw9001.c:2011
            switch (pcc_get_clk_source_sel(PCC, clock_name))
    14dc:	2b02      	cmp	r3, #2
    14de:	d017      	beq.n	1510 <clock_get_peripheral_clock+0x6c>
    14e0:	2b03      	cmp	r3, #3
    14e2:	d01a      	beq.n	151a <clock_get_peripheral_clock+0x76>
    14e4:	2b01      	cmp	r3, #1
    14e6:	d004      	beq.n	14f2 <clock_get_peripheral_clock+0x4e>
D:\CQ9008\sample_codes\Release_example_240606\puf_template\debug/../sdk/platform/drivers/src/clock_tw9001.c:2038
                    (void)clock_get_ftm_option_freq(clock_name, &frequency);
    14e8:	a901      	add	r1, sp, #4
    14ea:	f7ff ffcb 	bl	1484 <clock_get_ftm_option_freq>
D:\CQ9008\sample_codes\Release_example_240606\puf_template\debug/../sdk/platform/drivers/src/clock_tw9001.c:2039
                    div_value = 0U;
    14ee:	2500      	movs	r5, #0
D:\CQ9008\sample_codes\Release_example_240606\puf_template\debug/../sdk/platform/drivers/src/clock_tw9001.c:2041
                break;
    14f0:	e003      	b.n	14fa <clock_get_peripheral_clock+0x56>
D:\CQ9008\sample_codes\Release_example_240606\puf_template\debug/../sdk/platform/drivers/src/clock_tw9001.c:2015
                    frequency = clock_get_sys_async_freq(SOSC_CLK, divider);
    14f2:	2006      	movs	r0, #6
    14f4:	f7ff fdd0 	bl	1098 <clock_get_sys_async_freq>
    14f8:	9001      	str	r0, [sp, #4]
D:\CQ9008\sample_codes\Release_example_240606\puf_template\debug/../sdk/platform/drivers/src/clock_tw9001.c:2044
            frequency = frequency / (div_value + 1U);
    14fa:	1c69      	adds	r1, r5, #1
    14fc:	9801      	ldr	r0, [sp, #4]
    14fe:	f7fe fe19 	bl	134 <__udivsi3>
    1502:	9001      	str	r0, [sp, #4]
D:\CQ9008\sample_codes\Release_example_240606\puf_template\debug/../sdk/platform/drivers/src/clock_tw9001.c:2045
            frequency = frequency * (frac_value + 1U);
    1504:	3401      	adds	r4, #1
    1506:	4344      	muls	r4, r0
    1508:	9401      	str	r4, [sp, #4]
D:\CQ9008\sample_codes\Release_example_240606\puf_template\debug/../sdk/platform/drivers/src/clock_tw9001.c:2050
}
    150a:	9801      	ldr	r0, [sp, #4]
    150c:	b002      	add	sp, #8
    150e:	bd70      	pop	{r4, r5, r6, pc}
D:\CQ9008\sample_codes\Release_example_240606\puf_template\debug/../sdk/platform/drivers/src/clock_tw9001.c:2020
                    frequency = clock_get_sys_async_freq(SIRC_CLK, divider);
    1510:	2004      	movs	r0, #4
    1512:	f7ff fdc1 	bl	1098 <clock_get_sys_async_freq>
    1516:	9001      	str	r0, [sp, #4]
D:\CQ9008\sample_codes\Release_example_240606\puf_template\debug/../sdk/platform/drivers/src/clock_tw9001.c:2022
                break;
    1518:	e7ef      	b.n	14fa <clock_get_peripheral_clock+0x56>
D:\CQ9008\sample_codes\Release_example_240606\puf_template\debug/../sdk/platform/drivers/src/clock_tw9001.c:2025
                    frequency = clock_get_sys_async_freq(FIRC_CLK, divider);
    151a:	2005      	movs	r0, #5
    151c:	f7ff fdbc 	bl	1098 <clock_get_sys_async_freq>
    1520:	9001      	str	r0, [sp, #4]
D:\CQ9008\sample_codes\Release_example_240606\puf_template\debug/../sdk/platform/drivers/src/clock_tw9001.c:2027
                break;
    1522:	e7ea      	b.n	14fa <clock_get_peripheral_clock+0x56>
    1524:	0000623c 	.word	0x0000623c
    1528:	40065000 	.word	0x40065000

0000152c <clock_get_pcc_clock_freq>:
clock_get_pcc_clock_freq():
D:\CQ9008\sample_codes\Release_example_240606\puf_template\debug/../sdk/platform/drivers/src/clock_tw9001.c:1844
{
    152c:	b5f8      	push	{r3, r4, r5, r6, r7, lr}
    152e:	0005      	movs	r5, r0
    1530:	000e      	movs	r6, r1
D:\CQ9008\sample_codes\Release_example_240606\puf_template\debug/../sdk/platform/drivers/src/clock_tw9001.c:1849
    return_code = clock_check_pcc_clock(clock_name);
    1532:	f7ff fb09 	bl	b48 <clock_check_pcc_clock>
    1536:	1e04      	subs	r4, r0, #0
D:\CQ9008\sample_codes\Release_example_240606\puf_template\debug/../sdk/platform/drivers/src/clock_tw9001.c:1851
    if (return_code == STATUS_SUCCESS)
    1538:	d13b      	bne.n	15b2 <clock_get_pcc_clock_freq+0x86>
D:\CQ9008\sample_codes\Release_example_240606\puf_template\debug/../sdk/platform/drivers/src/clock_tw9001.c:1853
        if ((g_peripheral_features_list[clock_name] & HAS_INT_CLOCK_FROM_BUS_CLOCK) != 0U)
    153a:	4b22      	ldr	r3, [pc, #136]	; (15c4 <clock_get_pcc_clock_freq+0x98>)
    153c:	5d5f      	ldrb	r7, [r3, r5]
    153e:	06bb      	lsls	r3, r7, #26
    1540:	d406      	bmi.n	1550 <clock_get_pcc_clock_freq+0x24>
D:\CQ9008\sample_codes\Release_example_240606\puf_template\debug/../sdk/platform/drivers/src/clock_tw9001.c:1860
        else if ((g_peripheral_features_list[clock_name] & HAS_INT_CLOCK_FROM_SYS_CLOCK) != 0U)
    1542:	067b      	lsls	r3, r7, #25
    1544:	d418      	bmi.n	1578 <clock_get_pcc_clock_freq+0x4c>
D:\CQ9008\sample_codes\Release_example_240606\puf_template\debug/../sdk/platform/drivers/src/clock_tw9001.c:1867
        else if ((g_peripheral_features_list[clock_name] & HAS_INT_CLOCK_FROM_SLOW_CLOCK) != 0U)
    1546:	b27b      	sxtb	r3, r7
    1548:	2b00      	cmp	r3, #0
    154a:	db1d      	blt.n	1588 <clock_get_pcc_clock_freq+0x5c>
DevAssert():
D:\CQ9008\sample_codes\Release_example_240606\puf_template\debug/../sdk/platform/devices/devassert.h:36
        BKPT_ASM;
    154c:	be00      	bkpt	0x0000
D:\CQ9008\sample_codes\Release_example_240606\puf_template\debug/../sdk/platform/devices/devassert.h:37
        for (;;)
    154e:	e7fe      	b.n	154e <clock_get_pcc_clock_freq+0x22>
clock_get_pcc_clock_freq():
D:\CQ9008\sample_codes\Release_example_240606\puf_template\debug/../sdk/platform/drivers/src/clock_tw9001.c:1856
            interface_freq = clock_get_system_clock_freq(SCG_SYSTEM_CLOCK_BUS);
    1550:	2001      	movs	r0, #1
    1552:	f7ff fd4b 	bl	fec <clock_get_system_clock_freq>
D:\CQ9008\sample_codes\Release_example_240606\puf_template\debug/../sdk/platform/drivers/src/clock_tw9001.c:1858
                (status_t)((interface_freq == 0U) ? STATUS_MCU_GATED_OFF : STATUS_SUCCESS);
    1556:	2800      	cmp	r0, #0
    1558:	d01e      	beq.n	1598 <clock_get_pcc_clock_freq+0x6c>
D:\CQ9008\sample_codes\Release_example_240606\puf_template\debug/../sdk/platform/drivers/src/clock_tw9001.c:1880
        if (return_code == STATUS_SUCCESS)
    155a:	2c00      	cmp	r4, #0
    155c:	d12f      	bne.n	15be <clock_get_pcc_clock_freq+0x92>
D:\CQ9008\sample_codes\Release_example_240606\puf_template\debug/../sdk/platform/drivers/src/clock_tw9001.c:1883
            if ((g_peripheral_features_list[clock_name] &
    155e:	2318      	movs	r3, #24
    1560:	423b      	tst	r3, r7
    1562:	d027      	beq.n	15b4 <clock_get_pcc_clock_freq+0x88>
D:\CQ9008\sample_codes\Release_example_240606\puf_template\debug/../sdk/platform/drivers/src/clock_tw9001.c:1886
                if ((g_peripheral_features_list[clock_name] & HAS_PROTOCOL_CLOCK_FROM_ASYNC1) != 0U)
    1564:	073b      	lsls	r3, r7, #28
    1566:	d41a      	bmi.n	159e <clock_get_pcc_clock_freq+0x72>
D:\CQ9008\sample_codes\Release_example_240606\puf_template\debug/../sdk/platform/drivers/src/clock_tw9001.c:1846
    uint32_t freq           = 0U;
    1568:	2000      	movs	r0, #0
D:\CQ9008\sample_codes\Release_example_240606\puf_template\debug/../sdk/platform/drivers/src/clock_tw9001.c:1892
                if ((g_peripheral_features_list[clock_name] & HAS_PROTOCOL_CLOCK_FROM_ASYNC2) != 0U)
    156a:	06fb      	lsls	r3, r7, #27
    156c:	d41c      	bmi.n	15a8 <clock_get_pcc_clock_freq+0x7c>
D:\CQ9008\sample_codes\Release_example_240606\puf_template\debug/../sdk/platform/drivers/src/clock_tw9001.c:1898
                if (freq == 0U)
    156e:	2800      	cmp	r0, #0
    1570:	d120      	bne.n	15b4 <clock_get_pcc_clock_freq+0x88>
D:\CQ9008\sample_codes\Release_example_240606\puf_template\debug/../sdk/platform/drivers/src/clock_tw9001.c:1900
                    return_code = STATUS_MCU_GATED_OFF;
    1572:	2480      	movs	r4, #128	; 0x80
    1574:	0064      	lsls	r4, r4, #1
    1576:	e01d      	b.n	15b4 <clock_get_pcc_clock_freq+0x88>
D:\CQ9008\sample_codes\Release_example_240606\puf_template\debug/../sdk/platform/drivers/src/clock_tw9001.c:1863
            interface_freq = clock_get_system_clock_freq(SCG_SYSTEM_CLOCK_CORE);
    1578:	2000      	movs	r0, #0
    157a:	f7ff fd37 	bl	fec <clock_get_system_clock_freq>
D:\CQ9008\sample_codes\Release_example_240606\puf_template\debug/../sdk/platform/drivers/src/clock_tw9001.c:1865
                (status_t)((interface_freq == 0U) ? STATUS_MCU_GATED_OFF : STATUS_SUCCESS);
    157e:	2800      	cmp	r0, #0
    1580:	d1eb      	bne.n	155a <clock_get_pcc_clock_freq+0x2e>
    1582:	2480      	movs	r4, #128	; 0x80
    1584:	0064      	lsls	r4, r4, #1
    1586:	e7e8      	b.n	155a <clock_get_pcc_clock_freq+0x2e>
D:\CQ9008\sample_codes\Release_example_240606\puf_template\debug/../sdk/platform/drivers/src/clock_tw9001.c:1870
            interface_freq = clock_get_system_clock_freq(SCG_SYSTEM_CLOCK_SLOW);
    1588:	2002      	movs	r0, #2
    158a:	f7ff fd2f 	bl	fec <clock_get_system_clock_freq>
D:\CQ9008\sample_codes\Release_example_240606\puf_template\debug/../sdk/platform/drivers/src/clock_tw9001.c:1872
                (status_t)((interface_freq == 0U) ? STATUS_MCU_GATED_OFF : STATUS_SUCCESS);
    158e:	2800      	cmp	r0, #0
    1590:	d1e3      	bne.n	155a <clock_get_pcc_clock_freq+0x2e>
    1592:	2480      	movs	r4, #128	; 0x80
    1594:	0064      	lsls	r4, r4, #1
    1596:	e7e0      	b.n	155a <clock_get_pcc_clock_freq+0x2e>
D:\CQ9008\sample_codes\Release_example_240606\puf_template\debug/../sdk/platform/drivers/src/clock_tw9001.c:1858
                (status_t)((interface_freq == 0U) ? STATUS_MCU_GATED_OFF : STATUS_SUCCESS);
    1598:	2480      	movs	r4, #128	; 0x80
    159a:	0064      	lsls	r4, r4, #1
    159c:	e7dd      	b.n	155a <clock_get_pcc_clock_freq+0x2e>
D:\CQ9008\sample_codes\Release_example_240606\puf_template\debug/../sdk/platform/drivers/src/clock_tw9001.c:1889
                    freq = clock_get_peripheral_clock(clock_name, SCG_ASYNC_CLOCK_DIV1);
    159e:	2100      	movs	r1, #0
    15a0:	0028      	movs	r0, r5
    15a2:	f7ff ff7f 	bl	14a4 <clock_get_peripheral_clock>
    15a6:	e7e0      	b.n	156a <clock_get_pcc_clock_freq+0x3e>
D:\CQ9008\sample_codes\Release_example_240606\puf_template\debug/../sdk/platform/drivers/src/clock_tw9001.c:1895
                    freq = clock_get_peripheral_clock(clock_name, SCG_ASYNC_CLOCK_DIV2);
    15a8:	2101      	movs	r1, #1
    15aa:	0028      	movs	r0, r5
    15ac:	f7ff ff7a 	bl	14a4 <clock_get_peripheral_clock>
    15b0:	e7dd      	b.n	156e <clock_get_pcc_clock_freq+0x42>
D:\CQ9008\sample_codes\Release_example_240606\puf_template\debug/../sdk/platform/drivers/src/clock_tw9001.c:1846
    uint32_t freq           = 0U;
    15b2:	2000      	movs	r0, #0
D:\CQ9008\sample_codes\Release_example_240606\puf_template\debug/../sdk/platform/drivers/src/clock_tw9001.c:1912
    if (p_frequency != NULL)
    15b4:	2e00      	cmp	r6, #0
    15b6:	d000      	beq.n	15ba <clock_get_pcc_clock_freq+0x8e>
D:\CQ9008\sample_codes\Release_example_240606\puf_template\debug/../sdk/platform/drivers/src/clock_tw9001.c:1914
        *p_frequency = freq;
    15b8:	6030      	str	r0, [r6, #0]
D:\CQ9008\sample_codes\Release_example_240606\puf_template\debug/../sdk/platform/drivers/src/clock_tw9001.c:1918
}
    15ba:	0020      	movs	r0, r4
    15bc:	bdf8      	pop	{r3, r4, r5, r6, r7, pc}
D:\CQ9008\sample_codes\Release_example_240606\puf_template\debug/../sdk/platform/drivers/src/clock_tw9001.c:1846
    uint32_t freq           = 0U;
    15be:	2000      	movs	r0, #0
    15c0:	e7f8      	b.n	15b4 <clock_get_pcc_clock_freq+0x88>
    15c2:	46c0      	nop			; (mov r8, r8)
    15c4:	000062d4 	.word	0x000062d4

000015c8 <clock_init>:
clock_init():
D:\CQ9008\sample_codes\Release_example_240606\puf_template\debug/../sdk/platform/drivers/src/clock_tw9001.c:334
{
    15c8:	b530      	push	{r4, r5, lr}
    15ca:	b097      	sub	sp, #92	; 0x5c
    15cc:	0004      	movs	r4, r0
D:\CQ9008\sample_codes\Release_example_240606\puf_template\debug/../sdk/platform/drivers/src/clock_tw9001.c:339
    DEV_ASSERT(clock_get_current_run_mode() == SCG_SYSTEM_CLOCK_MODE_RUN);
    15ce:	f7ff fae5 	bl	b9c <clock_get_current_run_mode>
DevAssert():
D:\CQ9008\sample_codes\Release_example_240606\puf_template\debug/../sdk/platform/devices/devassert.h:31
    if (x)
    15d2:	2801      	cmp	r0, #1
    15d4:	d001      	beq.n	15da <clock_init+0x12>
D:\CQ9008\sample_codes\Release_example_240606\puf_template\debug/../sdk/platform/devices/devassert.h:36
        BKPT_ASM;
    15d6:	be00      	bkpt	0x0000
D:\CQ9008\sample_codes\Release_example_240606\puf_template\debug/../sdk/platform/devices/devassert.h:37
        for (;;)
    15d8:	e7fe      	b.n	15d8 <clock_init+0x10>
clock_init():
D:\CQ9008\sample_codes\Release_example_240606\puf_template\debug/../sdk/platform/drivers/src/clock_tw9001.c:341
    if (p_config == NULL)
    15da:	2c00      	cmp	r4, #0
    15dc:	d007      	beq.n	15ee <clock_init+0x26>
D:\CQ9008\sample_codes\Release_example_240606\puf_template\debug/../sdk/platform/drivers/src/clock_tw9001.c:349
    result = clock_set_scg_config(&p_cfg->scg_config);
    15de:	0020      	movs	r0, r4
    15e0:	f7ff fcc2 	bl	f68 <clock_set_scg_config>
    15e4:	1e05      	subs	r5, r0, #0
D:\CQ9008\sample_codes\Release_example_240606\puf_template\debug/../sdk/platform/drivers/src/clock_tw9001.c:351
    if (STATUS_SUCCESS == result)
    15e6:	d007      	beq.n	15f8 <clock_init+0x30>
D:\CQ9008\sample_codes\Release_example_240606\puf_template\debug/../sdk/platform/drivers/src/clock_tw9001.c:361
}
    15e8:	0028      	movs	r0, r5
    15ea:	b017      	add	sp, #92	; 0x5c
    15ec:	bd30      	pop	{r4, r5, pc}
D:\CQ9008\sample_codes\Release_example_240606\puf_template\debug/../sdk/platform/drivers/src/clock_tw9001.c:344
        clock_get_default_config(&config_default);
    15ee:	4668      	mov	r0, sp
    15f0:	f7ff fa60 	bl	ab4 <clock_get_default_config>
D:\CQ9008\sample_codes\Release_example_240606\puf_template\debug/../sdk/platform/drivers/src/clock_tw9001.c:345
        p_cfg = &config_default;
    15f4:	466c      	mov	r4, sp
    15f6:	e7f2      	b.n	15de <clock_init+0x16>
D:\CQ9008\sample_codes\Release_example_240606\puf_template\debug/../sdk/platform/drivers/src/clock_tw9001.c:354
        clock_set_sim_config(&p_cfg->sim_config);
    15f8:	0020      	movs	r0, r4
    15fa:	302c      	adds	r0, #44	; 0x2c
    15fc:	f7ff f9c2 	bl	984 <clock_set_sim_config>
D:\CQ9008\sample_codes\Release_example_240606\puf_template\debug/../sdk/platform/drivers/src/clock_tw9001.c:357
        clcok_set_pcc_config(&p_cfg->pcc_config);
    1600:	0020      	movs	r0, r4
    1602:	3050      	adds	r0, #80	; 0x50
    1604:	f7ff f97a 	bl	8fc <clcok_set_pcc_config>
    1608:	e7ee      	b.n	15e8 <clock_init+0x20>

0000160a <clock_get_freq>:
clock_get_freq():
D:\CQ9008\sample_codes\Release_example_240606\puf_template\debug/../sdk/platform/drivers/src/clock_tw9001.c:665
{
    160a:	b510      	push	{r4, lr}
D:\CQ9008\sample_codes\Release_example_240606\puf_template\debug/../sdk/platform/drivers/src/clock_tw9001.c:669
    if (clock_name < SCG_END_OF_CLOCKS)
    160c:	2811      	cmp	r0, #17
    160e:	d905      	bls.n	161c <clock_get_freq+0x12>
D:\CQ9008\sample_codes\Release_example_240606\puf_template\debug/../sdk/platform/drivers/src/clock_tw9001.c:674
    else if (clock_name < SIM_END_OF_CLOCKS)
    1610:	2821      	cmp	r0, #33	; 0x21
    1612:	d906      	bls.n	1622 <clock_get_freq+0x18>
D:\CQ9008\sample_codes\Release_example_240606\puf_template\debug/../sdk/platform/drivers/src/clock_tw9001.c:679
    else if (clock_name < PCC_END_OF_CLOCKS)
    1614:	2849      	cmp	r0, #73	; 0x49
    1616:	d907      	bls.n	1628 <clock_get_freq+0x1e>
D:\CQ9008\sample_codes\Release_example_240606\puf_template\debug/../sdk/platform/drivers/src/clock_tw9001.c:686
        returnCode = STATUS_UNSUPPORTED;
    1618:	2004      	movs	r0, #4
    161a:	e001      	b.n	1620 <clock_get_freq+0x16>
D:\CQ9008\sample_codes\Release_example_240606\puf_template\debug/../sdk/platform/drivers/src/clock_tw9001.c:671
        returnCode = clock_get_scg_clock_freq(clock_name, p_frequency);
    161c:	f7ff fe42 	bl	12a4 <clock_get_scg_clock_freq>
D:\CQ9008\sample_codes\Release_example_240606\puf_template\debug/../sdk/platform/drivers/src/clock_tw9001.c:690
}
    1620:	bd10      	pop	{r4, pc}
D:\CQ9008\sample_codes\Release_example_240606\puf_template\debug/../sdk/platform/drivers/src/clock_tw9001.c:676
        returnCode = clock_get_sim_clock_freq(clock_name, p_frequency);
    1622:	f7ff fee7 	bl	13f4 <clock_get_sim_clock_freq>
    1626:	e7fb      	b.n	1620 <clock_get_freq+0x16>
D:\CQ9008\sample_codes\Release_example_240606\puf_template\debug/../sdk/platform/drivers/src/clock_tw9001.c:681
        returnCode = clock_get_pcc_clock_freq(clock_name, p_frequency);
    1628:	f7ff ff80 	bl	152c <clock_get_pcc_clock_freq>
    162c:	e7f8      	b.n	1620 <clock_get_freq+0x16>
	...

00001630 <clock_init_config>:
clock_init_config():
D:\CQ9008\sample_codes\Release_example_240606\puf_template\debug/../sdk/platform/drivers/src/clock_tw9001.c:706
{
    1630:	b510      	push	{r4, lr}
DevAssert():
D:\CQ9008\sample_codes\Release_example_240606\puf_template\debug/../sdk/platform/devices/devassert.h:31
    if (x)
    1632:	2800      	cmp	r0, #0
    1634:	d101      	bne.n	163a <clock_init_config+0xa>
D:\CQ9008\sample_codes\Release_example_240606\puf_template\debug/../sdk/platform/devices/devassert.h:36
        BKPT_ASM;
    1636:	be00      	bkpt	0x0000
D:\CQ9008\sample_codes\Release_example_240606\puf_template\debug/../sdk/platform/devices/devassert.h:37
        for (;;)
    1638:	e7fe      	b.n	1638 <clock_init_config+0x8>
D:\CQ9008\sample_codes\Release_example_240606\puf_template\debug/../sdk/platform/devices/devassert.h:31
    if (x)
    163a:	2a00      	cmp	r2, #0
    163c:	d101      	bne.n	1642 <clock_init_config+0x12>
D:\CQ9008\sample_codes\Release_example_240606\puf_template\debug/../sdk/platform/devices/devassert.h:36
        BKPT_ASM;
    163e:	be00      	bkpt	0x0000
D:\CQ9008\sample_codes\Release_example_240606\puf_template\debug/../sdk/platform/devices/devassert.h:37
        for (;;)
    1640:	e7fe      	b.n	1640 <clock_init_config+0x10>
clock_init_config():
D:\CQ9008\sample_codes\Release_example_240606\puf_template\debug/../sdk/platform/drivers/src/clock_tw9001.c:710
    s_clock_state.pp_config_table    = pp_clock_configs_ptr;
    1642:	4c04      	ldr	r4, [pc, #16]	; (1654 <clock_init_config+0x24>)
    1644:	6020      	str	r0, [r4, #0]
D:\CQ9008\sample_codes\Release_example_240606\puf_template\debug/../sdk/platform/drivers/src/clock_tw9001.c:711
    s_clock_state.clock_config_num   = configs_number;
    1646:	7121      	strb	r1, [r4, #4]
D:\CQ9008\sample_codes\Release_example_240606\puf_template\debug/../sdk/platform/drivers/src/clock_tw9001.c:712
    s_clock_state.pp_callback_config = pp_callbacks_ptr;
    1648:	60a2      	str	r2, [r4, #8]
D:\CQ9008\sample_codes\Release_example_240606\puf_template\debug/../sdk/platform/drivers/src/clock_tw9001.c:713
    s_clock_state.callback_num       = callbacks_number;
    164a:	7323      	strb	r3, [r4, #12]
D:\CQ9008\sample_codes\Release_example_240606\puf_template\debug/../sdk/platform/drivers/src/clock_tw9001.c:720
    s_clock_state.error_callback_index = callbacks_number;
    164c:	7363      	strb	r3, [r4, #13]
D:\CQ9008\sample_codes\Release_example_240606\puf_template\debug/../sdk/platform/drivers/src/clock_tw9001.c:723
}
    164e:	2000      	movs	r0, #0
    1650:	bd10      	pop	{r4, pc}
    1652:	46c0      	nop			; (mov r8, r8)
    1654:	200002f4 	.word	0x200002f4

00001658 <clock_update_config>:
clock_update_config():
D:\CQ9008\sample_codes\Release_example_240606\puf_template\debug/../sdk/platform/drivers/src/clock_tw9001.c:737
{
    1658:	b5f0      	push	{r4, r5, r6, r7, lr}
    165a:	46c6      	mov	lr, r8
    165c:	b500      	push	{lr}
    165e:	b082      	sub	sp, #8
    1660:	0006      	movs	r6, r0
    1662:	000d      	movs	r5, r1
D:\CQ9008\sample_codes\Release_example_240606\puf_template\debug/../sdk/platform/drivers/src/clock_tw9001.c:746
    DEV_ASSERT(target_config_index < s_clock_state.clock_config_num);
    1664:	4b3c      	ldr	r3, [pc, #240]	; (1758 <clock_update_config+0x100>)
    1666:	791b      	ldrb	r3, [r3, #4]
DevAssert():
D:\CQ9008\sample_codes\Release_example_240606\puf_template\debug/../sdk/platform/devices/devassert.h:31
    if (x)
    1668:	4298      	cmp	r0, r3
    166a:	d301      	bcc.n	1670 <clock_update_config+0x18>
D:\CQ9008\sample_codes\Release_example_240606\puf_template\debug/../sdk/platform/devices/devassert.h:36
        BKPT_ASM;
    166c:	be00      	bkpt	0x0000
D:\CQ9008\sample_codes\Release_example_240606\puf_template\debug/../sdk/platform/devices/devassert.h:37
        for (;;)
    166e:	e7fe      	b.n	166e <clock_update_config+0x16>
clock_update_config():
D:\CQ9008\sample_codes\Release_example_240606\puf_template\debug/../sdk/platform/drivers/src/clock_tw9001.c:748
    notify_struct.target_clock_config_index = target_config_index;
    1670:	ac01      	add	r4, sp, #4
    1672:	7020      	strb	r0, [r4, #0]
D:\CQ9008\sample_codes\Release_example_240606\puf_template\debug/../sdk/platform/drivers/src/clock_tw9001.c:749
    notify_struct.policy                    = policy;
    1674:	7061      	strb	r1, [r4, #1]
D:\CQ9008\sample_codes\Release_example_240606\puf_template\debug/../sdk/platform/drivers/src/clock_tw9001.c:752
    int_disable_irq_global();
    1676:	f000 fbd3 	bl	1e20 <int_disable_irq_global>
D:\CQ9008\sample_codes\Release_example_240606\puf_template\debug/../sdk/platform/drivers/src/clock_tw9001.c:754
    s_clock_state.error_callback_index = s_clock_state.callback_num;
    167a:	4b37      	ldr	r3, [pc, #220]	; (1758 <clock_update_config+0x100>)
    167c:	7b1a      	ldrb	r2, [r3, #12]
    167e:	735a      	strb	r2, [r3, #13]
D:\CQ9008\sample_codes\Release_example_240606\puf_template\debug/../sdk/platform/drivers/src/clock_tw9001.c:757
    notify_struct.notify_type = CLOCK_MANAGER_NOTIFY_BEFORE;
    1680:	2301      	movs	r3, #1
    1682:	70a3      	strb	r3, [r4, #2]
D:\CQ9008\sample_codes\Release_example_240606\puf_template\debug/../sdk/platform/drivers/src/clock_tw9001.c:760
    for (callback_idx = 0; callback_idx < s_clock_state.callback_num; callback_idx++)
    1684:	2400      	movs	r4, #0
    1686:	e001      	b.n	168c <clock_update_config+0x34>
D:\CQ9008\sample_codes\Release_example_240606\puf_template\debug/../sdk/platform/drivers/src/clock_tw9001.c:760 (discriminator 2)
    1688:	3401      	adds	r4, #1
    168a:	b2e4      	uxtb	r4, r4
D:\CQ9008\sample_codes\Release_example_240606\puf_template\debug/../sdk/platform/drivers/src/clock_tw9001.c:760 (discriminator 1)
    168c:	4b32      	ldr	r3, [pc, #200]	; (1758 <clock_update_config+0x100>)
    168e:	7b1b      	ldrb	r3, [r3, #12]
    1690:	42a3      	cmp	r3, r4
    1692:	d915      	bls.n	16c0 <clock_update_config+0x68>
D:\CQ9008\sample_codes\Release_example_240606\puf_template\debug/../sdk/platform/drivers/src/clock_tw9001.c:762
        p_callback_config = s_clock_state.pp_callback_config[callback_idx];
    1694:	4b30      	ldr	r3, [pc, #192]	; (1758 <clock_update_config+0x100>)
    1696:	689a      	ldr	r2, [r3, #8]
    1698:	00a3      	lsls	r3, r4, #2
    169a:	58d3      	ldr	r3, [r2, r3]
D:\CQ9008\sample_codes\Release_example_240606\puf_template\debug/../sdk/platform/drivers/src/clock_tw9001.c:763
        if ((p_callback_config) &&
    169c:	2b00      	cmp	r3, #0
    169e:	d0f3      	beq.n	1688 <clock_update_config+0x30>
D:\CQ9008\sample_codes\Release_example_240606\puf_template\debug/../sdk/platform/drivers/src/clock_tw9001.c:764 (discriminator 1)
            (p_callback_config->callback_type != CLOCK_MANAGER_CALLBACK_AFTER))
    16a0:	791a      	ldrb	r2, [r3, #4]
D:\CQ9008\sample_codes\Release_example_240606\puf_template\debug/../sdk/platform/drivers/src/clock_tw9001.c:763 (discriminator 1)
        if ((p_callback_config) &&
    16a2:	2a02      	cmp	r2, #2
    16a4:	d0f0      	beq.n	1688 <clock_update_config+0x30>
D:\CQ9008\sample_codes\Release_example_240606\puf_template\debug/../sdk/platform/drivers/src/clock_tw9001.c:767
                (*p_callback_config->callback)(&notify_struct, p_callback_config->p_callback_data))
    16a6:	6899      	ldr	r1, [r3, #8]
    16a8:	681b      	ldr	r3, [r3, #0]
    16aa:	a801      	add	r0, sp, #4
    16ac:	4798      	blx	r3
D:\CQ9008\sample_codes\Release_example_240606\puf_template\debug/../sdk/platform/drivers/src/clock_tw9001.c:766
            if (STATUS_SUCCESS !=
    16ae:	2800      	cmp	r0, #0
    16b0:	d0ea      	beq.n	1688 <clock_update_config+0x30>
D:\CQ9008\sample_codes\Release_example_240606\puf_template\debug/../sdk/platform/drivers/src/clock_tw9001.c:769
                s_clock_state.error_callback_index = callback_idx;
    16b2:	4b29      	ldr	r3, [pc, #164]	; (1758 <clock_update_config+0x100>)
    16b4:	735c      	strb	r4, [r3, #13]
D:\CQ9008\sample_codes\Release_example_240606\puf_template\debug/../sdk/platform/drivers/src/clock_tw9001.c:771
                if (CLOCK_MANAGER_POLICY_AGREEMENT == policy)
    16b6:	2d00      	cmp	r5, #0
    16b8:	d1e6      	bne.n	1688 <clock_update_config+0x30>
D:\CQ9008\sample_codes\Release_example_240606\puf_template\debug/../sdk/platform/drivers/src/clock_tw9001.c:774
                    ret = STATUS_MCU_NOTIFY_BEFORE_ERROR;
    16ba:	2704      	movs	r7, #4
    16bc:	37ff      	adds	r7, #255	; 0xff
    16be:	e000      	b.n	16c2 <clock_update_config+0x6a>
D:\CQ9008\sample_codes\Release_example_240606\puf_template\debug/../sdk/platform/drivers/src/clock_tw9001.c:740
    status_t                                    ret            = STATUS_SUCCESS;
    16c0:	2700      	movs	r7, #0
D:\CQ9008\sample_codes\Release_example_240606\puf_template\debug/../sdk/platform/drivers/src/clock_tw9001.c:782
    if ((STATUS_SUCCESS == ret) || (policy == CLOCK_MANAGER_POLICY_FORCIBLE))
    16c2:	2f00      	cmp	r7, #0
    16c4:	d005      	beq.n	16d2 <clock_update_config+0x7a>
D:\CQ9008\sample_codes\Release_example_240606\puf_template\debug/../sdk/platform/drivers/src/clock_tw9001.c:782 (discriminator 1)
    16c6:	2d01      	cmp	r5, #1
    16c8:	d003      	beq.n	16d2 <clock_update_config+0x7a>
D:\CQ9008\sample_codes\Release_example_240606\puf_template\debug/../sdk/platform/drivers/src/clock_tw9001.c:823
        notify_struct.notify_type = CLOCK_MANAGER_NOTIFY_RECOVER;
    16ca:	ab01      	add	r3, sp, #4
    16cc:	2200      	movs	r2, #0
    16ce:	709a      	strb	r2, [r3, #2]
    16d0:	e02e      	b.n	1730 <clock_update_config+0xd8>
D:\CQ9008\sample_codes\Release_example_240606\puf_template\debug/../sdk/platform/drivers/src/clock_tw9001.c:785
        ret                     = clock_init(s_clock_state.pp_config_table[target_config_index]);
    16d2:	4b21      	ldr	r3, [pc, #132]	; (1758 <clock_update_config+0x100>)
    16d4:	4698      	mov	r8, r3
    16d6:	00b3      	lsls	r3, r6, #2
    16d8:	4642      	mov	r2, r8
    16da:	6812      	ldr	r2, [r2, #0]
    16dc:	58d0      	ldr	r0, [r2, r3]
    16de:	f7ff ff73 	bl	15c8 <clock_init>
    16e2:	1e07      	subs	r7, r0, #0
D:\CQ9008\sample_codes\Release_example_240606\puf_template\debug/../sdk/platform/drivers/src/clock_tw9001.c:788
        s_clock_state.cur_config_index = target_config_index;
    16e4:	4643      	mov	r3, r8
    16e6:	715e      	strb	r6, [r3, #5]
D:\CQ9008\sample_codes\Release_example_240606\puf_template\debug/../sdk/platform/drivers/src/clock_tw9001.c:796
    if (b_successful_set_config)
    16e8:	d1ef      	bne.n	16ca <clock_update_config+0x72>
D:\CQ9008\sample_codes\Release_example_240606\puf_template\debug/../sdk/platform/drivers/src/clock_tw9001.c:798
        notify_struct.notify_type = CLOCK_MANAGER_NOTIFY_AFTER;
    16ea:	ab01      	add	r3, sp, #4
    16ec:	2202      	movs	r2, #2
    16ee:	709a      	strb	r2, [r3, #2]
D:\CQ9008\sample_codes\Release_example_240606\puf_template\debug/../sdk/platform/drivers/src/clock_tw9001.c:800
        for (callback_idx = 0; callback_idx < s_clock_state.callback_num; callback_idx++)
    16f0:	2400      	movs	r4, #0
    16f2:	e007      	b.n	1704 <clock_update_config+0xac>
D:\CQ9008\sample_codes\Release_example_240606\puf_template\debug/../sdk/platform/drivers/src/clock_tw9001.c:809
            if (STATUS_SUCCESS != callback_state)
    16f4:	2800      	cmp	r0, #0
    16f6:	d003      	beq.n	1700 <clock_update_config+0xa8>
D:\CQ9008\sample_codes\Release_example_240606\puf_template\debug/../sdk/platform/drivers/src/clock_tw9001.c:811
                s_clock_state.error_callback_index = callback_idx;
    16f8:	4b17      	ldr	r3, [pc, #92]	; (1758 <clock_update_config+0x100>)
    16fa:	735c      	strb	r4, [r3, #13]
D:\CQ9008\sample_codes\Release_example_240606\puf_template\debug/../sdk/platform/drivers/src/clock_tw9001.c:812
                if (CLOCK_MANAGER_POLICY_AGREEMENT == policy)
    16fc:	2d00      	cmp	r5, #0
    16fe:	d022      	beq.n	1746 <clock_update_config+0xee>
D:\CQ9008\sample_codes\Release_example_240606\puf_template\debug/../sdk/platform/drivers/src/clock_tw9001.c:800 (discriminator 2)
        for (callback_idx = 0; callback_idx < s_clock_state.callback_num; callback_idx++)
    1700:	3401      	adds	r4, #1
    1702:	b2e4      	uxtb	r4, r4
D:\CQ9008\sample_codes\Release_example_240606\puf_template\debug/../sdk/platform/drivers/src/clock_tw9001.c:800 (discriminator 1)
    1704:	4b14      	ldr	r3, [pc, #80]	; (1758 <clock_update_config+0x100>)
    1706:	7b1b      	ldrb	r3, [r3, #12]
    1708:	42a3      	cmp	r3, r4
    170a:	d91e      	bls.n	174a <clock_update_config+0xf2>
D:\CQ9008\sample_codes\Release_example_240606\puf_template\debug/../sdk/platform/drivers/src/clock_tw9001.c:802
            p_callback_config = s_clock_state.pp_callback_config[callback_idx];
    170c:	4b12      	ldr	r3, [pc, #72]	; (1758 <clock_update_config+0x100>)
    170e:	689a      	ldr	r2, [r3, #8]
    1710:	00a3      	lsls	r3, r4, #2
    1712:	58d3      	ldr	r3, [r2, r3]
D:\CQ9008\sample_codes\Release_example_240606\puf_template\debug/../sdk/platform/drivers/src/clock_tw9001.c:803
            if ((p_callback_config) &&
    1714:	2b00      	cmp	r3, #0
    1716:	d0ed      	beq.n	16f4 <clock_update_config+0x9c>
D:\CQ9008\sample_codes\Release_example_240606\puf_template\debug/../sdk/platform/drivers/src/clock_tw9001.c:804 (discriminator 1)
                (p_callback_config->callback_type != CLOCK_MANAGER_CALLBACK_BEFORE))
    1718:	791a      	ldrb	r2, [r3, #4]
D:\CQ9008\sample_codes\Release_example_240606\puf_template\debug/../sdk/platform/drivers/src/clock_tw9001.c:803 (discriminator 1)
            if ((p_callback_config) &&
    171a:	2a01      	cmp	r2, #1
    171c:	d0ea      	beq.n	16f4 <clock_update_config+0x9c>
D:\CQ9008\sample_codes\Release_example_240606\puf_template\debug/../sdk/platform/drivers/src/clock_tw9001.c:806
                callback_state = (*p_callback_config->callback)(&notify_struct,
    171e:	6899      	ldr	r1, [r3, #8]
    1720:	681b      	ldr	r3, [r3, #0]
    1722:	a801      	add	r0, sp, #4
    1724:	4798      	blx	r3
    1726:	e7e5      	b.n	16f4 <clock_update_config+0x9c>
D:\CQ9008\sample_codes\Release_example_240606\puf_template\debug/../sdk/platform/drivers/src/clock_tw9001.c:832
            if (callback_idx == 0U)
    1728:	2c00      	cmp	r4, #0
    172a:	d00e      	beq.n	174a <clock_update_config+0xf2>
D:\CQ9008\sample_codes\Release_example_240606\puf_template\debug/../sdk/platform/drivers/src/clock_tw9001.c:836
            callback_idx--;
    172c:	3c01      	subs	r4, #1
    172e:	b2e4      	uxtb	r4, r4
D:\CQ9008\sample_codes\Release_example_240606\puf_template\debug/../sdk/platform/drivers/src/clock_tw9001.c:826
            p_callback_config = s_clock_state.pp_callback_config[callback_idx];
    1730:	4b09      	ldr	r3, [pc, #36]	; (1758 <clock_update_config+0x100>)
    1732:	689a      	ldr	r2, [r3, #8]
    1734:	00a3      	lsls	r3, r4, #2
    1736:	58d3      	ldr	r3, [r2, r3]
D:\CQ9008\sample_codes\Release_example_240606\puf_template\debug/../sdk/platform/drivers/src/clock_tw9001.c:827
            if (p_callback_config != NULL)
    1738:	2b00      	cmp	r3, #0
    173a:	d0f5      	beq.n	1728 <clock_update_config+0xd0>
D:\CQ9008\sample_codes\Release_example_240606\puf_template\debug/../sdk/platform/drivers/src/clock_tw9001.c:829
                (void)(*p_callback_config->callback)(&notify_struct,
    173c:	6899      	ldr	r1, [r3, #8]
    173e:	681b      	ldr	r3, [r3, #0]
    1740:	a801      	add	r0, sp, #4
    1742:	4798      	blx	r3
    1744:	e7f0      	b.n	1728 <clock_update_config+0xd0>
D:\CQ9008\sample_codes\Release_example_240606\puf_template\debug/../sdk/platform/drivers/src/clock_tw9001.c:815
                    ret = STATUS_MCU_NOTIFY_AFTER_ERROR;
    1746:	2782      	movs	r7, #130	; 0x82
    1748:	007f      	lsls	r7, r7, #1
D:\CQ9008\sample_codes\Release_example_240606\puf_template\debug/../sdk/platform/drivers/src/clock_tw9001.c:841
    int_enable_irq_global();
    174a:	f000 fb5b 	bl	1e04 <int_enable_irq_global>
D:\CQ9008\sample_codes\Release_example_240606\puf_template\debug/../sdk/platform/drivers/src/clock_tw9001.c:844
}
    174e:	0038      	movs	r0, r7
    1750:	b002      	add	sp, #8
    1752:	bc80      	pop	{r7}
    1754:	46b8      	mov	r8, r7
    1756:	bdf0      	pop	{r4, r5, r6, r7, pc}
    1758:	200002f4 	.word	0x200002f4

0000175c <edma_tcd_set_major_complete_int>:
edma_tcd_set_major_complete_int():
D:\CQ9008\sample_codes\Release_example_240606\puf_template\debug/../sdk/platform/drivers/inc/edma_access.h:599
 * @param channel eDMA channel number.
 * @param b_enable Enable (true) /Disable (false) interrupt after TCD done.
 */
static inline void
edma_tcd_set_major_complete_int(DMA_t *p_base, uint8_t channel, bool b_enable)
{
    175c:	b510      	push	{r4, lr}
DevAssert():
D:\CQ9008\sample_codes\Release_example_240606\puf_template\debug/../sdk/platform/devices/devassert.h:31
    if (x)
    175e:	2903      	cmp	r1, #3
    1760:	d901      	bls.n	1766 <edma_tcd_set_major_complete_int+0xa>
D:\CQ9008\sample_codes\Release_example_240606\puf_template\debug/../sdk/platform/devices/devassert.h:36
        BKPT_ASM;
    1762:	be00      	bkpt	0x0000
D:\CQ9008\sample_codes\Release_example_240606\puf_template\debug/../sdk/platform/devices/devassert.h:37
        for (;;)
    1764:	e7fe      	b.n	1764 <edma_tcd_set_major_complete_int+0x8>
edma_tcd_set_major_complete_int():
D:\CQ9008\sample_codes\Release_example_240606\puf_template\debug/../sdk/platform/drivers/inc/edma_access.h:604
#if defined(CUSTOM_DEVASSERT) || defined(DEV_ERROR_DETECT)
    DEV_ASSERT(channel < FEATURE_DMA_CHANNELS);
#endif
    uint16_t reg_val;
    reg_val = p_base->TCD[channel].CSR;
    1766:	014b      	lsls	r3, r1, #5
    1768:	18c3      	adds	r3, r0, r3
    176a:	4c0a      	ldr	r4, [pc, #40]	; (1794 <edma_tcd_set_major_complete_int+0x38>)
    176c:	46a4      	mov	ip, r4
    176e:	4463      	add	r3, ip
    1770:	881b      	ldrh	r3, [r3, #0]
D:\CQ9008\sample_codes\Release_example_240606\puf_template\debug/../sdk/platform/drivers/inc/edma_access.h:605
    reg_val &= (uint16_t) ~(DMA_TCD_CSR_INTMAJOR_MASK);
    1772:	2402      	movs	r4, #2
    1774:	43a3      	bics	r3, r4
    1776:	001c      	movs	r4, r3
D:\CQ9008\sample_codes\Release_example_240606\puf_template\debug/../sdk/platform/drivers/inc/edma_access.h:606
    reg_val |= (uint16_t)DMA_TCD_CSR_INTMAJOR(b_enable ? 1UL : 0UL);
    1778:	2a00      	cmp	r2, #0
    177a:	d008      	beq.n	178e <edma_tcd_set_major_complete_int+0x32>
    177c:	2302      	movs	r3, #2
D:\CQ9008\sample_codes\Release_example_240606\puf_template\debug/../sdk/platform/drivers/inc/edma_access.h:606 (discriminator 4)
    177e:	4323      	orrs	r3, r4
D:\CQ9008\sample_codes\Release_example_240606\puf_template\debug/../sdk/platform/drivers/inc/edma_access.h:607 (discriminator 4)
    p_base->TCD[channel].CSR = reg_val;
    1780:	0149      	lsls	r1, r1, #5
    1782:	1841      	adds	r1, r0, r1
    1784:	4a03      	ldr	r2, [pc, #12]	; (1794 <edma_tcd_set_major_complete_int+0x38>)
    1786:	4694      	mov	ip, r2
    1788:	4461      	add	r1, ip
    178a:	800b      	strh	r3, [r1, #0]
D:\CQ9008\sample_codes\Release_example_240606\puf_template\debug/../sdk/platform/drivers/inc/edma_access.h:608 (discriminator 4)
}
    178c:	bd10      	pop	{r4, pc}
D:\CQ9008\sample_codes\Release_example_240606\puf_template\debug/../sdk/platform/drivers/inc/edma_access.h:606
    reg_val |= (uint16_t)DMA_TCD_CSR_INTMAJOR(b_enable ? 1UL : 0UL);
    178e:	2300      	movs	r3, #0
    1790:	e7f5      	b.n	177e <edma_tcd_set_major_complete_int+0x22>
    1792:	46c0      	nop			; (mov r8, r8)
    1794:	0000101c 	.word	0x0000101c

00001798 <edma_clear_int_status>:
edma_clear_int_status():
D:\CQ9008\sample_codes\Release_example_240606\puf_template\debug/../sdk/platform/drivers/src/edma_driver.c:2009
{
    /* Get DMA instance from virtual channel */
    uint8_t dma_instance = (uint8_t)FEATURE_DMA_VCH_TO_INSTANCE(virtual_channel);

    /* Get DMA channel from virtual channel*/
    uint8_t dma_channel = (uint8_t)FEATURE_DMA_VCH_TO_CH(virtual_channel);
    1798:	2303      	movs	r3, #3
    179a:	4018      	ands	r0, r3
edma_clear_done_status_flag():
D:\CQ9008\sample_codes\Release_example_240606\puf_template\debug/../sdk/platform/drivers/inc/edma_access.h:217
    p_base->CDNE = (uint8_t)channel;
    179c:	4b01      	ldr	r3, [pc, #4]	; (17a4 <edma_clear_int_status+0xc>)
    179e:	7718      	strb	r0, [r3, #28]
edma_clear_int_status_flag():
D:\CQ9008\sample_codes\Release_example_240606\puf_template\debug/../sdk/platform/drivers/inc/edma_access.h:247
    p_base->CINT = (uint8_t)channel;
    17a0:	77d8      	strb	r0, [r3, #31]
edma_clear_int_status():
D:\CQ9008\sample_codes\Release_example_240606\puf_template\debug/../sdk/platform/drivers/src/edma_driver.c:2014

    DMA_t *p_edma_reg_base = sp_edma_base[dma_instance];
    edma_clear_done_status_flag(p_edma_reg_base, dma_channel);
    edma_clear_int_status_flag(p_edma_reg_base, dma_channel);
}
    17a2:	4770      	bx	lr
    17a4:	40008000 	.word	0x40008000

000017a8 <edma_valid_transfer_size>:
edma_valid_transfer_size():
D:\CQ9008\sample_codes\Release_example_240606\puf_template\debug/../sdk/platform/drivers/src/edma_driver.c:2039
 *END**************************************************************************/
static bool
edma_valid_transfer_size(edma_transfer_size_t size)
{
    bool b_is_valid;
    switch (size)
    17a8:	2802      	cmp	r0, #2
    17aa:	d801      	bhi.n	17b0 <edma_valid_transfer_size+0x8>
D:\CQ9008\sample_codes\Release_example_240606\puf_template\debug/../sdk/platform/drivers/src/edma_driver.c:2044
    {
        case EDMA_TRANSFER_SIZE_1B:
        case EDMA_TRANSFER_SIZE_2B:
        case EDMA_TRANSFER_SIZE_4B:
            b_is_valid = true;
    17ac:	2001      	movs	r0, #1
D:\CQ9008\sample_codes\Release_example_240606\puf_template\debug/../sdk/platform/drivers/src/edma_driver.c:2051
        default:
            b_is_valid = false;
            break;
    }
    return b_is_valid;
}
    17ae:	4770      	bx	lr
D:\CQ9008\sample_codes\Release_example_240606\puf_template\debug/../sdk/platform/drivers/src/edma_driver.c:2047
            b_is_valid = false;
    17b0:	2000      	movs	r0, #0
    17b2:	e7fc      	b.n	17ae <edma_valid_transfer_size+0x6>

000017b4 <edma_set_dma_request>:
edma_set_dma_request():
D:\CQ9008\sample_codes\Release_example_240606\puf_template\debug/../sdk/platform/drivers/src/edma_driver.c:93
    if (b_enable)
    17b4:	2a00      	cmp	r2, #0
    17b6:	d001      	beq.n	17bc <edma_set_dma_request+0x8>
D:\CQ9008\sample_codes\Release_example_240606\puf_template\debug/../sdk/platform/drivers/src/edma_driver.c:95
        p_base->SERQ = channel;
    17b8:	76c1      	strb	r1, [r0, #27]
D:\CQ9008\sample_codes\Release_example_240606\puf_template\debug/../sdk/platform/drivers/src/edma_driver.c:101
}
    17ba:	4770      	bx	lr
D:\CQ9008\sample_codes\Release_example_240606\puf_template\debug/../sdk/platform/drivers/src/edma_driver.c:99
        p_base->CERQ = channel;
    17bc:	7681      	strb	r1, [r0, #26]
D:\CQ9008\sample_codes\Release_example_240606\puf_template\debug/../sdk/platform/drivers/src/edma_driver.c:101
}
    17be:	e7fc      	b.n	17ba <edma_set_dma_request+0x6>

000017c0 <edma_tcd_clear_reg>:
edma_tcd_clear_reg():
D:\CQ9008\sample_codes\Release_example_240606\puf_template\debug/../sdk/platform/drivers/src/edma_driver.c:110
{
    17c0:	b510      	push	{r4, lr}
D:\CQ9008\sample_codes\Release_example_240606\puf_template\debug/../sdk/platform/drivers/src/edma_driver.c:111
    p_base->TCD[channel].NBYTES.MLNO   = 0U;
    17c2:	014b      	lsls	r3, r1, #5
    17c4:	18c3      	adds	r3, r0, r3
    17c6:	4a10      	ldr	r2, [pc, #64]	; (1808 <edma_tcd_clear_reg+0x48>)
    17c8:	189c      	adds	r4, r3, r2
    17ca:	2200      	movs	r2, #0
    17cc:	6022      	str	r2, [r4, #0]
D:\CQ9008\sample_codes\Release_example_240606\puf_template\debug/../sdk/platform/drivers/src/edma_driver.c:112
    p_base->TCD[channel].SADDR         = 0U;
    17ce:	3180      	adds	r1, #128	; 0x80
    17d0:	0149      	lsls	r1, r1, #5
    17d2:	500a      	str	r2, [r1, r0]
D:\CQ9008\sample_codes\Release_example_240606\puf_template\debug/../sdk/platform/drivers/src/edma_driver.c:113
    p_base->TCD[channel].SOFF          = 0;
    17d4:	1840      	adds	r0, r0, r1
    17d6:	8082      	strh	r2, [r0, #4]
D:\CQ9008\sample_codes\Release_example_240606\puf_template\debug/../sdk/platform/drivers/src/edma_driver.c:114
    p_base->TCD[channel].ATTR          = 0U;
    17d8:	80c2      	strh	r2, [r0, #6]
D:\CQ9008\sample_codes\Release_example_240606\puf_template\debug/../sdk/platform/drivers/src/edma_driver.c:115
    p_base->TCD[channel].SLAST         = 0;
    17da:	490c      	ldr	r1, [pc, #48]	; (180c <edma_tcd_clear_reg+0x4c>)
    17dc:	1859      	adds	r1, r3, r1
    17de:	600a      	str	r2, [r1, #0]
D:\CQ9008\sample_codes\Release_example_240606\puf_template\debug/../sdk/platform/drivers/src/edma_driver.c:116
    p_base->TCD[channel].DADDR         = 0U;
    17e0:	490b      	ldr	r1, [pc, #44]	; (1810 <edma_tcd_clear_reg+0x50>)
    17e2:	1859      	adds	r1, r3, r1
    17e4:	600a      	str	r2, [r1, #0]
D:\CQ9008\sample_codes\Release_example_240606\puf_template\debug/../sdk/platform/drivers/src/edma_driver.c:117
    p_base->TCD[channel].DOFF          = 0;
    17e6:	490b      	ldr	r1, [pc, #44]	; (1814 <edma_tcd_clear_reg+0x54>)
    17e8:	1859      	adds	r1, r3, r1
    17ea:	800a      	strh	r2, [r1, #0]
D:\CQ9008\sample_codes\Release_example_240606\puf_template\debug/../sdk/platform/drivers/src/edma_driver.c:118
    p_base->TCD[channel].CITER.ELINKNO = 0U;
    17ec:	490a      	ldr	r1, [pc, #40]	; (1818 <edma_tcd_clear_reg+0x58>)
    17ee:	1859      	adds	r1, r3, r1
    17f0:	800a      	strh	r2, [r1, #0]
D:\CQ9008\sample_codes\Release_example_240606\puf_template\debug/../sdk/platform/drivers/src/edma_driver.c:119
    p_base->TCD[channel].DLASTSGA      = 0;
    17f2:	490a      	ldr	r1, [pc, #40]	; (181c <edma_tcd_clear_reg+0x5c>)
    17f4:	1859      	adds	r1, r3, r1
    17f6:	600a      	str	r2, [r1, #0]
D:\CQ9008\sample_codes\Release_example_240606\puf_template\debug/../sdk/platform/drivers/src/edma_driver.c:120
    p_base->TCD[channel].CSR           = 0U;
    17f8:	4909      	ldr	r1, [pc, #36]	; (1820 <edma_tcd_clear_reg+0x60>)
    17fa:	1859      	adds	r1, r3, r1
    17fc:	800a      	strh	r2, [r1, #0]
D:\CQ9008\sample_codes\Release_example_240606\puf_template\debug/../sdk/platform/drivers/src/edma_driver.c:121
    p_base->TCD[channel].BITER.ELINKNO = 0U;
    17fe:	4909      	ldr	r1, [pc, #36]	; (1824 <edma_tcd_clear_reg+0x64>)
    1800:	468c      	mov	ip, r1
    1802:	4463      	add	r3, ip
    1804:	801a      	strh	r2, [r3, #0]
D:\CQ9008\sample_codes\Release_example_240606\puf_template\debug/../sdk/platform/drivers/src/edma_driver.c:122
}
    1806:	bd10      	pop	{r4, pc}
    1808:	00001008 	.word	0x00001008
    180c:	0000100c 	.word	0x0000100c
    1810:	00001010 	.word	0x00001010
    1814:	00001014 	.word	0x00001014
    1818:	00001016 	.word	0x00001016
    181c:	00001018 	.word	0x00001018
    1820:	0000101c 	.word	0x0000101c
    1824:	0000101e 	.word	0x0000101e

00001828 <edma_tcd_set_attribute>:
edma_tcd_set_attribute():
D:\CQ9008\sample_codes\Release_example_240606\puf_template\debug/../sdk/platform/drivers/src/edma_driver.c:136
{
    1828:	b570      	push	{r4, r5, r6, lr}
    182a:	ac04      	add	r4, sp, #16
    182c:	7824      	ldrb	r4, [r4, #0]
    182e:	ad05      	add	r5, sp, #20
    1830:	782d      	ldrb	r5, [r5, #0]
DevAssert():
D:\CQ9008\sample_codes\Release_example_240606\puf_template\debug/../sdk/platform/devices/devassert.h:31
    if (x)
    1832:	2903      	cmp	r1, #3
    1834:	d901      	bls.n	183a <edma_tcd_set_attribute+0x12>
D:\CQ9008\sample_codes\Release_example_240606\puf_template\debug/../sdk/platform/devices/devassert.h:36
        BKPT_ASM;
    1836:	be00      	bkpt	0x0000
D:\CQ9008\sample_codes\Release_example_240606\puf_template\debug/../sdk/platform/devices/devassert.h:37
        for (;;)
    1838:	e7fe      	b.n	1838 <edma_tcd_set_attribute+0x10>
edma_tcd_set_attribute():
D:\CQ9008\sample_codes\Release_example_240606\puf_template\debug/../sdk/platform/drivers/src/edma_driver.c:141
    reg_val = (uint16_t)(DMA_TCD_ATTR_SMOD(src_modulo) | DMA_TCD_ATTR_SSIZE(src_transfer_size));
    183a:	02d2      	lsls	r2, r2, #11
    183c:	b292      	uxth	r2, r2
    183e:	0224      	lsls	r4, r4, #8
    1840:	26e0      	movs	r6, #224	; 0xe0
    1842:	00f6      	lsls	r6, r6, #3
    1844:	4034      	ands	r4, r6
    1846:	4322      	orrs	r2, r4
D:\CQ9008\sample_codes\Release_example_240606\puf_template\debug/../sdk/platform/drivers/src/edma_driver.c:142
    reg_val |= (uint16_t)(DMA_TCD_ATTR_DMOD(dest_modulo) | DMA_TCD_ATTR_DSIZE(dest_transfer_size));
    1848:	00dc      	lsls	r4, r3, #3
    184a:	23ff      	movs	r3, #255	; 0xff
    184c:	4023      	ands	r3, r4
    184e:	2407      	movs	r4, #7
    1850:	4025      	ands	r5, r4
    1852:	432b      	orrs	r3, r5
    1854:	431a      	orrs	r2, r3
D:\CQ9008\sample_codes\Release_example_240606\puf_template\debug/../sdk/platform/drivers/src/edma_driver.c:143
    p_base->TCD[channel].ATTR = reg_val;
    1856:	3180      	adds	r1, #128	; 0x80
    1858:	0149      	lsls	r1, r1, #5
    185a:	1841      	adds	r1, r0, r1
    185c:	80ca      	strh	r2, [r1, #6]
D:\CQ9008\sample_codes\Release_example_240606\puf_template\debug/../sdk/platform/drivers/src/edma_driver.c:144
}
    185e:	bd70      	pop	{r4, r5, r6, pc}

00001860 <edma_tcd_set_nbytes>:
edma_tcd_set_nbytes():
D:\CQ9008\sample_codes\Release_example_240606\puf_template\debug/../sdk/platform/drivers/src/edma_driver.c:153
{
    1860:	b510      	push	{r4, lr}
DevAssert():
D:\CQ9008\sample_codes\Release_example_240606\puf_template\debug/../sdk/platform/devices/devassert.h:31
    if (x)
    1862:	2903      	cmp	r1, #3
    1864:	d901      	bls.n	186a <edma_tcd_set_nbytes+0xa>
D:\CQ9008\sample_codes\Release_example_240606\puf_template\debug/../sdk/platform/devices/devassert.h:36
        BKPT_ASM;
    1866:	be00      	bkpt	0x0000
D:\CQ9008\sample_codes\Release_example_240606\puf_template\debug/../sdk/platform/devices/devassert.h:37
        for (;;)
    1868:	e7fe      	b.n	1868 <edma_tcd_set_nbytes+0x8>
edma_tcd_set_nbytes():
D:\CQ9008\sample_codes\Release_example_240606\puf_template\debug/../sdk/platform/drivers/src/edma_driver.c:158
    if (((p_base->CR & DMA_CR_EMLM_MASK) >> DMA_CR_EMLM_SHIFT) != 0UL)
    186a:	6803      	ldr	r3, [r0, #0]
    186c:	061b      	lsls	r3, r3, #24
    186e:	d521      	bpl.n	18b4 <edma_tcd_set_nbytes+0x54>
D:\CQ9008\sample_codes\Release_example_240606\puf_template\debug/../sdk/platform/drivers/src/edma_driver.c:161
        if (((p_base->TCD[channel].NBYTES.MLOFFNO & DMA_TCD_NBYTES_MLOFFNO_SMLOE_MASK) >>
    1870:	014b      	lsls	r3, r1, #5
    1872:	18c3      	adds	r3, r0, r3
    1874:	4c13      	ldr	r4, [pc, #76]	; (18c4 <edma_tcd_set_nbytes+0x64>)
    1876:	46a4      	mov	ip, r4
    1878:	4463      	add	r3, ip
    187a:	681b      	ldr	r3, [r3, #0]
    187c:	2b00      	cmp	r3, #0
    187e:	db0c      	blt.n	189a <edma_tcd_set_nbytes+0x3a>
D:\CQ9008\sample_codes\Release_example_240606\puf_template\debug/../sdk/platform/drivers/src/edma_driver.c:164
            if (((p_base->TCD[channel].NBYTES.MLOFFNO & DMA_TCD_NBYTES_MLOFFNO_DMLOE_MASK) >>
    1880:	014b      	lsls	r3, r1, #5
    1882:	18c3      	adds	r3, r0, r3
    1884:	4463      	add	r3, ip
    1886:	681b      	ldr	r3, [r3, #0]
    1888:	005b      	lsls	r3, r3, #1
    188a:	d406      	bmi.n	189a <edma_tcd_set_nbytes+0x3a>
D:\CQ9008\sample_codes\Release_example_240606\puf_template\debug/../sdk/platform/drivers/src/edma_driver.c:167
                p_base->TCD[channel].NBYTES.MLOFFNO = (nbytes & DMA_TCD_NBYTES_MLOFFNO_NBYTES_MASK);
    188c:	0092      	lsls	r2, r2, #2
    188e:	0892      	lsrs	r2, r2, #2
    1890:	014b      	lsls	r3, r1, #5
    1892:	18c3      	adds	r3, r0, r3
    1894:	4463      	add	r3, ip
    1896:	601a      	str	r2, [r3, #0]
D:\CQ9008\sample_codes\Release_example_240606\puf_template\debug/../sdk/platform/drivers/src/edma_driver.c:171
        if (!b_ml_off_no)
    1898:	e012      	b.n	18c0 <edma_tcd_set_nbytes+0x60>
D:\CQ9008\sample_codes\Release_example_240606\puf_template\debug/../sdk/platform/drivers/src/edma_driver.c:174
            reg_val = p_base->TCD[channel].NBYTES.MLOFFYES;
    189a:	014b      	lsls	r3, r1, #5
    189c:	18c3      	adds	r3, r0, r3
    189e:	4909      	ldr	r1, [pc, #36]	; (18c4 <edma_tcd_set_nbytes+0x64>)
    18a0:	468c      	mov	ip, r1
    18a2:	4463      	add	r3, ip
    18a4:	6819      	ldr	r1, [r3, #0]
D:\CQ9008\sample_codes\Release_example_240606\puf_template\debug/../sdk/platform/drivers/src/edma_driver.c:175
            reg_val &= ~(DMA_TCD_NBYTES_MLOFFYES_NBYTES_MASK);
    18a6:	0a89      	lsrs	r1, r1, #10
    18a8:	0289      	lsls	r1, r1, #10
D:\CQ9008\sample_codes\Release_example_240606\puf_template\debug/../sdk/platform/drivers/src/edma_driver.c:176
            reg_val |= DMA_TCD_NBYTES_MLOFFYES_NBYTES(nbytes);
    18aa:	0592      	lsls	r2, r2, #22
    18ac:	0d92      	lsrs	r2, r2, #22
    18ae:	430a      	orrs	r2, r1
D:\CQ9008\sample_codes\Release_example_240606\puf_template\debug/../sdk/platform/drivers/src/edma_driver.c:177
            p_base->TCD[channel].NBYTES.MLOFFYES = reg_val;
    18b0:	601a      	str	r2, [r3, #0]
    18b2:	e005      	b.n	18c0 <edma_tcd_set_nbytes+0x60>
D:\CQ9008\sample_codes\Release_example_240606\puf_template\debug/../sdk/platform/drivers/src/edma_driver.c:182
        p_base->TCD[channel].NBYTES.MLNO = nbytes;
    18b4:	0149      	lsls	r1, r1, #5
    18b6:	1841      	adds	r1, r0, r1
    18b8:	4b02      	ldr	r3, [pc, #8]	; (18c4 <edma_tcd_set_nbytes+0x64>)
    18ba:	469c      	mov	ip, r3
    18bc:	4461      	add	r1, ip
    18be:	600a      	str	r2, [r1, #0]
D:\CQ9008\sample_codes\Release_example_240606\puf_template\debug/../sdk/platform/drivers/src/edma_driver.c:184
}
    18c0:	bd10      	pop	{r4, pc}
    18c2:	46c0      	nop			; (mov r8, r8)
    18c4:	00001008 	.word	0x00001008

000018c8 <edma_tcd_set_major_count>:
edma_tcd_set_major_count():
D:\CQ9008\sample_codes\Release_example_240606\puf_template\debug/../sdk/platform/drivers/src/edma_driver.c:286
{
    18c8:	b510      	push	{r4, lr}
DevAssert():
D:\CQ9008\sample_codes\Release_example_240606\puf_template\debug/../sdk/platform/devices/devassert.h:31
    if (x)
    18ca:	2903      	cmp	r1, #3
    18cc:	d901      	bls.n	18d2 <edma_tcd_set_major_count+0xa>
D:\CQ9008\sample_codes\Release_example_240606\puf_template\debug/../sdk/platform/devices/devassert.h:36
        BKPT_ASM;
    18ce:	be00      	bkpt	0x0000
D:\CQ9008\sample_codes\Release_example_240606\puf_template\debug/../sdk/platform/devices/devassert.h:37
        for (;;)
    18d0:	e7fe      	b.n	18d0 <edma_tcd_set_major_count+0x8>
edma_tcd_set_major_count():
D:\CQ9008\sample_codes\Release_example_240606\puf_template\debug/../sdk/platform/drivers/src/edma_driver.c:291
    if ((p_base->TCD[channel].BITER.ELINKNO & DMA_TCD_BITER_ELINKNO_ELINK_MASK) ==
    18d2:	014b      	lsls	r3, r1, #5
    18d4:	18c3      	adds	r3, r0, r3
    18d6:	4c17      	ldr	r4, [pc, #92]	; (1934 <edma_tcd_set_major_count+0x6c>)
    18d8:	46a4      	mov	ip, r4
    18da:	4463      	add	r3, ip
    18dc:	881b      	ldrh	r3, [r3, #0]
    18de:	b21b      	sxth	r3, r3
    18e0:	2b00      	cmp	r3, #0
    18e2:	db13      	blt.n	190c <edma_tcd_set_major_count+0x44>
D:\CQ9008\sample_codes\Release_example_240606\puf_template\debug/../sdk/platform/drivers/src/edma_driver.c:306
        reg_val = p_base->TCD[channel].BITER.ELINKNO;
    18e4:	0149      	lsls	r1, r1, #5
    18e6:	1841      	adds	r1, r0, r1
    18e8:	4b12      	ldr	r3, [pc, #72]	; (1934 <edma_tcd_set_major_count+0x6c>)
    18ea:	18c8      	adds	r0, r1, r3
    18ec:	8803      	ldrh	r3, [r0, #0]
D:\CQ9008\sample_codes\Release_example_240606\puf_template\debug/../sdk/platform/drivers/src/edma_driver.c:307
        reg_val &= (uint16_t) ~(DMA_TCD_BITER_ELINKNO_BITER_MASK);
    18ee:	0bdb      	lsrs	r3, r3, #15
    18f0:	03db      	lsls	r3, r3, #15
D:\CQ9008\sample_codes\Release_example_240606\puf_template\debug/../sdk/platform/drivers/src/edma_driver.c:308
        reg_val |= (uint16_t)DMA_TCD_BITER_ELINKNO_BITER(count);
    18f2:	0452      	lsls	r2, r2, #17
    18f4:	0c52      	lsrs	r2, r2, #17
    18f6:	4313      	orrs	r3, r2
D:\CQ9008\sample_codes\Release_example_240606\puf_template\debug/../sdk/platform/drivers/src/edma_driver.c:309
        p_base->TCD[channel].BITER.ELINKNO = reg_val;
    18f8:	8003      	strh	r3, [r0, #0]
D:\CQ9008\sample_codes\Release_example_240606\puf_template\debug/../sdk/platform/drivers/src/edma_driver.c:311
        reg_val = p_base->TCD[channel].CITER.ELINKNO;
    18fa:	4b0f      	ldr	r3, [pc, #60]	; (1938 <edma_tcd_set_major_count+0x70>)
    18fc:	469c      	mov	ip, r3
    18fe:	4461      	add	r1, ip
    1900:	880b      	ldrh	r3, [r1, #0]
D:\CQ9008\sample_codes\Release_example_240606\puf_template\debug/../sdk/platform/drivers/src/edma_driver.c:312
        reg_val &= (uint16_t) ~(DMA_TCD_CITER_ELINKNO_CITER_MASK);
    1902:	0bdb      	lsrs	r3, r3, #15
    1904:	03db      	lsls	r3, r3, #15
D:\CQ9008\sample_codes\Release_example_240606\puf_template\debug/../sdk/platform/drivers/src/edma_driver.c:313
        reg_val |= (uint16_t)DMA_TCD_CITER_ELINKNO_CITER(count);
    1906:	431a      	orrs	r2, r3
D:\CQ9008\sample_codes\Release_example_240606\puf_template\debug/../sdk/platform/drivers/src/edma_driver.c:314
        p_base->TCD[channel].CITER.ELINKNO = reg_val;
    1908:	800a      	strh	r2, [r1, #0]
D:\CQ9008\sample_codes\Release_example_240606\puf_template\debug/../sdk/platform/drivers/src/edma_driver.c:316
}
    190a:	bd10      	pop	{r4, pc}
D:\CQ9008\sample_codes\Release_example_240606\puf_template\debug/../sdk/platform/drivers/src/edma_driver.c:294
        reg_val = p_base->TCD[channel].BITER.ELINKYES;
    190c:	0149      	lsls	r1, r1, #5
    190e:	1841      	adds	r1, r0, r1
    1910:	1908      	adds	r0, r1, r4
    1912:	8803      	ldrh	r3, [r0, #0]
D:\CQ9008\sample_codes\Release_example_240606\puf_template\debug/../sdk/platform/drivers/src/edma_driver.c:295
        reg_val &= (uint16_t) ~(DMA_TCD_BITER_ELINKYES_BITER_MASK);
    1914:	0a5b      	lsrs	r3, r3, #9
    1916:	025b      	lsls	r3, r3, #9
D:\CQ9008\sample_codes\Release_example_240606\puf_template\debug/../sdk/platform/drivers/src/edma_driver.c:296
        reg_val |= (uint16_t)DMA_TCD_BITER_ELINKYES_BITER(count);
    1918:	05d2      	lsls	r2, r2, #23
    191a:	0dd2      	lsrs	r2, r2, #23
    191c:	4313      	orrs	r3, r2
D:\CQ9008\sample_codes\Release_example_240606\puf_template\debug/../sdk/platform/drivers/src/edma_driver.c:297
        p_base->TCD[channel].BITER.ELINKYES = reg_val;
    191e:	8003      	strh	r3, [r0, #0]
D:\CQ9008\sample_codes\Release_example_240606\puf_template\debug/../sdk/platform/drivers/src/edma_driver.c:299
        reg_val = p_base->TCD[channel].CITER.ELINKYES;
    1920:	4b05      	ldr	r3, [pc, #20]	; (1938 <edma_tcd_set_major_count+0x70>)
    1922:	469c      	mov	ip, r3
    1924:	4461      	add	r1, ip
    1926:	880b      	ldrh	r3, [r1, #0]
D:\CQ9008\sample_codes\Release_example_240606\puf_template\debug/../sdk/platform/drivers/src/edma_driver.c:300
        reg_val &= (uint16_t) ~(DMA_TCD_CITER_ELINKYES_CITER_LE_MASK);
    1928:	0a5b      	lsrs	r3, r3, #9
    192a:	025b      	lsls	r3, r3, #9
D:\CQ9008\sample_codes\Release_example_240606\puf_template\debug/../sdk/platform/drivers/src/edma_driver.c:301
        reg_val |= (uint16_t)DMA_TCD_CITER_ELINKYES_CITER_LE(count);
    192c:	431a      	orrs	r2, r3
D:\CQ9008\sample_codes\Release_example_240606\puf_template\debug/../sdk/platform/drivers/src/edma_driver.c:302
        p_base->TCD[channel].CITER.ELINKYES = reg_val;
    192e:	800a      	strh	r2, [r1, #0]
    1930:	e7eb      	b.n	190a <edma_tcd_set_major_count+0x42>
    1932:	46c0      	nop			; (mov r8, r8)
    1934:	0000101e 	.word	0x0000101e
    1938:	00001016 	.word	0x00001016

0000193c <edma_tcd_get_current_major_count>:
DevAssert():
D:\CQ9008\sample_codes\Release_example_240606\puf_template\debug/../sdk/platform/devices/devassert.h:31
    if (x)
    193c:	2903      	cmp	r1, #3
    193e:	d901      	bls.n	1944 <edma_tcd_get_current_major_count+0x8>
D:\CQ9008\sample_codes\Release_example_240606\puf_template\debug/../sdk/platform/devices/devassert.h:36
        BKPT_ASM;
    1940:	be00      	bkpt	0x0000
D:\CQ9008\sample_codes\Release_example_240606\puf_template\debug/../sdk/platform/devices/devassert.h:37
        for (;;)
    1942:	e7fe      	b.n	1942 <edma_tcd_get_current_major_count+0x6>
edma_tcd_get_current_major_count():
D:\CQ9008\sample_codes\Release_example_240606\puf_template\debug/../sdk/platform/drivers/src/edma_driver.c:331
    if ((p_base->TCD[channel].BITER.ELINKNO & DMA_TCD_BITER_ELINKNO_ELINK_MASK) ==
    1944:	014b      	lsls	r3, r1, #5
    1946:	18c3      	adds	r3, r0, r3
    1948:	4a0c      	ldr	r2, [pc, #48]	; (197c <edma_tcd_get_current_major_count+0x40>)
    194a:	4694      	mov	ip, r2
    194c:	4463      	add	r3, ip
    194e:	881b      	ldrh	r3, [r3, #0]
    1950:	b21b      	sxth	r3, r3
    1952:	2b00      	cmp	r3, #0
    1954:	db08      	blt.n	1968 <edma_tcd_get_current_major_count+0x2c>
D:\CQ9008\sample_codes\Release_example_240606\puf_template\debug/../sdk/platform/drivers/src/edma_driver.c:341
            (uint16_t)((p_base->TCD[channel].CITER.ELINKNO & DMA_TCD_CITER_ELINKNO_CITER_MASK) >>
    1956:	0149      	lsls	r1, r1, #5
    1958:	1840      	adds	r0, r0, r1
    195a:	4b09      	ldr	r3, [pc, #36]	; (1980 <edma_tcd_get_current_major_count+0x44>)
    195c:	469c      	mov	ip, r3
    195e:	4460      	add	r0, ip
    1960:	8800      	ldrh	r0, [r0, #0]
D:\CQ9008\sample_codes\Release_example_240606\puf_template\debug/../sdk/platform/drivers/src/edma_driver.c:340
        result =
    1962:	0440      	lsls	r0, r0, #17
    1964:	0c40      	lsrs	r0, r0, #17
D:\CQ9008\sample_codes\Release_example_240606\puf_template\debug/../sdk/platform/drivers/src/edma_driver.c:345
}
    1966:	4770      	bx	lr
D:\CQ9008\sample_codes\Release_example_240606\puf_template\debug/../sdk/platform/drivers/src/edma_driver.c:334
        result = (uint16_t)((p_base->TCD[channel].CITER.ELINKYES &
    1968:	0149      	lsls	r1, r1, #5
    196a:	1840      	adds	r0, r0, r1
    196c:	4b04      	ldr	r3, [pc, #16]	; (1980 <edma_tcd_get_current_major_count+0x44>)
    196e:	469c      	mov	ip, r3
    1970:	4460      	add	r0, ip
    1972:	8800      	ldrh	r0, [r0, #0]
    1974:	05c0      	lsls	r0, r0, #23
    1976:	0dc0      	lsrs	r0, r0, #23
    1978:	e7f5      	b.n	1966 <edma_tcd_get_current_major_count+0x2a>
    197a:	46c0      	nop			; (mov r8, r8)
    197c:	0000101e 	.word	0x0000101e
    1980:	00001016 	.word	0x00001016

00001984 <edma_install_callback>:
edma_install_callback():
D:\CQ9008\sample_codes\Release_example_240606\puf_template\debug/../sdk/platform/drivers/src/edma_driver.c:605
{
    1984:	b510      	push	{r4, lr}
DevAssert():
D:\CQ9008\sample_codes\Release_example_240606\puf_template\debug/../sdk/platform/devices/devassert.h:31
    if (x)
    1986:	2803      	cmp	r0, #3
    1988:	d901      	bls.n	198e <edma_install_callback+0xa>
D:\CQ9008\sample_codes\Release_example_240606\puf_template\debug/../sdk/platform/devices/devassert.h:36
        BKPT_ASM;
    198a:	be00      	bkpt	0x0000
D:\CQ9008\sample_codes\Release_example_240606\puf_template\debug/../sdk/platform/devices/devassert.h:37
        for (;;)
    198c:	e7fe      	b.n	198c <edma_install_callback+0x8>
edma_install_callback():
D:\CQ9008\sample_codes\Release_example_240606\puf_template\debug/../sdk/platform/drivers/src/edma_driver.c:610
    DEV_ASSERT(sp_virt_edma_state != NULL);
    198e:	4b09      	ldr	r3, [pc, #36]	; (19b4 <edma_install_callback+0x30>)
    1990:	681b      	ldr	r3, [r3, #0]
DevAssert():
D:\CQ9008\sample_codes\Release_example_240606\puf_template\debug/../sdk/platform/devices/devassert.h:31
    if (x)
    1992:	2b00      	cmp	r3, #0
    1994:	d101      	bne.n	199a <edma_install_callback+0x16>
D:\CQ9008\sample_codes\Release_example_240606\puf_template\debug/../sdk/platform/devices/devassert.h:36
        BKPT_ASM;
    1996:	be00      	bkpt	0x0000
D:\CQ9008\sample_codes\Release_example_240606\puf_template\debug/../sdk/platform/devices/devassert.h:37
        for (;;)
    1998:	e7fe      	b.n	1998 <edma_install_callback+0x14>
edma_install_callback():
D:\CQ9008\sample_codes\Release_example_240606\puf_template\debug/../sdk/platform/drivers/src/edma_driver.c:613
    DEV_ASSERT(sp_virt_edma_state->p_virt_chn_state[virtual_channel] != NULL);
    199a:	0084      	lsls	r4, r0, #2
    199c:	58e4      	ldr	r4, [r4, r3]
DevAssert():
D:\CQ9008\sample_codes\Release_example_240606\puf_template\debug/../sdk/platform/devices/devassert.h:31
    if (x)
    199e:	2c00      	cmp	r4, #0
    19a0:	d101      	bne.n	19a6 <edma_install_callback+0x22>
D:\CQ9008\sample_codes\Release_example_240606\puf_template\debug/../sdk/platform/devices/devassert.h:36
        BKPT_ASM;
    19a2:	be00      	bkpt	0x0000
D:\CQ9008\sample_codes\Release_example_240606\puf_template\debug/../sdk/platform/devices/devassert.h:37
        for (;;)
    19a4:	e7fe      	b.n	19a4 <edma_install_callback+0x20>
edma_install_callback():
D:\CQ9008\sample_codes\Release_example_240606\puf_template\debug/../sdk/platform/drivers/src/edma_driver.c:615
    sp_virt_edma_state->p_virt_chn_state[virtual_channel]->callback    = callback;
    19a6:	0080      	lsls	r0, r0, #2
    19a8:	58c4      	ldr	r4, [r0, r3]
    19aa:	6061      	str	r1, [r4, #4]
D:\CQ9008\sample_codes\Release_example_240606\puf_template\debug/../sdk/platform/drivers/src/edma_driver.c:616
    sp_virt_edma_state->p_virt_chn_state[virtual_channel]->p_parameter = p_parameter;
    19ac:	58c3      	ldr	r3, [r0, r3]
    19ae:	609a      	str	r2, [r3, #8]
D:\CQ9008\sample_codes\Release_example_240606\puf_template\debug/../sdk/platform/drivers/src/edma_driver.c:619
}
    19b0:	2000      	movs	r0, #0
    19b2:	bd10      	pop	{r4, pc}
    19b4:	20000304 	.word	0x20000304

000019b8 <edma_irq_handler>:
edma_irq_handler():
D:\CQ9008\sample_codes\Release_example_240606\puf_template\debug/../sdk/platform/drivers/src/edma_driver.c:669
{
    19b8:	b510      	push	{r4, lr}
D:\CQ9008\sample_codes\Release_example_240606\puf_template\debug/../sdk/platform/drivers/src/edma_driver.c:670
    const edma_chn_state_t *p_chn_state = sp_virt_edma_state->p_virt_chn_state[virtual_channel];
    19ba:	4b08      	ldr	r3, [pc, #32]	; (19dc <edma_irq_handler+0x24>)
    19bc:	681b      	ldr	r3, [r3, #0]
    19be:	0082      	lsls	r2, r0, #2
    19c0:	58d4      	ldr	r4, [r2, r3]
D:\CQ9008\sample_codes\Release_example_240606\puf_template\debug/../sdk/platform/drivers/src/edma_driver.c:672
    edma_clear_int_status(virtual_channel);
    19c2:	f7ff fee9 	bl	1798 <edma_clear_int_status>
D:\CQ9008\sample_codes\Release_example_240606\puf_template\debug/../sdk/platform/drivers/src/edma_driver.c:674
    if (p_chn_state != NULL)
    19c6:	2c00      	cmp	r4, #0
    19c8:	d006      	beq.n	19d8 <edma_irq_handler+0x20>
D:\CQ9008\sample_codes\Release_example_240606\puf_template\debug/../sdk/platform/drivers/src/edma_driver.c:676
        if (p_chn_state->callback != NULL)
    19ca:	6863      	ldr	r3, [r4, #4]
    19cc:	2b00      	cmp	r3, #0
    19ce:	d003      	beq.n	19d8 <edma_irq_handler+0x20>
D:\CQ9008\sample_codes\Release_example_240606\puf_template\debug/../sdk/platform/drivers/src/edma_driver.c:678
            p_chn_state->callback(p_chn_state->p_parameter, p_chn_state->status);
    19d0:	7b21      	ldrb	r1, [r4, #12]
    19d2:	b2c9      	uxtb	r1, r1
    19d4:	68a0      	ldr	r0, [r4, #8]
    19d6:	4798      	blx	r3
D:\CQ9008\sample_codes\Release_example_240606\puf_template\debug/../sdk/platform/drivers/src/edma_driver.c:681
}
    19d8:	bd10      	pop	{r4, pc}
    19da:	46c0      	nop			; (mov r8, r8)
    19dc:	20000304 	.word	0x20000304

000019e0 <edma_config_single_block_transfer>:
edma_config_single_block_transfer():
D:\CQ9008\sample_codes\Release_example_240606\puf_template\debug/../sdk/platform/drivers/src/edma_driver.c:726
{
    19e0:	b5f0      	push	{r4, r5, r6, r7, lr}
    19e2:	46c6      	mov	lr, r8
    19e4:	b500      	push	{lr}
    19e6:	b086      	sub	sp, #24
    19e8:	0005      	movs	r5, r0
    19ea:	000c      	movs	r4, r1
    19ec:	9203      	str	r2, [sp, #12]
    19ee:	9304      	str	r3, [sp, #16]
    19f0:	ab0c      	add	r3, sp, #48	; 0x30
    19f2:	781f      	ldrb	r7, [r3, #0]
DevAssert():
D:\CQ9008\sample_codes\Release_example_240606\puf_template\debug/../sdk/platform/devices/devassert.h:31
    if (x)
    19f4:	2803      	cmp	r0, #3
    19f6:	d901      	bls.n	19fc <edma_config_single_block_transfer+0x1c>
D:\CQ9008\sample_codes\Release_example_240606\puf_template\debug/../sdk/platform/devices/devassert.h:36
        BKPT_ASM;
    19f8:	be00      	bkpt	0x0000
D:\CQ9008\sample_codes\Release_example_240606\puf_template\debug/../sdk/platform/devices/devassert.h:37
        for (;;)
    19fa:	e7fe      	b.n	19fa <edma_config_single_block_transfer+0x1a>
edma_config_single_block_transfer():
D:\CQ9008\sample_codes\Release_example_240606\puf_template\debug/../sdk/platform/drivers/src/edma_driver.c:731
    DEV_ASSERT(sp_virt_edma_state != NULL);
    19fc:	4b60      	ldr	r3, [pc, #384]	; (1b80 <edma_config_single_block_transfer+0x1a0>)
    19fe:	681b      	ldr	r3, [r3, #0]
DevAssert():
D:\CQ9008\sample_codes\Release_example_240606\puf_template\debug/../sdk/platform/devices/devassert.h:31
    if (x)
    1a00:	2b00      	cmp	r3, #0
    1a02:	d101      	bne.n	1a08 <edma_config_single_block_transfer+0x28>
D:\CQ9008\sample_codes\Release_example_240606\puf_template\debug/../sdk/platform/devices/devassert.h:36
        BKPT_ASM;
    1a04:	be00      	bkpt	0x0000
D:\CQ9008\sample_codes\Release_example_240606\puf_template\debug/../sdk/platform/devices/devassert.h:37
        for (;;)
    1a06:	e7fe      	b.n	1a06 <edma_config_single_block_transfer+0x26>
edma_config_single_block_transfer():
D:\CQ9008\sample_codes\Release_example_240606\puf_template\debug/../sdk/platform/drivers/src/edma_driver.c:734
    DEV_ASSERT(sp_virt_edma_state->p_virt_chn_state[virtual_channel] != NULL);
    1a08:	0082      	lsls	r2, r0, #2
    1a0a:	58d3      	ldr	r3, [r2, r3]
DevAssert():
D:\CQ9008\sample_codes\Release_example_240606\puf_template\debug/../sdk/platform/devices/devassert.h:31
    if (x)
    1a0c:	2b00      	cmp	r3, #0
    1a0e:	d101      	bne.n	1a14 <edma_config_single_block_transfer+0x34>
D:\CQ9008\sample_codes\Release_example_240606\puf_template\debug/../sdk/platform/devices/devassert.h:36
        BKPT_ASM;
    1a10:	be00      	bkpt	0x0000
D:\CQ9008\sample_codes\Release_example_240606\puf_template\debug/../sdk/platform/devices/devassert.h:37
        for (;;)
    1a12:	e7fe      	b.n	1a12 <edma_config_single_block_transfer+0x32>
edma_config_single_block_transfer():
D:\CQ9008\sample_codes\Release_example_240606\puf_template\debug/../sdk/platform/drivers/src/edma_driver.c:738
    DEV_ASSERT(edma_valid_transfer_size(transfer_size));
    1a14:	0038      	movs	r0, r7
    1a16:	f7ff fec7 	bl	17a8 <edma_valid_transfer_size>
DevAssert():
D:\CQ9008\sample_codes\Release_example_240606\puf_template\debug/../sdk/platform/devices/devassert.h:31
    if (x)
    1a1a:	2800      	cmp	r0, #0
    1a1c:	d101      	bne.n	1a22 <edma_config_single_block_transfer+0x42>
D:\CQ9008\sample_codes\Release_example_240606\puf_template\debug/../sdk/platform/devices/devassert.h:36
        BKPT_ASM;
    1a1e:	be00      	bkpt	0x0000
D:\CQ9008\sample_codes\Release_example_240606\puf_template\debug/../sdk/platform/devices/devassert.h:37
        for (;;)
    1a20:	e7fe      	b.n	1a20 <edma_config_single_block_transfer+0x40>
edma_config_single_block_transfer():
D:\CQ9008\sample_codes\Release_example_240606\puf_template\debug/../sdk/platform/drivers/src/edma_driver.c:745
    uint8_t dma_channel = (uint8_t)FEATURE_DMA_VCH_TO_CH(virtual_channel);
    1a22:	2603      	movs	r6, #3
    1a24:	402e      	ands	r6, r5
D:\CQ9008\sample_codes\Release_example_240606\puf_template\debug/../sdk/platform/drivers/src/edma_driver.c:756
    uint8_t transfer_offset = (uint8_t)(1U << ((uint8_t)transfer_size));
    1a26:	2301      	movs	r3, #1
    1a28:	40bb      	lsls	r3, r7
    1a2a:	001a      	movs	r2, r3
    1a2c:	9305      	str	r3, [sp, #20]
D:\CQ9008\sample_codes\Release_example_240606\puf_template\debug/../sdk/platform/drivers/src/edma_driver.c:759
    DEV_ASSERT((src_addr % transfer_offset) == 0U);
    1a2e:	23ff      	movs	r3, #255	; 0xff
    1a30:	401a      	ands	r2, r3
    1a32:	4690      	mov	r8, r2
    1a34:	0011      	movs	r1, r2
    1a36:	9803      	ldr	r0, [sp, #12]
    1a38:	f7fe fc02 	bl	240 <__aeabi_uidivmod>
DevAssert():
D:\CQ9008\sample_codes\Release_example_240606\puf_template\debug/../sdk/platform/devices/devassert.h:31
    if (x)
    1a3c:	2900      	cmp	r1, #0
    1a3e:	d001      	beq.n	1a44 <edma_config_single_block_transfer+0x64>
D:\CQ9008\sample_codes\Release_example_240606\puf_template\debug/../sdk/platform/devices/devassert.h:36
        BKPT_ASM;
    1a40:	be00      	bkpt	0x0000
D:\CQ9008\sample_codes\Release_example_240606\puf_template\debug/../sdk/platform/devices/devassert.h:37
        for (;;)
    1a42:	e7fe      	b.n	1a42 <edma_config_single_block_transfer+0x62>
edma_config_single_block_transfer():
D:\CQ9008\sample_codes\Release_example_240606\puf_template\debug/../sdk/platform/drivers/src/edma_driver.c:760
    DEV_ASSERT((dest_addr % transfer_offset) == 0U);
    1a44:	4641      	mov	r1, r8
    1a46:	9804      	ldr	r0, [sp, #16]
    1a48:	f7fe fbfa 	bl	240 <__aeabi_uidivmod>
DevAssert():
D:\CQ9008\sample_codes\Release_example_240606\puf_template\debug/../sdk/platform/devices/devassert.h:31
    if (x)
    1a4c:	2900      	cmp	r1, #0
    1a4e:	d001      	beq.n	1a54 <edma_config_single_block_transfer+0x74>
D:\CQ9008\sample_codes\Release_example_240606\puf_template\debug/../sdk/platform/devices/devassert.h:36
        BKPT_ASM;
    1a50:	be00      	bkpt	0x0000
D:\CQ9008\sample_codes\Release_example_240606\puf_template\debug/../sdk/platform/devices/devassert.h:37
        for (;;)
    1a52:	e7fe      	b.n	1a52 <edma_config_single_block_transfer+0x72>
edma_config_single_block_transfer():
D:\CQ9008\sample_codes\Release_example_240606\puf_template\debug/../sdk/platform/drivers/src/edma_driver.c:765
    if ((data_buffer_size % transfer_offset) != 0U)
    1a54:	4641      	mov	r1, r8
    1a56:	980d      	ldr	r0, [sp, #52]	; 0x34
    1a58:	f7fe fbf2 	bl	240 <__aeabi_uidivmod>
    1a5c:	2900      	cmp	r1, #0
    1a5e:	d004      	beq.n	1a6a <edma_config_single_block_transfer+0x8a>
D:\CQ9008\sample_codes\Release_example_240606\puf_template\debug/../sdk/platform/drivers/src/edma_driver.c:767
        ret_status = STATUS_ERROR;
    1a60:	2001      	movs	r0, #1
D:\CQ9008\sample_codes\Release_example_240606\puf_template\debug/../sdk/platform/drivers/src/edma_driver.c:834
}
    1a62:	b006      	add	sp, #24
    1a64:	bc80      	pop	{r7}
    1a66:	46b8      	mov	r8, r7
    1a68:	bdf0      	pop	{r4, r5, r6, r7, pc}
D:\CQ9008\sample_codes\Release_example_240606\puf_template\debug/../sdk/platform/drivers/src/edma_driver.c:773
        edma_tcd_clear_reg(p_edma_reg_base, dma_channel);
    1a6a:	0031      	movs	r1, r6
    1a6c:	4845      	ldr	r0, [pc, #276]	; (1b84 <edma_config_single_block_transfer+0x1a4>)
    1a6e:	f7ff fea7 	bl	17c0 <edma_tcd_clear_reg>
edma_tcd_set_engine_stall():
D:\CQ9008\sample_codes\Release_example_240606\puf_template\debug/../sdk/platform/drivers/inc/edma_access.h:265
    reg_val = p_base->TCD[channel].CSR;
    1a72:	4a44      	ldr	r2, [pc, #272]	; (1b84 <edma_config_single_block_transfer+0x1a4>)
    1a74:	0170      	lsls	r0, r6, #5
    1a76:	4b44      	ldr	r3, [pc, #272]	; (1b88 <edma_config_single_block_transfer+0x1a8>)
    1a78:	469c      	mov	ip, r3
    1a7a:	4460      	add	r0, ip
    1a7c:	8803      	ldrh	r3, [r0, #0]
D:\CQ9008\sample_codes\Release_example_240606\puf_template\debug/../sdk/platform/drivers/inc/edma_access.h:266
    reg_val &= ~(DMA_TCD_CSR_BWC_MASK);
    1a7e:	049b      	lsls	r3, r3, #18
    1a80:	0c99      	lsrs	r1, r3, #18
D:\CQ9008\sample_codes\Release_example_240606\puf_template\debug/../sdk/platform/drivers/inc/edma_access.h:267
    reg_val |= DMA_TCD_CSR_BWC(cycles);
    1a82:	4b42      	ldr	r3, [pc, #264]	; (1b8c <edma_config_single_block_transfer+0x1ac>)
    1a84:	430b      	orrs	r3, r1
    1a86:	b29b      	uxth	r3, r3
D:\CQ9008\sample_codes\Release_example_240606\puf_template\debug/../sdk/platform/drivers/inc/edma_access.h:268
    p_base->TCD[channel].CSR = reg_val;
    1a88:	8003      	strh	r3, [r0, #0]
edma_set_minor_loop_mapping():
D:\CQ9008\sample_codes\Release_example_240606\puf_template\debug/../sdk/platform/drivers/inc/edma_access.h:170
    reg_val = p_base->CR;
    1a8a:	6813      	ldr	r3, [r2, #0]
D:\CQ9008\sample_codes\Release_example_240606\puf_template\debug/../sdk/platform/drivers/inc/edma_access.h:171
    reg_val &= ~(DMA_CR_EMLM_MASK);
    1a8c:	2180      	movs	r1, #128	; 0x80
    1a8e:	438b      	bics	r3, r1
D:\CQ9008\sample_codes\Release_example_240606\puf_template\debug/../sdk/platform/drivers/inc/edma_access.h:172
    reg_val |= DMA_CR_EMLM(b_enable ? 1UL : 0UL);
    1a90:	430b      	orrs	r3, r1
D:\CQ9008\sample_codes\Release_example_240606\puf_template\debug/../sdk/platform/drivers/inc/edma_access.h:173
    p_base->CR = reg_val;
    1a92:	6013      	str	r3, [r2, #0]
edma_tcd_set_src_addr():
D:\CQ9008\sample_codes\Release_example_240606\puf_template\debug/../sdk/platform/drivers/inc/edma_access.h:285
    p_base->TCD[channel].SADDR = address;
    1a94:	0033      	movs	r3, r6
    1a96:	3380      	adds	r3, #128	; 0x80
    1a98:	015b      	lsls	r3, r3, #5
    1a9a:	9903      	ldr	r1, [sp, #12]
    1a9c:	5099      	str	r1, [r3, r2]
edma_tcd_set_dest_addr():
D:\CQ9008\sample_codes\Release_example_240606\puf_template\debug/../sdk/platform/drivers/inc/edma_access.h:440
    p_base->TCD[channel].DADDR = address;
    1a9e:	0173      	lsls	r3, r6, #5
    1aa0:	4a3b      	ldr	r2, [pc, #236]	; (1b90 <edma_config_single_block_transfer+0x1b0>)
    1aa2:	4694      	mov	ip, r2
    1aa4:	4463      	add	r3, ip
    1aa6:	9a04      	ldr	r2, [sp, #16]
    1aa8:	601a      	str	r2, [r3, #0]
edma_config_single_block_transfer():
D:\CQ9008\sample_codes\Release_example_240606\puf_template\debug/../sdk/platform/drivers/src/edma_driver.c:788
        edma_tcd_set_attribute(p_edma_reg_base,
    1aaa:	9701      	str	r7, [sp, #4]
    1aac:	9700      	str	r7, [sp, #0]
    1aae:	2300      	movs	r3, #0
    1ab0:	2200      	movs	r2, #0
    1ab2:	0031      	movs	r1, r6
    1ab4:	4833      	ldr	r0, [pc, #204]	; (1b84 <edma_config_single_block_transfer+0x1a4>)
    1ab6:	f7ff feb7 	bl	1828 <edma_tcd_set_attribute>
D:\CQ9008\sample_codes\Release_example_240606\puf_template\debug/../sdk/platform/drivers/src/edma_driver.c:796
        switch (type)
    1aba:	2c02      	cmp	r4, #2
    1abc:	d04f      	beq.n	1b5e <edma_config_single_block_transfer+0x17e>
    1abe:	d82b      	bhi.n	1b18 <edma_config_single_block_transfer+0x138>
    1ac0:	2c00      	cmp	r4, #0
    1ac2:	d03a      	beq.n	1b3a <edma_config_single_block_transfer+0x15a>
    1ac4:	2c01      	cmp	r4, #1
    1ac6:	d110      	bne.n	1aea <edma_config_single_block_transfer+0x10a>
D:\CQ9008\sample_codes\Release_example_240606\puf_template\debug/../sdk/platform/drivers/src/edma_driver.c:803
                edma_tcd_set_src_offset(p_edma_reg_base, dma_channel, (int8_t)transfer_offset);
    1ac8:	466b      	mov	r3, sp
    1aca:	2714      	movs	r7, #20
    1acc:	57df      	ldrsb	r7, [r3, r7]
edma_tcd_set_src_offset():
D:\CQ9008\sample_codes\Release_example_240606\puf_template\debug/../sdk/platform/drivers/inc/edma_access.h:304
    p_base->TCD[channel].SOFF = (uint16_t)offset;
    1ace:	b2bf      	uxth	r7, r7
    1ad0:	0033      	movs	r3, r6
    1ad2:	3380      	adds	r3, #128	; 0x80
    1ad4:	015b      	lsls	r3, r3, #5
    1ad6:	4a2b      	ldr	r2, [pc, #172]	; (1b84 <edma_config_single_block_transfer+0x1a4>)
    1ad8:	4694      	mov	ip, r2
    1ada:	4463      	add	r3, ip
    1adc:	809f      	strh	r7, [r3, #4]
edma_tcd_set_dest_offset():
D:\CQ9008\sample_codes\Release_example_240606\puf_template\debug/../sdk/platform/drivers/inc/edma_access.h:459
    p_base->TCD[channel].DOFF = (uint16_t)offset;
    1ade:	0173      	lsls	r3, r6, #5
    1ae0:	4a2c      	ldr	r2, [pc, #176]	; (1b94 <edma_config_single_block_transfer+0x1b4>)
    1ae2:	4694      	mov	ip, r2
    1ae4:	4463      	add	r3, ip
    1ae6:	2200      	movs	r2, #0
    1ae8:	801a      	strh	r2, [r3, #0]
edma_config_single_block_transfer():
D:\CQ9008\sample_codes\Release_example_240606\puf_template\debug/../sdk/platform/drivers/src/edma_driver.c:821
        edma_tcd_set_nbytes(p_edma_reg_base, dma_channel, data_buffer_size);
    1aea:	4c26      	ldr	r4, [pc, #152]	; (1b84 <edma_config_single_block_transfer+0x1a4>)
    1aec:	9a0d      	ldr	r2, [sp, #52]	; 0x34
    1aee:	0031      	movs	r1, r6
    1af0:	0020      	movs	r0, r4
    1af2:	f7ff feb5 	bl	1860 <edma_tcd_set_nbytes>
D:\CQ9008\sample_codes\Release_example_240606\puf_template\debug/../sdk/platform/drivers/src/edma_driver.c:824
        edma_tcd_set_major_count(p_edma_reg_base, dma_channel, 1U);
    1af6:	2201      	movs	r2, #1
    1af8:	0031      	movs	r1, r6
    1afa:	0020      	movs	r0, r4
    1afc:	f7ff fee4 	bl	18c8 <edma_tcd_set_major_count>
D:\CQ9008\sample_codes\Release_example_240606\puf_template\debug/../sdk/platform/drivers/src/edma_driver.c:827
        edma_tcd_set_major_complete_int(p_edma_reg_base, dma_channel, true);
    1b00:	2201      	movs	r2, #1
    1b02:	0031      	movs	r1, r6
    1b04:	0020      	movs	r0, r4
    1b06:	f7ff fe29 	bl	175c <edma_tcd_set_major_complete_int>
D:\CQ9008\sample_codes\Release_example_240606\puf_template\debug/../sdk/platform/drivers/src/edma_driver.c:830
        sp_virt_edma_state->p_virt_chn_state[virtual_channel]->status = EDMA_CHN_NORMAL;
    1b0a:	4b1d      	ldr	r3, [pc, #116]	; (1b80 <edma_config_single_block_transfer+0x1a0>)
    1b0c:	681b      	ldr	r3, [r3, #0]
    1b0e:	00a8      	lsls	r0, r5, #2
    1b10:	58c3      	ldr	r3, [r0, r3]
    1b12:	2000      	movs	r0, #0
    1b14:	7318      	strb	r0, [r3, #12]
    1b16:	e7a4      	b.n	1a62 <edma_config_single_block_transfer+0x82>
D:\CQ9008\sample_codes\Release_example_240606\puf_template\debug/../sdk/platform/drivers/src/edma_driver.c:796
        switch (type)
    1b18:	2c03      	cmp	r4, #3
    1b1a:	d1e6      	bne.n	1aea <edma_config_single_block_transfer+0x10a>
edma_tcd_set_src_offset():
D:\CQ9008\sample_codes\Release_example_240606\puf_template\debug/../sdk/platform/drivers/inc/edma_access.h:304
    p_base->TCD[channel].SOFF = (uint16_t)offset;
    1b1c:	0033      	movs	r3, r6
    1b1e:	3380      	adds	r3, #128	; 0x80
    1b20:	015b      	lsls	r3, r3, #5
    1b22:	4a18      	ldr	r2, [pc, #96]	; (1b84 <edma_config_single_block_transfer+0x1a4>)
    1b24:	4694      	mov	ip, r2
    1b26:	4463      	add	r3, ip
    1b28:	2200      	movs	r2, #0
    1b2a:	809a      	strh	r2, [r3, #4]
edma_tcd_set_dest_offset():
D:\CQ9008\sample_codes\Release_example_240606\puf_template\debug/../sdk/platform/drivers/inc/edma_access.h:459
    p_base->TCD[channel].DOFF = (uint16_t)offset;
    1b2c:	0173      	lsls	r3, r6, #5
    1b2e:	4a19      	ldr	r2, [pc, #100]	; (1b94 <edma_config_single_block_transfer+0x1b4>)
    1b30:	4694      	mov	ip, r2
    1b32:	4463      	add	r3, ip
    1b34:	2200      	movs	r2, #0
    1b36:	801a      	strh	r2, [r3, #0]
D:\CQ9008\sample_codes\Release_example_240606\puf_template\debug/../sdk/platform/drivers/inc/edma_access.h:460
}
    1b38:	e7d7      	b.n	1aea <edma_config_single_block_transfer+0x10a>
edma_tcd_set_src_offset():
D:\CQ9008\sample_codes\Release_example_240606\puf_template\debug/../sdk/platform/drivers/inc/edma_access.h:304
    p_base->TCD[channel].SOFF = (uint16_t)offset;
    1b3a:	0033      	movs	r3, r6
    1b3c:	3380      	adds	r3, #128	; 0x80
    1b3e:	015b      	lsls	r3, r3, #5
    1b40:	4a10      	ldr	r2, [pc, #64]	; (1b84 <edma_config_single_block_transfer+0x1a4>)
    1b42:	4694      	mov	ip, r2
    1b44:	4463      	add	r3, ip
    1b46:	2200      	movs	r2, #0
    1b48:	809a      	strh	r2, [r3, #4]
edma_config_single_block_transfer():
D:\CQ9008\sample_codes\Release_example_240606\puf_template\debug/../sdk/platform/drivers/src/edma_driver.c:800
                edma_tcd_set_dest_offset(p_edma_reg_base, dma_channel, (int8_t)transfer_offset);
    1b4a:	466b      	mov	r3, sp
    1b4c:	2714      	movs	r7, #20
    1b4e:	57df      	ldrsb	r7, [r3, r7]
edma_tcd_set_dest_offset():
D:\CQ9008\sample_codes\Release_example_240606\puf_template\debug/../sdk/platform/drivers/inc/edma_access.h:459
    p_base->TCD[channel].DOFF = (uint16_t)offset;
    1b50:	b2bf      	uxth	r7, r7
    1b52:	0173      	lsls	r3, r6, #5
    1b54:	4a0f      	ldr	r2, [pc, #60]	; (1b94 <edma_config_single_block_transfer+0x1b4>)
    1b56:	4694      	mov	ip, r2
    1b58:	4463      	add	r3, ip
    1b5a:	801f      	strh	r7, [r3, #0]
D:\CQ9008\sample_codes\Release_example_240606\puf_template\debug/../sdk/platform/drivers/inc/edma_access.h:460
}
    1b5c:	e7c5      	b.n	1aea <edma_config_single_block_transfer+0x10a>
edma_config_single_block_transfer():
D:\CQ9008\sample_codes\Release_example_240606\puf_template\debug/../sdk/platform/drivers/src/edma_driver.c:807
                edma_tcd_set_src_offset(p_edma_reg_base, dma_channel, (int8_t)transfer_offset);
    1b5e:	466b      	mov	r3, sp
    1b60:	2714      	movs	r7, #20
    1b62:	57df      	ldrsb	r7, [r3, r7]
edma_tcd_set_src_offset():
D:\CQ9008\sample_codes\Release_example_240606\puf_template\debug/../sdk/platform/drivers/inc/edma_access.h:304
    p_base->TCD[channel].SOFF = (uint16_t)offset;
    1b64:	b2bf      	uxth	r7, r7
    1b66:	0033      	movs	r3, r6
    1b68:	3380      	adds	r3, #128	; 0x80
    1b6a:	015b      	lsls	r3, r3, #5
    1b6c:	4a05      	ldr	r2, [pc, #20]	; (1b84 <edma_config_single_block_transfer+0x1a4>)
    1b6e:	4694      	mov	ip, r2
    1b70:	4463      	add	r3, ip
    1b72:	809f      	strh	r7, [r3, #4]
edma_tcd_set_dest_offset():
D:\CQ9008\sample_codes\Release_example_240606\puf_template\debug/../sdk/platform/drivers/inc/edma_access.h:459
    p_base->TCD[channel].DOFF = (uint16_t)offset;
    1b74:	0173      	lsls	r3, r6, #5
    1b76:	4a07      	ldr	r2, [pc, #28]	; (1b94 <edma_config_single_block_transfer+0x1b4>)
    1b78:	4694      	mov	ip, r2
    1b7a:	4463      	add	r3, ip
    1b7c:	801f      	strh	r7, [r3, #0]
D:\CQ9008\sample_codes\Release_example_240606\puf_template\debug/../sdk/platform/drivers/inc/edma_access.h:460
}
    1b7e:	e7b4      	b.n	1aea <edma_config_single_block_transfer+0x10a>
    1b80:	20000304 	.word	0x20000304
    1b84:	40008000 	.word	0x40008000
    1b88:	4000901c 	.word	0x4000901c
    1b8c:	ffff8000 	.word	0xffff8000
    1b90:	40009010 	.word	0x40009010
    1b94:	40009014 	.word	0x40009014

00001b98 <edma_config_multi_block_transfer>:
edma_config_multi_block_transfer():
D:\CQ9008\sample_codes\Release_example_240606\puf_template\debug/../sdk/platform/drivers/src/edma_driver.c:852
{
    1b98:	b5f0      	push	{r4, r5, r6, r7, lr}
    1b9a:	46d6      	mov	lr, sl
    1b9c:	b500      	push	{lr}
    1b9e:	b086      	sub	sp, #24
    1ba0:	0004      	movs	r4, r0
    1ba2:	9105      	str	r1, [sp, #20]
    1ba4:	9203      	str	r2, [sp, #12]
    1ba6:	9304      	str	r3, [sp, #16]
    1ba8:	ab0c      	add	r3, sp, #48	; 0x30
    1baa:	781d      	ldrb	r5, [r3, #0]
    1bac:	ab0f      	add	r3, sp, #60	; 0x3c
    1bae:	781e      	ldrb	r6, [r3, #0]
DevAssert():
D:\CQ9008\sample_codes\Release_example_240606\puf_template\debug/../sdk/platform/devices/devassert.h:31
    if (x)
    1bb0:	2803      	cmp	r0, #3
    1bb2:	d901      	bls.n	1bb8 <edma_config_multi_block_transfer+0x20>
D:\CQ9008\sample_codes\Release_example_240606\puf_template\debug/../sdk/platform/devices/devassert.h:36
        BKPT_ASM;
    1bb4:	be00      	bkpt	0x0000
D:\CQ9008\sample_codes\Release_example_240606\puf_template\debug/../sdk/platform/devices/devassert.h:37
        for (;;)
    1bb6:	e7fe      	b.n	1bb6 <edma_config_multi_block_transfer+0x1e>
edma_config_multi_block_transfer():
D:\CQ9008\sample_codes\Release_example_240606\puf_template\debug/../sdk/platform/drivers/src/edma_driver.c:857
    DEV_ASSERT(sp_virt_edma_state != NULL);
    1bb8:	4b21      	ldr	r3, [pc, #132]	; (1c40 <edma_config_multi_block_transfer+0xa8>)
    1bba:	681b      	ldr	r3, [r3, #0]
DevAssert():
D:\CQ9008\sample_codes\Release_example_240606\puf_template\debug/../sdk/platform/devices/devassert.h:31
    if (x)
    1bbc:	2b00      	cmp	r3, #0
    1bbe:	d101      	bne.n	1bc4 <edma_config_multi_block_transfer+0x2c>
D:\CQ9008\sample_codes\Release_example_240606\puf_template\debug/../sdk/platform/devices/devassert.h:36
        BKPT_ASM;
    1bc0:	be00      	bkpt	0x0000
D:\CQ9008\sample_codes\Release_example_240606\puf_template\debug/../sdk/platform/devices/devassert.h:37
        for (;;)
    1bc2:	e7fe      	b.n	1bc2 <edma_config_multi_block_transfer+0x2a>
edma_config_multi_block_transfer():
D:\CQ9008\sample_codes\Release_example_240606\puf_template\debug/../sdk/platform/drivers/src/edma_driver.c:863
    uint8_t dma_channel = (uint8_t)FEATURE_DMA_VCH_TO_CH(virtual_channel);
    1bc4:	2703      	movs	r7, #3
    1bc6:	4007      	ands	r7, r0
D:\CQ9008\sample_codes\Release_example_240606\puf_template\debug/../sdk/platform/drivers/src/edma_driver.c:874
    uint8_t transfer_offset = (uint8_t)(1U << ((uint8_t)transfer_size));
    1bc8:	2301      	movs	r3, #1
    1bca:	40ab      	lsls	r3, r5
D:\CQ9008\sample_codes\Release_example_240606\puf_template\debug/../sdk/platform/drivers/src/edma_driver.c:877
    DEV_ASSERT((src_addr % transfer_offset) == 0U);
    1bcc:	22ff      	movs	r2, #255	; 0xff
    1bce:	401a      	ands	r2, r3
    1bd0:	4692      	mov	sl, r2
    1bd2:	0011      	movs	r1, r2
    1bd4:	9803      	ldr	r0, [sp, #12]
    1bd6:	f7fe fb33 	bl	240 <__aeabi_uidivmod>
DevAssert():
D:\CQ9008\sample_codes\Release_example_240606\puf_template\debug/../sdk/platform/devices/devassert.h:31
    if (x)
    1bda:	2900      	cmp	r1, #0
    1bdc:	d001      	beq.n	1be2 <edma_config_multi_block_transfer+0x4a>
D:\CQ9008\sample_codes\Release_example_240606\puf_template\debug/../sdk/platform/devices/devassert.h:36
        BKPT_ASM;
    1bde:	be00      	bkpt	0x0000
D:\CQ9008\sample_codes\Release_example_240606\puf_template\debug/../sdk/platform/devices/devassert.h:37
        for (;;)
    1be0:	e7fe      	b.n	1be0 <edma_config_multi_block_transfer+0x48>
edma_config_multi_block_transfer():
D:\CQ9008\sample_codes\Release_example_240606\puf_template\debug/../sdk/platform/drivers/src/edma_driver.c:878
    DEV_ASSERT((dest_addr % transfer_offset) == 0U);
    1be2:	4651      	mov	r1, sl
    1be4:	9804      	ldr	r0, [sp, #16]
    1be6:	f7fe fb2b 	bl	240 <__aeabi_uidivmod>
DevAssert():
D:\CQ9008\sample_codes\Release_example_240606\puf_template\debug/../sdk/platform/devices/devassert.h:31
    if (x)
    1bea:	2900      	cmp	r1, #0
    1bec:	d001      	beq.n	1bf2 <edma_config_multi_block_transfer+0x5a>
D:\CQ9008\sample_codes\Release_example_240606\puf_template\debug/../sdk/platform/devices/devassert.h:36
        BKPT_ASM;
    1bee:	be00      	bkpt	0x0000
D:\CQ9008\sample_codes\Release_example_240606\puf_template\debug/../sdk/platform/devices/devassert.h:37
        for (;;)
    1bf0:	e7fe      	b.n	1bf0 <edma_config_multi_block_transfer+0x58>
edma_config_multi_block_transfer():
D:\CQ9008\sample_codes\Release_example_240606\puf_template\debug/../sdk/platform/drivers/src/edma_driver.c:882
    ret_status = edma_config_single_block_transfer(
    1bf2:	9b0d      	ldr	r3, [sp, #52]	; 0x34
    1bf4:	9301      	str	r3, [sp, #4]
    1bf6:	9500      	str	r5, [sp, #0]
    1bf8:	9b04      	ldr	r3, [sp, #16]
    1bfa:	9a03      	ldr	r2, [sp, #12]
    1bfc:	9905      	ldr	r1, [sp, #20]
    1bfe:	0020      	movs	r0, r4
    1c00:	f7ff feee 	bl	19e0 <edma_config_single_block_transfer>
    1c04:	1e04      	subs	r4, r0, #0
D:\CQ9008\sample_codes\Release_example_240606\puf_template\debug/../sdk/platform/drivers/src/edma_driver.c:885
    if (ret_status == STATUS_SUCCESS)
    1c06:	d004      	beq.n	1c12 <edma_config_multi_block_transfer+0x7a>
D:\CQ9008\sample_codes\Release_example_240606\puf_template\debug/../sdk/platform/drivers/src/edma_driver.c:897
}
    1c08:	0020      	movs	r0, r4
    1c0a:	b006      	add	sp, #24
    1c0c:	bc80      	pop	{r7}
    1c0e:	46ba      	mov	sl, r7
    1c10:	bdf0      	pop	{r4, r5, r6, r7, pc}
D:\CQ9008\sample_codes\Release_example_240606\puf_template\debug/../sdk/platform/drivers/src/edma_driver.c:890
        edma_tcd_set_major_count(p_edma_reg_base, dma_channel, block_count);
    1c12:	9a0e      	ldr	r2, [sp, #56]	; 0x38
    1c14:	0039      	movs	r1, r7
    1c16:	480b      	ldr	r0, [pc, #44]	; (1c44 <edma_config_multi_block_transfer+0xac>)
    1c18:	f7ff fe56 	bl	18c8 <edma_tcd_set_major_count>
edma_tcd_set_disable_dma_request():
D:\CQ9008\sample_codes\Release_example_240606\puf_template\debug/../sdk/platform/drivers/inc/edma_access.h:553
    reg_val = p_base->TCD[channel].CSR;
    1c1c:	017b      	lsls	r3, r7, #5
    1c1e:	4a0a      	ldr	r2, [pc, #40]	; (1c48 <edma_config_multi_block_transfer+0xb0>)
    1c20:	4694      	mov	ip, r2
    1c22:	4463      	add	r3, ip
    1c24:	881a      	ldrh	r2, [r3, #0]
D:\CQ9008\sample_codes\Release_example_240606\puf_template\debug/../sdk/platform/drivers/inc/edma_access.h:554
    reg_val &= (uint16_t) ~(DMA_TCD_CSR_DREQ_MASK);
    1c26:	2308      	movs	r3, #8
    1c28:	439a      	bics	r2, r3
D:\CQ9008\sample_codes\Release_example_240606\puf_template\debug/../sdk/platform/drivers/inc/edma_access.h:555
    reg_val |= (uint16_t)DMA_TCD_CSR_DREQ(disable ? 1UL : 0UL);
    1c2a:	2e00      	cmp	r6, #0
    1c2c:	d100      	bne.n	1c30 <edma_config_multi_block_transfer+0x98>
    1c2e:	2300      	movs	r3, #0
    1c30:	431a      	orrs	r2, r3
D:\CQ9008\sample_codes\Release_example_240606\puf_template\debug/../sdk/platform/drivers/inc/edma_access.h:556
    p_base->TCD[channel].CSR = reg_val;
    1c32:	017b      	lsls	r3, r7, #5
    1c34:	4904      	ldr	r1, [pc, #16]	; (1c48 <edma_config_multi_block_transfer+0xb0>)
    1c36:	468c      	mov	ip, r1
    1c38:	4463      	add	r3, ip
    1c3a:	801a      	strh	r2, [r3, #0]
D:\CQ9008\sample_codes\Release_example_240606\puf_template\debug/../sdk/platform/drivers/inc/edma_access.h:557
}
    1c3c:	e7e4      	b.n	1c08 <edma_config_multi_block_transfer+0x70>
    1c3e:	46c0      	nop			; (mov r8, r8)
    1c40:	20000304 	.word	0x20000304
    1c44:	40008000 	.word	0x40008000
    1c48:	4000901c 	.word	0x4000901c

00001c4c <edma_start_channel>:
edma_start_channel():
D:\CQ9008\sample_codes\Release_example_240606\puf_template\debug/../sdk/platform/drivers/src/edma_driver.c:1125
{
    1c4c:	b510      	push	{r4, lr}
DevAssert():
D:\CQ9008\sample_codes\Release_example_240606\puf_template\debug/../sdk/platform/devices/devassert.h:31
    if (x)
    1c4e:	2803      	cmp	r0, #3
    1c50:	d901      	bls.n	1c56 <edma_start_channel+0xa>
D:\CQ9008\sample_codes\Release_example_240606\puf_template\debug/../sdk/platform/devices/devassert.h:36
        BKPT_ASM;
    1c52:	be00      	bkpt	0x0000
D:\CQ9008\sample_codes\Release_example_240606\puf_template\debug/../sdk/platform/devices/devassert.h:37
        for (;;)
    1c54:	e7fe      	b.n	1c54 <edma_start_channel+0x8>
edma_start_channel():
D:\CQ9008\sample_codes\Release_example_240606\puf_template\debug/../sdk/platform/drivers/src/edma_driver.c:1130
    DEV_ASSERT(sp_virt_edma_state != NULL);
    1c56:	4b0a      	ldr	r3, [pc, #40]	; (1c80 <edma_start_channel+0x34>)
    1c58:	681b      	ldr	r3, [r3, #0]
DevAssert():
D:\CQ9008\sample_codes\Release_example_240606\puf_template\debug/../sdk/platform/devices/devassert.h:31
    if (x)
    1c5a:	2b00      	cmp	r3, #0
    1c5c:	d101      	bne.n	1c62 <edma_start_channel+0x16>
D:\CQ9008\sample_codes\Release_example_240606\puf_template\debug/../sdk/platform/devices/devassert.h:36
        BKPT_ASM;
    1c5e:	be00      	bkpt	0x0000
D:\CQ9008\sample_codes\Release_example_240606\puf_template\debug/../sdk/platform/devices/devassert.h:37
        for (;;)
    1c60:	e7fe      	b.n	1c60 <edma_start_channel+0x14>
edma_start_channel():
D:\CQ9008\sample_codes\Release_example_240606\puf_template\debug/../sdk/platform/drivers/src/edma_driver.c:1133
    DEV_ASSERT(sp_virt_edma_state->p_virt_chn_state[virtual_channel] != NULL);
    1c62:	0082      	lsls	r2, r0, #2
    1c64:	58d3      	ldr	r3, [r2, r3]
DevAssert():
D:\CQ9008\sample_codes\Release_example_240606\puf_template\debug/../sdk/platform/devices/devassert.h:31
    if (x)
    1c66:	2b00      	cmp	r3, #0
    1c68:	d101      	bne.n	1c6e <edma_start_channel+0x22>
D:\CQ9008\sample_codes\Release_example_240606\puf_template\debug/../sdk/platform/devices/devassert.h:36
        BKPT_ASM;
    1c6a:	be00      	bkpt	0x0000
D:\CQ9008\sample_codes\Release_example_240606\puf_template\debug/../sdk/platform/devices/devassert.h:37
        for (;;)
    1c6c:	e7fe      	b.n	1c6c <edma_start_channel+0x20>
edma_start_channel():
D:\CQ9008\sample_codes\Release_example_240606\puf_template\debug/../sdk/platform/drivers/src/edma_driver.c:1139
    uint8_t dma_channel = (uint8_t)FEATURE_DMA_VCH_TO_CH(virtual_channel);
    1c6e:	2103      	movs	r1, #3
    1c70:	4001      	ands	r1, r0
D:\CQ9008\sample_codes\Release_example_240606\puf_template\debug/../sdk/platform/drivers/src/edma_driver.c:1143
    edma_set_dma_request(p_edma_reg_base, dma_channel, true);
    1c72:	2201      	movs	r2, #1
    1c74:	4803      	ldr	r0, [pc, #12]	; (1c84 <edma_start_channel+0x38>)
    1c76:	f7ff fd9d 	bl	17b4 <edma_set_dma_request>
D:\CQ9008\sample_codes\Release_example_240606\puf_template\debug/../sdk/platform/drivers/src/edma_driver.c:1146
}
    1c7a:	2000      	movs	r0, #0
    1c7c:	bd10      	pop	{r4, pc}
    1c7e:	46c0      	nop			; (mov r8, r8)
    1c80:	20000304 	.word	0x20000304
    1c84:	40008000 	.word	0x40008000

00001c88 <edma_stop_channel>:
edma_stop_channel():
D:\CQ9008\sample_codes\Release_example_240606\puf_template\debug/../sdk/platform/drivers/src/edma_driver.c:1157
{
    1c88:	b510      	push	{r4, lr}
DevAssert():
D:\CQ9008\sample_codes\Release_example_240606\puf_template\debug/../sdk/platform/devices/devassert.h:31
    if (x)
    1c8a:	2803      	cmp	r0, #3
    1c8c:	d901      	bls.n	1c92 <edma_stop_channel+0xa>
D:\CQ9008\sample_codes\Release_example_240606\puf_template\debug/../sdk/platform/devices/devassert.h:36
        BKPT_ASM;
    1c8e:	be00      	bkpt	0x0000
D:\CQ9008\sample_codes\Release_example_240606\puf_template\debug/../sdk/platform/devices/devassert.h:37
        for (;;)
    1c90:	e7fe      	b.n	1c90 <edma_stop_channel+0x8>
edma_stop_channel():
D:\CQ9008\sample_codes\Release_example_240606\puf_template\debug/../sdk/platform/drivers/src/edma_driver.c:1162
    DEV_ASSERT(sp_virt_edma_state != NULL);
    1c92:	4b0a      	ldr	r3, [pc, #40]	; (1cbc <edma_stop_channel+0x34>)
    1c94:	681b      	ldr	r3, [r3, #0]
DevAssert():
D:\CQ9008\sample_codes\Release_example_240606\puf_template\debug/../sdk/platform/devices/devassert.h:31
    if (x)
    1c96:	2b00      	cmp	r3, #0
    1c98:	d101      	bne.n	1c9e <edma_stop_channel+0x16>
D:\CQ9008\sample_codes\Release_example_240606\puf_template\debug/../sdk/platform/devices/devassert.h:36
        BKPT_ASM;
    1c9a:	be00      	bkpt	0x0000
D:\CQ9008\sample_codes\Release_example_240606\puf_template\debug/../sdk/platform/devices/devassert.h:37
        for (;;)
    1c9c:	e7fe      	b.n	1c9c <edma_stop_channel+0x14>
edma_stop_channel():
D:\CQ9008\sample_codes\Release_example_240606\puf_template\debug/../sdk/platform/drivers/src/edma_driver.c:1165
    DEV_ASSERT(sp_virt_edma_state->p_virt_chn_state[virtual_channel] != NULL);
    1c9e:	0082      	lsls	r2, r0, #2
    1ca0:	58d3      	ldr	r3, [r2, r3]
DevAssert():
D:\CQ9008\sample_codes\Release_example_240606\puf_template\debug/../sdk/platform/devices/devassert.h:31
    if (x)
    1ca2:	2b00      	cmp	r3, #0
    1ca4:	d101      	bne.n	1caa <edma_stop_channel+0x22>
D:\CQ9008\sample_codes\Release_example_240606\puf_template\debug/../sdk/platform/devices/devassert.h:36
        BKPT_ASM;
    1ca6:	be00      	bkpt	0x0000
D:\CQ9008\sample_codes\Release_example_240606\puf_template\debug/../sdk/platform/devices/devassert.h:37
        for (;;)
    1ca8:	e7fe      	b.n	1ca8 <edma_stop_channel+0x20>
edma_stop_channel():
D:\CQ9008\sample_codes\Release_example_240606\puf_template\debug/../sdk/platform/drivers/src/edma_driver.c:1171
    uint8_t dma_channel = (uint8_t)FEATURE_DMA_VCH_TO_CH(virtual_channel);
    1caa:	2103      	movs	r1, #3
    1cac:	4001      	ands	r1, r0
D:\CQ9008\sample_codes\Release_example_240606\puf_template\debug/../sdk/platform/drivers/src/edma_driver.c:1175
    edma_set_dma_request(p_edma_reg_base, dma_channel, false);
    1cae:	2200      	movs	r2, #0
    1cb0:	4803      	ldr	r0, [pc, #12]	; (1cc0 <edma_stop_channel+0x38>)
    1cb2:	f7ff fd7f 	bl	17b4 <edma_set_dma_request>
D:\CQ9008\sample_codes\Release_example_240606\puf_template\debug/../sdk/platform/drivers/src/edma_driver.c:1178
}
    1cb6:	2000      	movs	r0, #0
    1cb8:	bd10      	pop	{r4, pc}
    1cba:	46c0      	nop			; (mov r8, r8)
    1cbc:	20000304 	.word	0x20000304
    1cc0:	40008000 	.word	0x40008000

00001cc4 <edma_set_src_addr>:
DevAssert():
D:\CQ9008\sample_codes\Release_example_240606\puf_template\debug/../sdk/platform/devices/devassert.h:31
    if (x)
    1cc4:	2803      	cmp	r0, #3
    1cc6:	d901      	bls.n	1ccc <edma_set_src_addr+0x8>
D:\CQ9008\sample_codes\Release_example_240606\puf_template\debug/../sdk/platform/devices/devassert.h:36
        BKPT_ASM;
    1cc8:	be00      	bkpt	0x0000
D:\CQ9008\sample_codes\Release_example_240606\puf_template\debug/../sdk/platform/devices/devassert.h:37
        for (;;)
    1cca:	e7fe      	b.n	1cca <edma_set_src_addr+0x6>
edma_set_src_addr():
D:\CQ9008\sample_codes\Release_example_240606\puf_template\debug/../sdk/platform/drivers/src/edma_driver.c:1262
    DEV_ASSERT(sp_virt_edma_state != NULL);
    1ccc:	4b09      	ldr	r3, [pc, #36]	; (1cf4 <edma_set_src_addr+0x30>)
    1cce:	681b      	ldr	r3, [r3, #0]
DevAssert():
D:\CQ9008\sample_codes\Release_example_240606\puf_template\debug/../sdk/platform/devices/devassert.h:31
    if (x)
    1cd0:	2b00      	cmp	r3, #0
    1cd2:	d101      	bne.n	1cd8 <edma_set_src_addr+0x14>
D:\CQ9008\sample_codes\Release_example_240606\puf_template\debug/../sdk/platform/devices/devassert.h:36
        BKPT_ASM;
    1cd4:	be00      	bkpt	0x0000
D:\CQ9008\sample_codes\Release_example_240606\puf_template\debug/../sdk/platform/devices/devassert.h:37
        for (;;)
    1cd6:	e7fe      	b.n	1cd6 <edma_set_src_addr+0x12>
edma_set_src_addr():
D:\CQ9008\sample_codes\Release_example_240606\puf_template\debug/../sdk/platform/drivers/src/edma_driver.c:1265
    DEV_ASSERT(sp_virt_edma_state->p_virt_chn_state[virtual_channel] != NULL);
    1cd8:	0082      	lsls	r2, r0, #2
    1cda:	58d3      	ldr	r3, [r2, r3]
DevAssert():
D:\CQ9008\sample_codes\Release_example_240606\puf_template\debug/../sdk/platform/devices/devassert.h:31
    if (x)
    1cdc:	2b00      	cmp	r3, #0
    1cde:	d101      	bne.n	1ce4 <edma_set_src_addr+0x20>
D:\CQ9008\sample_codes\Release_example_240606\puf_template\debug/../sdk/platform/devices/devassert.h:36
        BKPT_ASM;
    1ce0:	be00      	bkpt	0x0000
D:\CQ9008\sample_codes\Release_example_240606\puf_template\debug/../sdk/platform/devices/devassert.h:37
        for (;;)
    1ce2:	e7fe      	b.n	1ce2 <edma_set_src_addr+0x1e>
edma_set_src_addr():
D:\CQ9008\sample_codes\Release_example_240606\puf_template\debug/../sdk/platform/drivers/src/edma_driver.c:1271
    uint8_t dma_channel = (uint8_t)FEATURE_DMA_VCH_TO_CH(virtual_channel);
    1ce4:	2303      	movs	r3, #3
    1ce6:	4003      	ands	r3, r0
edma_tcd_set_src_addr():
D:\CQ9008\sample_codes\Release_example_240606\puf_template\debug/../sdk/platform/drivers/inc/edma_access.h:285
    p_base->TCD[channel].SADDR = address;
    1ce8:	3380      	adds	r3, #128	; 0x80
    1cea:	015b      	lsls	r3, r3, #5
    1cec:	4a02      	ldr	r2, [pc, #8]	; (1cf8 <edma_set_src_addr+0x34>)
    1cee:	5099      	str	r1, [r3, r2]
edma_set_src_addr():
D:\CQ9008\sample_codes\Release_example_240606\puf_template\debug/../sdk/platform/drivers/src/edma_driver.c:1276
}
    1cf0:	4770      	bx	lr
    1cf2:	46c0      	nop			; (mov r8, r8)
    1cf4:	20000304 	.word	0x20000304
    1cf8:	40008000 	.word	0x40008000

00001cfc <edma_set_dest_addr>:
DevAssert():
D:\CQ9008\sample_codes\Release_example_240606\puf_template\debug/../sdk/platform/devices/devassert.h:31
    if (x)
    1cfc:	2803      	cmp	r0, #3
    1cfe:	d901      	bls.n	1d04 <edma_set_dest_addr+0x8>
D:\CQ9008\sample_codes\Release_example_240606\puf_template\debug/../sdk/platform/devices/devassert.h:36
        BKPT_ASM;
    1d00:	be00      	bkpt	0x0000
D:\CQ9008\sample_codes\Release_example_240606\puf_template\debug/../sdk/platform/devices/devassert.h:37
        for (;;)
    1d02:	e7fe      	b.n	1d02 <edma_set_dest_addr+0x6>
edma_set_dest_addr():
D:\CQ9008\sample_codes\Release_example_240606\puf_template\debug/../sdk/platform/drivers/src/edma_driver.c:1413
    DEV_ASSERT(sp_virt_edma_state != NULL);
    1d04:	4b09      	ldr	r3, [pc, #36]	; (1d2c <edma_set_dest_addr+0x30>)
    1d06:	681b      	ldr	r3, [r3, #0]
DevAssert():
D:\CQ9008\sample_codes\Release_example_240606\puf_template\debug/../sdk/platform/devices/devassert.h:31
    if (x)
    1d08:	2b00      	cmp	r3, #0
    1d0a:	d101      	bne.n	1d10 <edma_set_dest_addr+0x14>
D:\CQ9008\sample_codes\Release_example_240606\puf_template\debug/../sdk/platform/devices/devassert.h:36
        BKPT_ASM;
    1d0c:	be00      	bkpt	0x0000
D:\CQ9008\sample_codes\Release_example_240606\puf_template\debug/../sdk/platform/devices/devassert.h:37
        for (;;)
    1d0e:	e7fe      	b.n	1d0e <edma_set_dest_addr+0x12>
edma_set_dest_addr():
D:\CQ9008\sample_codes\Release_example_240606\puf_template\debug/../sdk/platform/drivers/src/edma_driver.c:1416
    DEV_ASSERT(sp_virt_edma_state->p_virt_chn_state[virtual_channel] != NULL);
    1d10:	0082      	lsls	r2, r0, #2
    1d12:	58d3      	ldr	r3, [r2, r3]
DevAssert():
D:\CQ9008\sample_codes\Release_example_240606\puf_template\debug/../sdk/platform/devices/devassert.h:31
    if (x)
    1d14:	2b00      	cmp	r3, #0
    1d16:	d101      	bne.n	1d1c <edma_set_dest_addr+0x20>
D:\CQ9008\sample_codes\Release_example_240606\puf_template\debug/../sdk/platform/devices/devassert.h:36
        BKPT_ASM;
    1d18:	be00      	bkpt	0x0000
D:\CQ9008\sample_codes\Release_example_240606\puf_template\debug/../sdk/platform/devices/devassert.h:37
        for (;;)
    1d1a:	e7fe      	b.n	1d1a <edma_set_dest_addr+0x1e>
edma_set_dest_addr():
D:\CQ9008\sample_codes\Release_example_240606\puf_template\debug/../sdk/platform/drivers/src/edma_driver.c:1422
    uint8_t dma_channel = (uint8_t)FEATURE_DMA_VCH_TO_CH(virtual_channel);
    1d1c:	2303      	movs	r3, #3
    1d1e:	4003      	ands	r3, r0
edma_tcd_set_dest_addr():
D:\CQ9008\sample_codes\Release_example_240606\puf_template\debug/../sdk/platform/drivers/inc/edma_access.h:440
    p_base->TCD[channel].DADDR = address;
    1d20:	015b      	lsls	r3, r3, #5
    1d22:	4a03      	ldr	r2, [pc, #12]	; (1d30 <edma_set_dest_addr+0x34>)
    1d24:	4694      	mov	ip, r2
    1d26:	4463      	add	r3, ip
    1d28:	6019      	str	r1, [r3, #0]
edma_set_dest_addr():
D:\CQ9008\sample_codes\Release_example_240606\puf_template\debug/../sdk/platform/drivers/src/edma_driver.c:1427
}
    1d2a:	4770      	bx	lr
    1d2c:	20000304 	.word	0x20000304
    1d30:	40009010 	.word	0x40009010

00001d34 <edma_set_major_loop_iteration_count>:
edma_set_major_loop_iteration_count():
D:\CQ9008\sample_codes\Release_example_240606\puf_template\debug/../sdk/platform/drivers/src/edma_driver.c:1531
{
    1d34:	b510      	push	{r4, lr}
DevAssert():
D:\CQ9008\sample_codes\Release_example_240606\puf_template\debug/../sdk/platform/devices/devassert.h:31
    if (x)
    1d36:	2803      	cmp	r0, #3
    1d38:	d901      	bls.n	1d3e <edma_set_major_loop_iteration_count+0xa>
D:\CQ9008\sample_codes\Release_example_240606\puf_template\debug/../sdk/platform/devices/devassert.h:36
        BKPT_ASM;
    1d3a:	be00      	bkpt	0x0000
D:\CQ9008\sample_codes\Release_example_240606\puf_template\debug/../sdk/platform/devices/devassert.h:37
        for (;;)
    1d3c:	e7fe      	b.n	1d3c <edma_set_major_loop_iteration_count+0x8>
edma_set_major_loop_iteration_count():
D:\CQ9008\sample_codes\Release_example_240606\puf_template\debug/../sdk/platform/drivers/src/edma_driver.c:1536
    DEV_ASSERT(sp_virt_edma_state != NULL);
    1d3e:	4b0a      	ldr	r3, [pc, #40]	; (1d68 <edma_set_major_loop_iteration_count+0x34>)
    1d40:	681b      	ldr	r3, [r3, #0]
DevAssert():
D:\CQ9008\sample_codes\Release_example_240606\puf_template\debug/../sdk/platform/devices/devassert.h:31
    if (x)
    1d42:	2b00      	cmp	r3, #0
    1d44:	d101      	bne.n	1d4a <edma_set_major_loop_iteration_count+0x16>
D:\CQ9008\sample_codes\Release_example_240606\puf_template\debug/../sdk/platform/devices/devassert.h:36
        BKPT_ASM;
    1d46:	be00      	bkpt	0x0000
D:\CQ9008\sample_codes\Release_example_240606\puf_template\debug/../sdk/platform/devices/devassert.h:37
        for (;;)
    1d48:	e7fe      	b.n	1d48 <edma_set_major_loop_iteration_count+0x14>
edma_set_major_loop_iteration_count():
D:\CQ9008\sample_codes\Release_example_240606\puf_template\debug/../sdk/platform/drivers/src/edma_driver.c:1539
    DEV_ASSERT(sp_virt_edma_state->p_virt_chn_state[virtual_channel] != NULL);
    1d4a:	0082      	lsls	r2, r0, #2
    1d4c:	58d3      	ldr	r3, [r2, r3]
DevAssert():
D:\CQ9008\sample_codes\Release_example_240606\puf_template\debug/../sdk/platform/devices/devassert.h:31
    if (x)
    1d4e:	2b00      	cmp	r3, #0
    1d50:	d101      	bne.n	1d56 <edma_set_major_loop_iteration_count+0x22>
D:\CQ9008\sample_codes\Release_example_240606\puf_template\debug/../sdk/platform/devices/devassert.h:36
        BKPT_ASM;
    1d52:	be00      	bkpt	0x0000
D:\CQ9008\sample_codes\Release_example_240606\puf_template\debug/../sdk/platform/devices/devassert.h:37
        for (;;)
    1d54:	e7fe      	b.n	1d54 <edma_set_major_loop_iteration_count+0x20>
edma_set_major_loop_iteration_count():
D:\CQ9008\sample_codes\Release_example_240606\puf_template\debug/../sdk/platform/drivers/src/edma_driver.c:1545
    uint8_t dma_channel = (uint8_t)FEATURE_DMA_VCH_TO_CH(virtual_channel);
    1d56:	2303      	movs	r3, #3
    1d58:	4018      	ands	r0, r3
D:\CQ9008\sample_codes\Release_example_240606\puf_template\debug/../sdk/platform/drivers/src/edma_driver.c:1549
    edma_tcd_set_major_count(p_edma_reg_base, dma_channel, majorLoopCount);
    1d5a:	000a      	movs	r2, r1
    1d5c:	0001      	movs	r1, r0
    1d5e:	4803      	ldr	r0, [pc, #12]	; (1d6c <edma_set_major_loop_iteration_count+0x38>)
    1d60:	f7ff fdb2 	bl	18c8 <edma_tcd_set_major_count>
D:\CQ9008\sample_codes\Release_example_240606\puf_template\debug/../sdk/platform/drivers/src/edma_driver.c:1550
}
    1d64:	bd10      	pop	{r4, pc}
    1d66:	46c0      	nop			; (mov r8, r8)
    1d68:	20000304 	.word	0x20000304
    1d6c:	40008000 	.word	0x40008000

00001d70 <edma_get_remaining_major_iterations_count>:
edma_get_remaining_major_iterations_count():
D:\CQ9008\sample_codes\Release_example_240606\puf_template\debug/../sdk/platform/drivers/src/edma_driver.c:1561
{
    1d70:	b510      	push	{r4, lr}
DevAssert():
D:\CQ9008\sample_codes\Release_example_240606\puf_template\debug/../sdk/platform/devices/devassert.h:31
    if (x)
    1d72:	2803      	cmp	r0, #3
    1d74:	d901      	bls.n	1d7a <edma_get_remaining_major_iterations_count+0xa>
D:\CQ9008\sample_codes\Release_example_240606\puf_template\debug/../sdk/platform/devices/devassert.h:36
        BKPT_ASM;
    1d76:	be00      	bkpt	0x0000
D:\CQ9008\sample_codes\Release_example_240606\puf_template\debug/../sdk/platform/devices/devassert.h:37
        for (;;)
    1d78:	e7fe      	b.n	1d78 <edma_get_remaining_major_iterations_count+0x8>
edma_get_remaining_major_iterations_count():
D:\CQ9008\sample_codes\Release_example_240606\puf_template\debug/../sdk/platform/drivers/src/edma_driver.c:1566
    DEV_ASSERT(sp_virt_edma_state != NULL);
    1d7a:	4b09      	ldr	r3, [pc, #36]	; (1da0 <edma_get_remaining_major_iterations_count+0x30>)
    1d7c:	681b      	ldr	r3, [r3, #0]
DevAssert():
D:\CQ9008\sample_codes\Release_example_240606\puf_template\debug/../sdk/platform/devices/devassert.h:31
    if (x)
    1d7e:	2b00      	cmp	r3, #0
    1d80:	d101      	bne.n	1d86 <edma_get_remaining_major_iterations_count+0x16>
D:\CQ9008\sample_codes\Release_example_240606\puf_template\debug/../sdk/platform/devices/devassert.h:36
        BKPT_ASM;
    1d82:	be00      	bkpt	0x0000
D:\CQ9008\sample_codes\Release_example_240606\puf_template\debug/../sdk/platform/devices/devassert.h:37
        for (;;)
    1d84:	e7fe      	b.n	1d84 <edma_get_remaining_major_iterations_count+0x14>
edma_get_remaining_major_iterations_count():
D:\CQ9008\sample_codes\Release_example_240606\puf_template\debug/../sdk/platform/drivers/src/edma_driver.c:1569
    DEV_ASSERT(sp_virt_edma_state->p_virt_chn_state[virtual_channel] != NULL);
    1d86:	0082      	lsls	r2, r0, #2
    1d88:	58d3      	ldr	r3, [r2, r3]
DevAssert():
D:\CQ9008\sample_codes\Release_example_240606\puf_template\debug/../sdk/platform/devices/devassert.h:31
    if (x)
    1d8a:	2b00      	cmp	r3, #0
    1d8c:	d101      	bne.n	1d92 <edma_get_remaining_major_iterations_count+0x22>
D:\CQ9008\sample_codes\Release_example_240606\puf_template\debug/../sdk/platform/devices/devassert.h:36
        BKPT_ASM;
    1d8e:	be00      	bkpt	0x0000
D:\CQ9008\sample_codes\Release_example_240606\puf_template\debug/../sdk/platform/devices/devassert.h:37
        for (;;)
    1d90:	e7fe      	b.n	1d90 <edma_get_remaining_major_iterations_count+0x20>
edma_get_remaining_major_iterations_count():
D:\CQ9008\sample_codes\Release_example_240606\puf_template\debug/../sdk/platform/drivers/src/edma_driver.c:1575
    uint8_t dma_channel = (uint8_t)FEATURE_DMA_VCH_TO_CH(virtual_channel);
    1d92:	2103      	movs	r1, #3
    1d94:	4001      	ands	r1, r0
D:\CQ9008\sample_codes\Release_example_240606\puf_template\debug/../sdk/platform/drivers/src/edma_driver.c:1579
    uint32_t     count           = edma_tcd_get_current_major_count(p_edma_reg_base, dma_channel);
    1d96:	4803      	ldr	r0, [pc, #12]	; (1da4 <edma_get_remaining_major_iterations_count+0x34>)
    1d98:	f7ff fdd0 	bl	193c <edma_tcd_get_current_major_count>
D:\CQ9008\sample_codes\Release_example_240606\puf_template\debug/../sdk/platform/drivers/src/edma_driver.c:1582
}
    1d9c:	bd10      	pop	{r4, pc}
    1d9e:	46c0      	nop			; (mov r8, r8)
    1da0:	20000304 	.word	0x20000304
    1da4:	40008000 	.word	0x40008000

00001da8 <DMA0_IRQHandler>:
DMA0_IRQHandler():
D:\CQ9008\sample_codes\Release_example_240606\puf_template\debug/../sdk/platform/drivers/src/edma_driver.c:1946
{
    1da8:	b510      	push	{r4, lr}
D:\CQ9008\sample_codes\Release_example_240606\puf_template\debug/../sdk/platform/drivers/src/edma_driver.c:1947
    edma_irq_handler(0U);
    1daa:	2000      	movs	r0, #0
    1dac:	f7ff fe04 	bl	19b8 <edma_irq_handler>
D:\CQ9008\sample_codes\Release_example_240606\puf_template\debug/../sdk/platform/drivers/src/edma_driver.c:1948
}
    1db0:	bd10      	pop	{r4, pc}

00001db2 <DMA1_IRQHandler>:
DMA1_IRQHandler():
D:\CQ9008\sample_codes\Release_example_240606\puf_template\debug/../sdk/platform/drivers/src/edma_driver.c:1953
{
    1db2:	b510      	push	{r4, lr}
D:\CQ9008\sample_codes\Release_example_240606\puf_template\debug/../sdk/platform/drivers/src/edma_driver.c:1954
    edma_irq_handler(1U);
    1db4:	2001      	movs	r0, #1
    1db6:	f7ff fdff 	bl	19b8 <edma_irq_handler>
D:\CQ9008\sample_codes\Release_example_240606\puf_template\debug/../sdk/platform/drivers/src/edma_driver.c:1955
}
    1dba:	bd10      	pop	{r4, pc}

00001dbc <DMA2_IRQHandler>:
DMA2_IRQHandler():
D:\CQ9008\sample_codes\Release_example_240606\puf_template\debug/../sdk/platform/drivers/src/edma_driver.c:1960
{
    1dbc:	b510      	push	{r4, lr}
D:\CQ9008\sample_codes\Release_example_240606\puf_template\debug/../sdk/platform/drivers/src/edma_driver.c:1961
    edma_irq_handler(2U);
    1dbe:	2002      	movs	r0, #2
    1dc0:	f7ff fdfa 	bl	19b8 <edma_irq_handler>
D:\CQ9008\sample_codes\Release_example_240606\puf_template\debug/../sdk/platform/drivers/src/edma_driver.c:1962
}
    1dc4:	bd10      	pop	{r4, pc}

00001dc6 <DMA3_IRQHandler>:
DMA3_IRQHandler():
D:\CQ9008\sample_codes\Release_example_240606\puf_template\debug/../sdk/platform/drivers/src/edma_driver.c:1967
{
    1dc6:	b510      	push	{r4, lr}
D:\CQ9008\sample_codes\Release_example_240606\puf_template\debug/../sdk/platform/drivers/src/edma_driver.c:1968
    edma_irq_handler(3U);
    1dc8:	2003      	movs	r0, #3
    1dca:	f7ff fdf5 	bl	19b8 <edma_irq_handler>
D:\CQ9008\sample_codes\Release_example_240606\puf_template\debug/../sdk/platform/drivers/src/edma_driver.c:1969
}
    1dce:	bd10      	pop	{r4, pc}

00001dd0 <int_enable_irq>:
DevAssert():
D:\CQ9008\sample_codes\Release_example_240606\puf_template\debug/../sdk/platform/devices/devassert.h:31
    if (x)
    1dd0:	2800      	cmp	r0, #0
    1dd2:	da01      	bge.n	1dd8 <int_enable_irq+0x8>
D:\CQ9008\sample_codes\Release_example_240606\puf_template\debug/../sdk/platform/devices/devassert.h:36
        BKPT_ASM;
    1dd4:	be00      	bkpt	0x0000
D:\CQ9008\sample_codes\Release_example_240606\puf_template\debug/../sdk/platform/devices/devassert.h:37
        for (;;)
    1dd6:	e7fe      	b.n	1dd6 <int_enable_irq+0x6>
int_enable_irq():
D:\CQ9008\sample_codes\Release_example_240606\puf_template\debug/../sdk/platform/drivers/src/interrupt_manager.c:45
{
#if (defined(DEV_ERROR_DETECT) || defined(CUSTOM_DEVASSERT))
    /* Check IRQ number - dev_irq_number is used to avoid compiler warning */
    int32_t dev_irq_number = (int32_t)irq_number;
    DEV_ASSERT(0 <= (int32_t)irq_number);
    DEV_ASSERT(dev_irq_number <= (int32_t)FEATURE_INTERRUPT_IRQ_MAX);
    1dd8:	0fc3      	lsrs	r3, r0, #31
    1dda:	221f      	movs	r2, #31
    1ddc:	2100      	movs	r1, #0
    1dde:	4282      	cmp	r2, r0
    1de0:	414b      	adcs	r3, r1
    1de2:	b2db      	uxtb	r3, r3
DevAssert():
D:\CQ9008\sample_codes\Release_example_240606\puf_template\debug/../sdk/platform/devices/devassert.h:31
    if (x)
    1de4:	2b00      	cmp	r3, #0
    1de6:	d101      	bne.n	1dec <int_enable_irq+0x1c>
D:\CQ9008\sample_codes\Release_example_240606\puf_template\debug/../sdk/platform/devices/devassert.h:36
        BKPT_ASM;
    1de8:	be00      	bkpt	0x0000
D:\CQ9008\sample_codes\Release_example_240606\puf_template\debug/../sdk/platform/devices/devassert.h:37
        for (;;)
    1dea:	e7fe      	b.n	1dea <int_enable_irq+0x1a>
int_enable_irq():
D:\CQ9008\sample_codes\Release_example_240606\puf_template\debug/../sdk/platform/drivers/src/interrupt_manager.c:49
#endif /*(defined(DEV_ERROR_DETECT) || defined(CUSTOM_DEVASSERT)) */
    /* Enable interrupt */
    NVIC->ISER[(uint32_t)(irq_number) >> 5U] =
        (uint32_t)(1UL << ((uint32_t)(irq_number) & (uint32_t)0x1FU));
    1dec:	221f      	movs	r2, #31
    1dee:	4002      	ands	r2, r0
D:\CQ9008\sample_codes\Release_example_240606\puf_template\debug/../sdk/platform/drivers/src/interrupt_manager.c:48
    NVIC->ISER[(uint32_t)(irq_number) >> 5U] =
    1df0:	0940      	lsrs	r0, r0, #5
D:\CQ9008\sample_codes\Release_example_240606\puf_template\debug/../sdk/platform/drivers/src/interrupt_manager.c:49
        (uint32_t)(1UL << ((uint32_t)(irq_number) & (uint32_t)0x1FU));
    1df2:	2301      	movs	r3, #1
    1df4:	4093      	lsls	r3, r2
D:\CQ9008\sample_codes\Release_example_240606\puf_template\debug/../sdk/platform/drivers/src/interrupt_manager.c:48
    NVIC->ISER[(uint32_t)(irq_number) >> 5U] =
    1df6:	0080      	lsls	r0, r0, #2
    1df8:	4a01      	ldr	r2, [pc, #4]	; (1e00 <int_enable_irq+0x30>)
    1dfa:	5083      	str	r3, [r0, r2]
D:\CQ9008\sample_codes\Release_example_240606\puf_template\debug/../sdk/platform/drivers/src/interrupt_manager.c:50
}
    1dfc:	4770      	bx	lr
    1dfe:	46c0      	nop			; (mov r8, r8)
    1e00:	e000e100 	.word	0xe000e100

00001e04 <int_enable_irq_global>:
int_enable_irq_global():
D:\CQ9008\sample_codes\Release_example_240606\puf_template\debug/../sdk/platform/drivers/src/interrupt_manager.c:88
 *END**************************************************************************/
void
int_enable_irq_global(void)
{
    /* Check and update */
    if (s_interrupt_disable_count > 0)
    1e04:	4b05      	ldr	r3, [pc, #20]	; (1e1c <int_enable_irq_global+0x18>)
    1e06:	681b      	ldr	r3, [r3, #0]
    1e08:	2b00      	cmp	r3, #0
    1e0a:	dd04      	ble.n	1e16 <int_enable_irq_global+0x12>
D:\CQ9008\sample_codes\Release_example_240606\puf_template\debug/../sdk/platform/drivers/src/interrupt_manager.c:90
    {
        s_interrupt_disable_count--;
    1e0c:	3b01      	subs	r3, #1
    1e0e:	4a03      	ldr	r2, [pc, #12]	; (1e1c <int_enable_irq_global+0x18>)
    1e10:	6013      	str	r3, [r2, #0]
D:\CQ9008\sample_codes\Release_example_240606\puf_template\debug/../sdk/platform/drivers/src/interrupt_manager.c:92

        if (s_interrupt_disable_count <= 0)
    1e12:	2b00      	cmp	r3, #0
    1e14:	dd00      	ble.n	1e18 <int_enable_irq_global+0x14>
D:\CQ9008\sample_codes\Release_example_240606\puf_template\debug/../sdk/platform/drivers/src/interrupt_manager.c:98
        {
            /* Enable the global interrupt*/
            ENABLE_INTERRUPTS();
        }
    }
}
    1e16:	4770      	bx	lr
D:\CQ9008\sample_codes\Release_example_240606\puf_template\debug/../sdk/platform/drivers/src/interrupt_manager.c:95
            ENABLE_INTERRUPTS();
    1e18:	b662      	cpsie	i
D:\CQ9008\sample_codes\Release_example_240606\puf_template\debug/../sdk/platform/drivers/src/interrupt_manager.c:98
}
    1e1a:	e7fc      	b.n	1e16 <int_enable_irq_global+0x12>
    1e1c:	20000308 	.word	0x20000308

00001e20 <int_disable_irq_global>:
int_disable_irq_global():
D:\CQ9008\sample_codes\Release_example_240606\puf_template\debug/../sdk/platform/drivers/src/interrupt_manager.c:113
 *END**************************************************************************/
void
int_disable_irq_global(void)
{
    /* Disable the global interrupt */
    DISABLE_INTERRUPTS();
    1e20:	b672      	cpsid	i
D:\CQ9008\sample_codes\Release_example_240606\puf_template\debug/../sdk/platform/drivers/src/interrupt_manager.c:116

    /* Update counter*/
    s_interrupt_disable_count++;
    1e22:	4a02      	ldr	r2, [pc, #8]	; (1e2c <int_disable_irq_global+0xc>)
    1e24:	6813      	ldr	r3, [r2, #0]
    1e26:	3301      	adds	r3, #1
    1e28:	6013      	str	r3, [r2, #0]
D:\CQ9008\sample_codes\Release_example_240606\puf_template\debug/../sdk/platform/drivers/src/interrupt_manager.c:117
}
    1e2a:	4770      	bx	lr
    1e2c:	20000308 	.word	0x20000308

00001e30 <lptmr_set_reset_value>:
DevAssert():
D:\CQ9008\sample_codes\Release_example_240606\puf_template\debug/../sdk/platform/devices/devassert.h:31
    if (x)
    1e30:	2800      	cmp	r0, #0
    1e32:	d001      	beq.n	1e38 <lptmr_set_reset_value+0x8>
D:\CQ9008\sample_codes\Release_example_240606\puf_template\debug/../sdk/platform/devices/devassert.h:36
        BKPT_ASM;
    1e34:	be00      	bkpt	0x0000
D:\CQ9008\sample_codes\Release_example_240606\puf_template\debug/../sdk/platform/devices/devassert.h:37
        for (;;)
    1e36:	e7fe      	b.n	1e36 <lptmr_set_reset_value+0x6>
lptmr_set_reset_value():
D:\CQ9008\sample_codes\Release_example_240606\puf_template\debug/../sdk/platform/drivers/src/lptmr_driver.c:52
lptmr_set_reset_value(const uint32_t instance)
{
    DEV_ASSERT(instance < LPTMR_INSTANCE_COUNT);

    LPTMR_t *const p_base = g_lptmrBase[instance];
    uint32_t tmp = p_base->CSR;
    1e38:	4b04      	ldr	r3, [pc, #16]	; (1e4c <lptmr_set_reset_value+0x1c>)
    1e3a:	681a      	ldr	r2, [r3, #0]
D:\CQ9008\sample_codes\Release_example_240606\puf_template\debug/../sdk/platform/drivers/src/lptmr_driver.c:53
    tmp &= ~(LPTMR_CSR_TEN_MASK | LPTMR_CSR_TCF_MASK);
    1e3c:	2181      	movs	r1, #129	; 0x81
    1e3e:	438a      	bics	r2, r1
D:\CQ9008\sample_codes\Release_example_240606\puf_template\debug/../sdk/platform/drivers/src/lptmr_driver.c:55
    tmp |= LPTMR_CSR_TEN(0u);
    p_base->CSR = tmp;
    1e40:	601a      	str	r2, [r3, #0]
D:\CQ9008\sample_codes\Release_example_240606\puf_template\debug/../sdk/platform/drivers/src/lptmr_driver.c:57

    p_base->CSR = 0UL;
    1e42:	2200      	movs	r2, #0
    1e44:	601a      	str	r2, [r3, #0]
D:\CQ9008\sample_codes\Release_example_240606\puf_template\debug/../sdk/platform/drivers/src/lptmr_driver.c:59

    p_base->PSR = 0UL;
    1e46:	605a      	str	r2, [r3, #4]
D:\CQ9008\sample_codes\Release_example_240606\puf_template\debug/../sdk/platform/drivers/src/lptmr_driver.c:61

    p_base->CMR = 0UL;
    1e48:	609a      	str	r2, [r3, #8]
D:\CQ9008\sample_codes\Release_example_240606\puf_template\debug/../sdk/platform/drivers/src/lptmr_driver.c:62
}
    1e4a:	4770      	bx	lr
    1e4c:	40040000 	.word	0x40040000

00001e50 <lptmr_set_config>:
lptmr_set_config():
D:\CQ9008\sample_codes\Release_example_240606\puf_template\debug/../sdk/platform/drivers/src/lptmr_driver.c:66

void
lptmr_set_config(const uint32_t instance, const lptmr_config_t *const p_config)
{
    1e50:	b5f8      	push	{r3, r4, r5, r6, r7, lr}
    1e52:	000c      	movs	r4, r1
DevAssert():
D:\CQ9008\sample_codes\Release_example_240606\puf_template\debug/../sdk/platform/devices/devassert.h:31
    if (x)
    1e54:	2800      	cmp	r0, #0
    1e56:	d001      	beq.n	1e5c <lptmr_set_config+0xc>
D:\CQ9008\sample_codes\Release_example_240606\puf_template\debug/../sdk/platform/devices/devassert.h:36
        BKPT_ASM;
    1e58:	be00      	bkpt	0x0000
D:\CQ9008\sample_codes\Release_example_240606\puf_template\debug/../sdk/platform/devices/devassert.h:37
        for (;;)
    1e5a:	e7fe      	b.n	1e5a <lptmr_set_config+0xa>
D:\CQ9008\sample_codes\Release_example_240606\puf_template\debug/../sdk/platform/devices/devassert.h:31
    if (x)
    1e5c:	2900      	cmp	r1, #0
    1e5e:	d101      	bne.n	1e64 <lptmr_set_config+0x14>
D:\CQ9008\sample_codes\Release_example_240606\puf_template\debug/../sdk/platform/devices/devassert.h:36
        BKPT_ASM;
    1e60:	be00      	bkpt	0x0000
D:\CQ9008\sample_codes\Release_example_240606\puf_template\debug/../sdk/platform/devices/devassert.h:37
        for (;;)
    1e62:	e7fe      	b.n	1e62 <lptmr_set_config+0x12>
lptmr_set_config():
D:\CQ9008\sample_codes\Release_example_240606\puf_template\debug/../sdk/platform/drivers/src/lptmr_driver.c:71
    DEV_ASSERT(instance < LPTMR_INSTANCE_COUNT);
    DEV_ASSERT(p_config != NULL);

    LPTMR_t *const    p_base           = g_lptmrBase[instance];
    uint32_t          config_cmp_value = p_config->compare_value;
    1e64:	688e      	ldr	r6, [r1, #8]
D:\CQ9008\sample_codes\Release_example_240606\puf_template\debug/../sdk/platform/drivers/src/lptmr_driver.c:72
    lptmr_workmode_t  config_work_mode = p_config->work_mode;
    1e66:	78cd      	ldrb	r5, [r1, #3]
D:\CQ9008\sample_codes\Release_example_240606\puf_template\debug/../sdk/platform/drivers/src/lptmr_driver.c:74
    uint16_t          cmp_value_ticks  = 0U;
    lptmr_prescaler_t presc_val        = p_config->prescaler;
    1e68:	794f      	ldrb	r7, [r1, #5]
D:\CQ9008\sample_codes\Release_example_240606\puf_template\debug/../sdk/platform/drivers/src/lptmr_driver.c:76

    if (config_work_mode == LPTMR_WORKMODE_TIMER)
    1e6a:	2d00      	cmp	r5, #0
    1e6c:	d159      	bne.n	1f22 <lptmr_set_config+0xd2>
D:\CQ9008\sample_codes\Release_example_240606\puf_template\debug/../sdk/platform/drivers/src/lptmr_driver.c:78
    {
        DEV_ASSERT(config_cmp_value <= LPTMR_CMR_COMPARE_MASK);
    1e6e:	2280      	movs	r2, #128	; 0x80
    1e70:	0252      	lsls	r2, r2, #9
DevAssert():
D:\CQ9008\sample_codes\Release_example_240606\puf_template\debug/../sdk/platform/devices/devassert.h:31
    if (x)
    1e72:	4296      	cmp	r6, r2
    1e74:	d301      	bcc.n	1e7a <lptmr_set_config+0x2a>
D:\CQ9008\sample_codes\Release_example_240606\puf_template\debug/../sdk/platform/devices/devassert.h:36
        BKPT_ASM;
    1e76:	be00      	bkpt	0x0000
D:\CQ9008\sample_codes\Release_example_240606\puf_template\debug/../sdk/platform/devices/devassert.h:37
        for (;;)
    1e78:	e7fe      	b.n	1e78 <lptmr_set_config+0x28>
lptmr_set_config():
D:\CQ9008\sample_codes\Release_example_240606\puf_template\debug/../sdk/platform/drivers/src/lptmr_driver.c:79
        cmp_value_ticks = (uint16_t)(config_cmp_value & LPTMR_CMR_COMPARE_MASK);
    1e7a:	b2b6      	uxth	r6, r6
D:\CQ9008\sample_codes\Release_example_240606\puf_template\debug/../sdk/platform/drivers/src/lptmr_driver.c:93

        cmp_value_ticks = (uint16_t)(config_cmp_value & LPTMR_CMR_COMPARE_MASK);
    }

    /* Initialize and write configuration parameters. */
    lptmr_set_reset_value(instance);
    1e7c:	f7ff ffd8 	bl	1e30 <lptmr_set_reset_value>
D:\CQ9008\sample_codes\Release_example_240606\puf_template\debug/../sdk/platform/drivers/src/lptmr_driver.c:95

    lptmr_set_dma_request(p_base, p_config->b_dma_request);
    1e80:	7822      	ldrb	r2, [r4, #0]
lptmr_set_dma_request():
D:\CQ9008\sample_codes\Release_example_240606\puf_template\debug/../sdk/platform/drivers/inc/lptmr_access.h:68
static inline void
lptmr_set_dma_request(LPTMR_t *const p_base, bool b_enable)
{
    DEV_ASSERT(p_base != NULL);

    uint32_t tmp = p_base->CSR;
    1e82:	4b31      	ldr	r3, [pc, #196]	; (1f48 <lptmr_set_config+0xf8>)
    1e84:	681b      	ldr	r3, [r3, #0]
D:\CQ9008\sample_codes\Release_example_240606\puf_template\debug/../sdk/platform/drivers/inc/lptmr_access.h:69
    tmp &= ~(LPTMR_CSR_TDRE_MASK | LPTMR_CSR_TCF_MASK);
    1e86:	4931      	ldr	r1, [pc, #196]	; (1f4c <lptmr_set_config+0xfc>)
    1e88:	400b      	ands	r3, r1
D:\CQ9008\sample_codes\Release_example_240606\puf_template\debug/../sdk/platform/drivers/inc/lptmr_access.h:70
    tmp |= LPTMR_CSR_TDRE(b_enable ? (uint32_t)1u : (uint32_t)0u);
    1e8a:	2a00      	cmp	r2, #0
    1e8c:	d055      	beq.n	1f3a <lptmr_set_config+0xea>
    1e8e:	2280      	movs	r2, #128	; 0x80
    1e90:	0052      	lsls	r2, r2, #1
    1e92:	4313      	orrs	r3, r2
D:\CQ9008\sample_codes\Release_example_240606\puf_template\debug/../sdk/platform/drivers/inc/lptmr_access.h:71
    p_base->CSR = tmp;
    1e94:	4a2c      	ldr	r2, [pc, #176]	; (1f48 <lptmr_set_config+0xf8>)
    1e96:	6013      	str	r3, [r2, #0]
lptmr_set_config():
D:\CQ9008\sample_codes\Release_example_240606\puf_template\debug/../sdk/platform/drivers/src/lptmr_driver.c:96
    lptmr_set_interrupt(p_base, p_config->b_interrupt_enable);
    1e98:	7862      	ldrb	r2, [r4, #1]
lptmr_set_interrupt():
D:\CQ9008\sample_codes\Release_example_240606\puf_template\debug/../sdk/platform/drivers/inc/lptmr_access.h:112
static inline void
lptmr_set_interrupt(LPTMR_t *const p_base, bool b_enable)
{
    DEV_ASSERT(p_base != NULL);

    uint32_t tmp = p_base->CSR;
    1e9a:	4b2b      	ldr	r3, [pc, #172]	; (1f48 <lptmr_set_config+0xf8>)
    1e9c:	681b      	ldr	r3, [r3, #0]
D:\CQ9008\sample_codes\Release_example_240606\puf_template\debug/../sdk/platform/drivers/inc/lptmr_access.h:113
    tmp &= ~(LPTMR_CSR_TIE_MASK | LPTMR_CSR_TCF_MASK);
    1e9e:	21c0      	movs	r1, #192	; 0xc0
    1ea0:	438b      	bics	r3, r1
D:\CQ9008\sample_codes\Release_example_240606\puf_template\debug/../sdk/platform/drivers/inc/lptmr_access.h:114
    tmp |= LPTMR_CSR_TIE(b_enable ? (uint32_t)1u : (uint32_t)0u);
    1ea2:	2a00      	cmp	r2, #0
    1ea4:	d04b      	beq.n	1f3e <lptmr_set_config+0xee>
    1ea6:	2240      	movs	r2, #64	; 0x40
    1ea8:	4313      	orrs	r3, r2
D:\CQ9008\sample_codes\Release_example_240606\puf_template\debug/../sdk/platform/drivers/inc/lptmr_access.h:115
    p_base->CSR = tmp;
    1eaa:	4a27      	ldr	r2, [pc, #156]	; (1f48 <lptmr_set_config+0xf8>)
    1eac:	6013      	str	r3, [r2, #0]
lptmr_set_config():
D:\CQ9008\sample_codes\Release_example_240606\puf_template\debug/../sdk/platform/drivers/src/lptmr_driver.c:97
    lptmr_set_free_running(p_base, p_config->b_free_run);
    1eae:	78a2      	ldrb	r2, [r4, #2]
lptmr_set_free_running():
D:\CQ9008\sample_codes\Release_example_240606\puf_template\debug/../sdk/platform/drivers/inc/lptmr_access.h:247
static inline void
lptmr_set_free_running(LPTMR_t *const p_base, const bool b_enable)
{
    DEV_ASSERT(p_base != NULL);

    uint32_t tmp = p_base->CSR;
    1eb0:	4b25      	ldr	r3, [pc, #148]	; (1f48 <lptmr_set_config+0xf8>)
    1eb2:	681b      	ldr	r3, [r3, #0]
D:\CQ9008\sample_codes\Release_example_240606\puf_template\debug/../sdk/platform/drivers/inc/lptmr_access.h:248
    tmp &= ~(LPTMR_CSR_TFC_MASK | LPTMR_CSR_TCF_MASK);
    1eb4:	2184      	movs	r1, #132	; 0x84
    1eb6:	438b      	bics	r3, r1
D:\CQ9008\sample_codes\Release_example_240606\puf_template\debug/../sdk/platform/drivers/inc/lptmr_access.h:249
    tmp |= LPTMR_CSR_TFC(b_enable ? (uint32_t)1u : (uint32_t)0u);
    1eb8:	2a00      	cmp	r2, #0
    1eba:	d042      	beq.n	1f42 <lptmr_set_config+0xf2>
    1ebc:	2204      	movs	r2, #4
    1ebe:	4313      	orrs	r3, r2
D:\CQ9008\sample_codes\Release_example_240606\puf_template\debug/../sdk/platform/drivers/inc/lptmr_access.h:250
    p_base->CSR = tmp;
    1ec0:	4a21      	ldr	r2, [pc, #132]	; (1f48 <lptmr_set_config+0xf8>)
    1ec2:	6013      	str	r3, [r2, #0]
lptmr_set_work_mode():
D:\CQ9008\sample_codes\Release_example_240606\puf_template\debug/../sdk/platform/drivers/inc/lptmr_access.h:291
static inline void
lptmr_set_work_mode(LPTMR_t *const p_base, const lptmr_workmode_t mode)
{
    DEV_ASSERT(p_base != NULL);

    uint32_t tmp = p_base->CSR;
    1ec4:	0011      	movs	r1, r2
    1ec6:	6813      	ldr	r3, [r2, #0]
D:\CQ9008\sample_codes\Release_example_240606\puf_template\debug/../sdk/platform/drivers/inc/lptmr_access.h:292
    tmp &= ~(LPTMR_CSR_TMS_MASK | LPTMR_CSR_TCF_MASK);
    1ec8:	2282      	movs	r2, #130	; 0x82
    1eca:	4393      	bics	r3, r2
D:\CQ9008\sample_codes\Release_example_240606\puf_template\debug/../sdk/platform/drivers/inc/lptmr_access.h:293
    tmp |= LPTMR_CSR_TMS(mode);
    1ecc:	006d      	lsls	r5, r5, #1
    1ece:	3a80      	subs	r2, #128	; 0x80
    1ed0:	4015      	ands	r5, r2
    1ed2:	431d      	orrs	r5, r3
D:\CQ9008\sample_codes\Release_example_240606\puf_template\debug/../sdk/platform/drivers/inc/lptmr_access.h:294
    p_base->CSR = tmp;
    1ed4:	600d      	str	r5, [r1, #0]
lptmr_set_prescaler():
D:\CQ9008\sample_codes\Release_example_240606\puf_template\debug/../sdk/platform/drivers/inc/lptmr_access.h:432
static inline void
lptmr_set_prescaler(LPTMR_t *const p_base, const lptmr_prescaler_t presc)
{
    DEV_ASSERT(p_base != NULL);

    uint32_t tmp = p_base->PSR;
    1ed6:	684b      	ldr	r3, [r1, #4]
D:\CQ9008\sample_codes\Release_example_240606\puf_template\debug/../sdk/platform/drivers/inc/lptmr_access.h:433
    tmp &= ~(LPTMR_PSR_PRESCALE_MASK);
    1ed8:	3276      	adds	r2, #118	; 0x76
    1eda:	4393      	bics	r3, r2
D:\CQ9008\sample_codes\Release_example_240606\puf_template\debug/../sdk/platform/drivers/inc/lptmr_access.h:434
    tmp |= LPTMR_PSR_PRESCALE(presc);
    1edc:	00ff      	lsls	r7, r7, #3
    1ede:	4017      	ands	r7, r2
    1ee0:	431f      	orrs	r7, r3
D:\CQ9008\sample_codes\Release_example_240606\puf_template\debug/../sdk/platform/drivers/inc/lptmr_access.h:435
    p_base->PSR = tmp;
    1ee2:	604f      	str	r7, [r1, #4]
lptmr_set_config():
D:\CQ9008\sample_codes\Release_example_240606\puf_template\debug/../sdk/platform/drivers/src/lptmr_driver.c:100
    lptmr_set_work_mode(p_base, config_work_mode);
    lptmr_set_prescaler(p_base, presc_val);
    lptmr_set_clock_select(p_base, p_config->clock_select);
    1ee4:	7920      	ldrb	r0, [r4, #4]
lptmr_set_clock_select():
D:\CQ9008\sample_codes\Release_example_240606\puf_template\debug/../sdk/platform/drivers/inc/lptmr_access.h:476
static inline void
lptmr_set_clock_select(LPTMR_t *const p_base, const lptmr_clocksource_t clocksel)
{
    DEV_ASSERT(p_base != NULL);

    uint32_t tmp = p_base->PSR;
    1ee6:	684b      	ldr	r3, [r1, #4]
D:\CQ9008\sample_codes\Release_example_240606\puf_template\debug/../sdk/platform/drivers/inc/lptmr_access.h:477
    tmp &= ~(LPTMR_PSR_PCS_MASK);
    1ee8:	3a75      	subs	r2, #117	; 0x75
    1eea:	4393      	bics	r3, r2
D:\CQ9008\sample_codes\Release_example_240606\puf_template\debug/../sdk/platform/drivers/inc/lptmr_access.h:478
    tmp |= LPTMR_PSR_PCS(clocksel);
    1eec:	4002      	ands	r2, r0
    1eee:	4313      	orrs	r3, r2
D:\CQ9008\sample_codes\Release_example_240606\puf_template\debug/../sdk/platform/drivers/inc/lptmr_access.h:479
    p_base->PSR = tmp;
    1ef0:	604b      	str	r3, [r1, #4]
lptmr_set_compare_value():
D:\CQ9008\sample_codes\Release_example_240606\puf_template\debug/../sdk/platform/drivers/inc/lptmr_access.h:515
static inline void
lptmr_set_compare_value(LPTMR_t *const p_base, const uint16_t compval)
{
    DEV_ASSERT(p_base != NULL);

    uint32_t tmp = p_base->CMR;
    1ef2:	688b      	ldr	r3, [r1, #8]
D:\CQ9008\sample_codes\Release_example_240606\puf_template\debug/../sdk/platform/drivers/inc/lptmr_access.h:516
    tmp &= ~(LPTMR_CMR_COMPARE_MASK);
    1ef4:	0c1b      	lsrs	r3, r3, #16
    1ef6:	041b      	lsls	r3, r3, #16
D:\CQ9008\sample_codes\Release_example_240606\puf_template\debug/../sdk/platform/drivers/inc/lptmr_access.h:517
    tmp |= LPTMR_CMR_COMPARE(compval);
    1ef8:	4333      	orrs	r3, r6
D:\CQ9008\sample_codes\Release_example_240606\puf_template\debug/../sdk/platform/drivers/inc/lptmr_access.h:518
    p_base->CMR = tmp;
    1efa:	608b      	str	r3, [r1, #8]
lptmr_set_config():
D:\CQ9008\sample_codes\Release_example_240606\puf_template\debug/../sdk/platform/drivers/src/lptmr_driver.c:102
    lptmr_set_compare_value(p_base, cmp_value_ticks);
    lptmr_set_pin_select(p_base, p_config->pin_select);
    1efc:	7b22      	ldrb	r2, [r4, #12]
lptmr_set_pin_select():
D:\CQ9008\sample_codes\Release_example_240606\puf_template\debug/../sdk/platform/drivers/inc/lptmr_access.h:158
    uint32_t tmp = p_base->CSR;
    1efe:	680b      	ldr	r3, [r1, #0]
D:\CQ9008\sample_codes\Release_example_240606\puf_template\debug/../sdk/platform/drivers/inc/lptmr_access.h:159
    tmp &= ~(LPTMR_CSR_TPS_MASK | LPTMR_CSR_TCF_MASK);
    1f00:	20b0      	movs	r0, #176	; 0xb0
    1f02:	4383      	bics	r3, r0
D:\CQ9008\sample_codes\Release_example_240606\puf_template\debug/../sdk/platform/drivers/inc/lptmr_access.h:160
    tmp |= LPTMR_CSR_TPS(pinsel);
    1f04:	0112      	lsls	r2, r2, #4
    1f06:	3880      	subs	r0, #128	; 0x80
    1f08:	4002      	ands	r2, r0
    1f0a:	4313      	orrs	r3, r2
D:\CQ9008\sample_codes\Release_example_240606\puf_template\debug/../sdk/platform/drivers/inc/lptmr_access.h:161
    p_base->CSR = tmp;
    1f0c:	600b      	str	r3, [r1, #0]
lptmr_set_config():
D:\CQ9008\sample_codes\Release_example_240606\puf_template\debug/../sdk/platform/drivers/src/lptmr_driver.c:103
    lptmr_set_pin_polarity(p_base, p_config->pin_polarity);
    1f0e:	7b62      	ldrb	r2, [r4, #13]
lptmr_set_pin_polarity():
D:\CQ9008\sample_codes\Release_example_240606\puf_template\debug/../sdk/platform/drivers/inc/lptmr_access.h:203
    uint32_t tmp = p_base->CSR;
    1f10:	680b      	ldr	r3, [r1, #0]
D:\CQ9008\sample_codes\Release_example_240606\puf_template\debug/../sdk/platform/drivers/inc/lptmr_access.h:204
    tmp &= ~(LPTMR_CSR_TPP_MASK | LPTMR_CSR_TCF_MASK);
    1f12:	3058      	adds	r0, #88	; 0x58
    1f14:	4383      	bics	r3, r0
D:\CQ9008\sample_codes\Release_example_240606\puf_template\debug/../sdk/platform/drivers/inc/lptmr_access.h:205
    tmp |= LPTMR_CSR_TPP(pol);
    1f16:	00d2      	lsls	r2, r2, #3
    1f18:	3880      	subs	r0, #128	; 0x80
    1f1a:	4002      	ands	r2, r0
    1f1c:	4313      	orrs	r3, r2
D:\CQ9008\sample_codes\Release_example_240606\puf_template\debug/../sdk/platform/drivers/inc/lptmr_access.h:206
    p_base->CSR = tmp;
    1f1e:	600b      	str	r3, [r1, #0]
lptmr_set_config():
D:\CQ9008\sample_codes\Release_example_240606\puf_template\debug/../sdk/platform/drivers/src/lptmr_driver.c:104
}
    1f20:	bdf8      	pop	{r3, r4, r5, r6, r7, pc}
DevAssert():
D:\CQ9008\sample_codes\Release_example_240606\puf_template\debug/../sdk/platform/devices/devassert.h:31
    if (x)
    1f22:	2d01      	cmp	r5, #1
    1f24:	d001      	beq.n	1f2a <lptmr_set_config+0xda>
D:\CQ9008\sample_codes\Release_example_240606\puf_template\debug/../sdk/platform/devices/devassert.h:36
        BKPT_ASM;
    1f26:	be00      	bkpt	0x0000
D:\CQ9008\sample_codes\Release_example_240606\puf_template\debug/../sdk/platform/devices/devassert.h:37
        for (;;)
    1f28:	e7fe      	b.n	1f28 <lptmr_set_config+0xd8>
lptmr_set_config():
D:\CQ9008\sample_codes\Release_example_240606\puf_template\debug/../sdk/platform/drivers/src/lptmr_driver.c:87
        DEV_ASSERT(config_cmp_value <= LPTMR_CMR_COMPARE_MASK);
    1f2a:	2280      	movs	r2, #128	; 0x80
    1f2c:	0252      	lsls	r2, r2, #9
DevAssert():
D:\CQ9008\sample_codes\Release_example_240606\puf_template\debug/../sdk/platform/devices/devassert.h:31
    if (x)
    1f2e:	4296      	cmp	r6, r2
    1f30:	d301      	bcc.n	1f36 <lptmr_set_config+0xe6>
D:\CQ9008\sample_codes\Release_example_240606\puf_template\debug/../sdk/platform/devices/devassert.h:36
        BKPT_ASM;
    1f32:	be00      	bkpt	0x0000
D:\CQ9008\sample_codes\Release_example_240606\puf_template\debug/../sdk/platform/devices/devassert.h:37
        for (;;)
    1f34:	e7fe      	b.n	1f34 <lptmr_set_config+0xe4>
lptmr_set_config():
D:\CQ9008\sample_codes\Release_example_240606\puf_template\debug/../sdk/platform/drivers/src/lptmr_driver.c:89
        cmp_value_ticks = (uint16_t)(config_cmp_value & LPTMR_CMR_COMPARE_MASK);
    1f36:	b2b6      	uxth	r6, r6
    1f38:	e7a0      	b.n	1e7c <lptmr_set_config+0x2c>
lptmr_set_dma_request():
D:\CQ9008\sample_codes\Release_example_240606\puf_template\debug/../sdk/platform/drivers/inc/lptmr_access.h:70
    tmp |= LPTMR_CSR_TDRE(b_enable ? (uint32_t)1u : (uint32_t)0u);
    1f3a:	2200      	movs	r2, #0
    1f3c:	e7a9      	b.n	1e92 <lptmr_set_config+0x42>
lptmr_set_interrupt():
D:\CQ9008\sample_codes\Release_example_240606\puf_template\debug/../sdk/platform/drivers/inc/lptmr_access.h:114
    tmp |= LPTMR_CSR_TIE(b_enable ? (uint32_t)1u : (uint32_t)0u);
    1f3e:	2200      	movs	r2, #0
    1f40:	e7b2      	b.n	1ea8 <lptmr_set_config+0x58>
lptmr_set_free_running():
D:\CQ9008\sample_codes\Release_example_240606\puf_template\debug/../sdk/platform/drivers/inc/lptmr_access.h:249
    tmp |= LPTMR_CSR_TFC(b_enable ? (uint32_t)1u : (uint32_t)0u);
    1f42:	2200      	movs	r2, #0
    1f44:	e7bb      	b.n	1ebe <lptmr_set_config+0x6e>
    1f46:	46c0      	nop			; (mov r8, r8)
    1f48:	40040000 	.word	0x40040000
    1f4c:	fffffe7f 	.word	0xfffffe7f

00001f50 <lptmr_init>:
lptmr_init():
D:\CQ9008\sample_codes\Release_example_240606\puf_template\debug/../sdk/platform/drivers/src/lptmr_driver.c:25
{
    1f50:	b570      	push	{r4, r5, r6, lr}
    1f52:	000c      	movs	r4, r1
    1f54:	0015      	movs	r5, r2
DevAssert():
D:\CQ9008\sample_codes\Release_example_240606\puf_template\debug/../sdk/platform/devices/devassert.h:31
    if (x)
    1f56:	2800      	cmp	r0, #0
    1f58:	d001      	beq.n	1f5e <lptmr_init+0xe>
D:\CQ9008\sample_codes\Release_example_240606\puf_template\debug/../sdk/platform/devices/devassert.h:36
        BKPT_ASM;
    1f5a:	be00      	bkpt	0x0000
D:\CQ9008\sample_codes\Release_example_240606\puf_template\debug/../sdk/platform/devices/devassert.h:37
        for (;;)
    1f5c:	e7fe      	b.n	1f5c <lptmr_init+0xc>
D:\CQ9008\sample_codes\Release_example_240606\puf_template\debug/../sdk/platform/devices/devassert.h:31
    if (x)
    1f5e:	2900      	cmp	r1, #0
    1f60:	d101      	bne.n	1f66 <lptmr_init+0x16>
D:\CQ9008\sample_codes\Release_example_240606\puf_template\debug/../sdk/platform/devices/devassert.h:36
        BKPT_ASM;
    1f62:	be00      	bkpt	0x0000
D:\CQ9008\sample_codes\Release_example_240606\puf_template\debug/../sdk/platform/devices/devassert.h:37
        for (;;)
    1f64:	e7fe      	b.n	1f64 <lptmr_init+0x14>
lptmr_init():
D:\CQ9008\sample_codes\Release_example_240606\puf_template\debug/../sdk/platform/drivers/src/lptmr_driver.c:31
    lptmr_set_config(instance, p_config);
    1f66:	f7ff ff73 	bl	1e50 <lptmr_set_config>
D:\CQ9008\sample_codes\Release_example_240606\puf_template\debug/../sdk/platform/drivers/src/lptmr_driver.c:33
    if (p_config->b_interrupt_enable == true)
    1f6a:	7863      	ldrb	r3, [r4, #1]
    1f6c:	2b00      	cmp	r3, #0
    1f6e:	d003      	beq.n	1f78 <lptmr_init+0x28>
D:\CQ9008\sample_codes\Release_example_240606\puf_template\debug/../sdk/platform/drivers/src/lptmr_driver.c:35
        NVIC->ISER[(uint32_t)(LPTMR0_IRQn) >> 5U] =
    1f70:	4b07      	ldr	r3, [pc, #28]	; (1f90 <lptmr_init+0x40>)
    1f72:	2280      	movs	r2, #128	; 0x80
    1f74:	0052      	lsls	r2, r2, #1
    1f76:	601a      	str	r2, [r3, #0]
D:\CQ9008\sample_codes\Release_example_240606\puf_template\debug/../sdk/platform/drivers/src/lptmr_driver.c:40
    if (b_start_counter)
    1f78:	2d00      	cmp	r5, #0
    1f7a:	d100      	bne.n	1f7e <lptmr_init+0x2e>
D:\CQ9008\sample_codes\Release_example_240606\puf_template\debug/../sdk/platform/drivers/src/lptmr_driver.c:44
}
    1f7c:	bd70      	pop	{r4, r5, r6, pc}
lptmr_enable():
D:\CQ9008\sample_codes\Release_example_240606\puf_template\debug/../sdk/platform/drivers/inc/lptmr_access.h:310
    uint32_t tmp = p_base->CSR;
    1f7e:	4a05      	ldr	r2, [pc, #20]	; (1f94 <lptmr_init+0x44>)
    1f80:	6813      	ldr	r3, [r2, #0]
D:\CQ9008\sample_codes\Release_example_240606\puf_template\debug/../sdk/platform/drivers/inc/lptmr_access.h:311
    tmp &= ~(LPTMR_CSR_TEN_MASK | LPTMR_CSR_TCF_MASK);
    1f82:	2181      	movs	r1, #129	; 0x81
    1f84:	438b      	bics	r3, r1
D:\CQ9008\sample_codes\Release_example_240606\puf_template\debug/../sdk/platform/drivers/inc/lptmr_access.h:312
    tmp |= LPTMR_CSR_TEN(1u);
    1f86:	3980      	subs	r1, #128	; 0x80
    1f88:	430b      	orrs	r3, r1
D:\CQ9008\sample_codes\Release_example_240606\puf_template\debug/../sdk/platform/drivers/inc/lptmr_access.h:313
    p_base->CSR = tmp;
    1f8a:	6013      	str	r3, [r2, #0]
lptmr_init():
D:\CQ9008\sample_codes\Release_example_240606\puf_template\debug/../sdk/platform/drivers/src/lptmr_driver.c:44
    1f8c:	e7f6      	b.n	1f7c <lptmr_init+0x2c>
    1f8e:	46c0      	nop			; (mov r8, r8)
    1f90:	e000e100 	.word	0xe000e100
    1f94:	40040000 	.word	0x40040000

00001f98 <lpaurt_start_send_data_using_dma>:
lpaurt_start_send_data_using_dma():
D:\CQ9008\sample_codes\Release_example_240606\puf_template\debug/../sdk/platform/drivers/src/lpuart_driver.c:1798
 * This is not a public API as it is called from other driver functions.
 *
 *END**************************************************************************/
static status_t
lpaurt_start_send_data_using_dma(uint32_t instance, const uint8_t *p_tx_buff, uint32_t tx_size)
{
    1f98:	b5f0      	push	{r4, r5, r6, r7, lr}
    1f9a:	46c6      	mov	lr, r8
    1f9c:	b500      	push	{lr}
    1f9e:	b086      	sub	sp, #24
    1fa0:	0004      	movs	r4, r0
DevAssert():
D:\CQ9008\sample_codes\Release_example_240606\puf_template\debug/../sdk/platform/devices/devassert.h:31
    if (x)
    1fa2:	2801      	cmp	r0, #1
    1fa4:	d901      	bls.n	1faa <lpaurt_start_send_data_using_dma+0x12>
D:\CQ9008\sample_codes\Release_example_240606\puf_template\debug/../sdk/platform/devices/devassert.h:36
        BKPT_ASM;
    1fa6:	be00      	bkpt	0x0000
D:\CQ9008\sample_codes\Release_example_240606\puf_template\debug/../sdk/platform/devices/devassert.h:37
        for (;;)
    1fa8:	e7fe      	b.n	1fa8 <lpaurt_start_send_data_using_dma+0x10>
D:\CQ9008\sample_codes\Release_example_240606\puf_template\debug/../sdk/platform/devices/devassert.h:31
    if (x)
    1faa:	2900      	cmp	r1, #0
    1fac:	d101      	bne.n	1fb2 <lpaurt_start_send_data_using_dma+0x1a>
D:\CQ9008\sample_codes\Release_example_240606\puf_template\debug/../sdk/platform/devices/devassert.h:36
        BKPT_ASM;
    1fae:	be00      	bkpt	0x0000
D:\CQ9008\sample_codes\Release_example_240606\puf_template\debug/../sdk/platform/devices/devassert.h:37
        for (;;)
    1fb0:	e7fe      	b.n	1fb0 <lpaurt_start_send_data_using_dma+0x18>
lpaurt_start_send_data_using_dma():
D:\CQ9008\sample_codes\Release_example_240606\puf_template\debug/../sdk/platform/drivers/src/lpuart_driver.c:1802
    DEV_ASSERT(instance < LPUART_INSTANCE_COUNT);
    DEV_ASSERT(p_tx_buff != NULL);

    LPUART_t       *p_base         = sp_lpuart_base[instance];
    1fb2:	0083      	lsls	r3, r0, #2
    1fb4:	4821      	ldr	r0, [pc, #132]	; (203c <lpaurt_start_send_data_using_dma+0xa4>)
    1fb6:	581d      	ldr	r5, [r3, r0]
D:\CQ9008\sample_codes\Release_example_240606\puf_template\debug/../sdk/platform/drivers/src/lpuart_driver.c:1803
    lpuart_state_t *p_lpuart_state = (lpuart_state_t *)sp_lpuart_state_ptr[instance];
    1fb8:	4821      	ldr	r0, [pc, #132]	; (2040 <lpaurt_start_send_data_using_dma+0xa8>)
    1fba:	581e      	ldr	r6, [r3, r0]
D:\CQ9008\sample_codes\Release_example_240606\puf_template\debug/../sdk/platform/drivers/src/lpuart_driver.c:1806

    /* Check it's not busy transmitting data from a previous function call */
    if (p_lpuart_state->b_is_tx_busy)
    1fbc:	7f33      	ldrb	r3, [r6, #28]
    1fbe:	2b00      	cmp	r3, #0
    1fc0:	d13a      	bne.n	2038 <lpaurt_start_send_data_using_dma+0xa0>
DevAssert():
D:\CQ9008\sample_codes\Release_example_240606\puf_template\debug/../sdk/platform/devices/devassert.h:31
    if (x)
    1fc2:	2a00      	cmp	r2, #0
    1fc4:	d101      	bne.n	1fca <lpaurt_start_send_data_using_dma+0x32>
D:\CQ9008\sample_codes\Release_example_240606\puf_template\debug/../sdk/platform/devices/devassert.h:36
        BKPT_ASM;
    1fc6:	be00      	bkpt	0x0000
D:\CQ9008\sample_codes\Release_example_240606\puf_template\debug/../sdk/platform/devices/devassert.h:37
        for (;;)
    1fc8:	e7fe      	b.n	1fc8 <lpaurt_start_send_data_using_dma+0x30>
lpaurt_start_send_data_using_dma():
D:\CQ9008\sample_codes\Release_example_240606\puf_template\debug/../sdk/platform/drivers/src/lpuart_driver.c:1814
    }

    DEV_ASSERT(tx_size > 0U);

    /* Update state structure */
    p_lpuart_state->txBuff          = p_tx_buff;
    1fca:	60f1      	str	r1, [r6, #12]
D:\CQ9008\sample_codes\Release_example_240606\puf_template\debug/../sdk/platform/drivers/src/lpuart_driver.c:1815
    p_lpuart_state->tx_size         = 0U;
    1fcc:	2300      	movs	r3, #0
    1fce:	4698      	mov	r8, r3
    1fd0:	6173      	str	r3, [r6, #20]
D:\CQ9008\sample_codes\Release_example_240606\puf_template\debug/../sdk/platform/drivers/src/lpuart_driver.c:1816
    p_lpuart_state->b_is_tx_busy    = true;
    1fd2:	2001      	movs	r0, #1
    1fd4:	7730      	strb	r0, [r6, #28]
D:\CQ9008\sample_codes\Release_example_240606\puf_template\debug/../sdk/platform/drivers/src/lpuart_driver.c:1817
    p_lpuart_state->transmit_status = STATUS_BUSY;
    1fd6:	3302      	adds	r3, #2
    1fd8:	8773      	strh	r3, [r6, #58]	; 0x3a
D:\CQ9008\sample_codes\Release_example_240606\puf_template\debug/../sdk/platform/drivers/src/lpuart_driver.c:1824
    /* Configure the transfer control descriptor for the previously allocated
     * channel */
    (void)edma_config_multi_block_transfer(p_lpuart_state->tx_dma_channel,
                                           EDMA_TRANSFER_MEM2PERIPH,
                                           (uint32_t)p_tx_buff,
                                           (uint32_t)(&(p_base->DATA)),
    1fda:	002b      	movs	r3, r5
    1fdc:	331c      	adds	r3, #28
    1fde:	9305      	str	r3, [sp, #20]
D:\CQ9008\sample_codes\Release_example_240606\puf_template\debug/../sdk/platform/drivers/src/lpuart_driver.c:1821
    (void)edma_config_multi_block_transfer(p_lpuart_state->tx_dma_channel,
    1fe0:	2736      	movs	r7, #54	; 0x36
    1fe2:	5df3      	ldrb	r3, [r6, r7]
    1fe4:	469c      	mov	ip, r3
    1fe6:	9003      	str	r0, [sp, #12]
    1fe8:	9202      	str	r2, [sp, #8]
    1fea:	9001      	str	r0, [sp, #4]
    1fec:	4643      	mov	r3, r8
    1fee:	9300      	str	r3, [sp, #0]
    1ff0:	9b05      	ldr	r3, [sp, #20]
    1ff2:	000a      	movs	r2, r1
    1ff4:	2101      	movs	r1, #1
    1ff6:	4660      	mov	r0, ip
    1ff8:	f7ff fdce 	bl	1b98 <edma_config_multi_block_transfer>
D:\CQ9008\sample_codes\Release_example_240606\puf_template\debug/../sdk/platform/drivers/src/lpuart_driver.c:1832
                                           tx_size,
                                           true);

    /* Call driver function to end the transmission when the DMA transfer is
     * done */
    (void)edma_install_callback(p_lpuart_state->tx_dma_channel,
    1ffc:	5df0      	ldrb	r0, [r6, r7]
    1ffe:	0022      	movs	r2, r4
    2000:	4910      	ldr	r1, [pc, #64]	; (2044 <lpaurt_start_send_data_using_dma+0xac>)
    2002:	f7ff fcbf 	bl	1984 <edma_install_callback>
D:\CQ9008\sample_codes\Release_example_240606\puf_template\debug/../sdk/platform/drivers/src/lpuart_driver.c:1837
                                (edma_callback_t)(lpuart_tx_dma_callback),
                                (void *)(instance));

    /* Start the DMA channel */
    (void)edma_start_channel(p_lpuart_state->tx_dma_channel);
    2006:	5df0      	ldrb	r0, [r6, r7]
    2008:	f7ff fe20 	bl	1c4c <edma_start_channel>
lpuart_set_transmitter_cmd():
D:\CQ9008\sample_codes\Release_example_240606\puf_template\debug/../sdk/platform/drivers/inc/lpuart_access.h:50
 */
static inline void
lpuart_set_transmitter_cmd(LPUART_t *p_base, bool b_enable)
{
    p_base->CTRL =
        (p_base->CTRL & ~LPUART_CTRL_TE_MASK) | ((b_enable ? 1UL : 0UL) << LPUART_CTRL_TE_SHIFT);
    200c:	69ab      	ldr	r3, [r5, #24]
    200e:	4a0e      	ldr	r2, [pc, #56]	; (2048 <lpaurt_start_send_data_using_dma+0xb0>)
    2010:	401a      	ands	r2, r3
    2012:	2380      	movs	r3, #128	; 0x80
    2014:	031b      	lsls	r3, r3, #12
    2016:	4313      	orrs	r3, r2
D:\CQ9008\sample_codes\Release_example_240606\puf_template\debug/../sdk/platform/drivers/inc/lpuart_access.h:49
    p_base->CTRL =
    2018:	61ab      	str	r3, [r5, #24]
D:\CQ9008\sample_codes\Release_example_240606\puf_template\debug/../sdk/platform/drivers/inc/lpuart_access.h:52
    /* Wait for the register write operation to complete */
    while ((bool)((p_base->CTRL & LPUART_CTRL_TE_MASK) != 0U) != b_enable)
    201a:	69ab      	ldr	r3, [r5, #24]
    201c:	031b      	lsls	r3, r3, #12
    201e:	d5fc      	bpl.n	201a <lpaurt_start_send_data_using_dma+0x82>
lpuart_set_tx_dma_cmd():
D:\CQ9008\sample_codes\Release_example_240606\puf_template\debug/../sdk/platform/drivers/inc/lpuart_access.h:196
 * @param[in] b_enable Transmit DMA request configuration (enable:1 /disable: 0)
 */
static inline void
lpuart_set_tx_dma_cmd(LPUART_t *p_base, bool b_enable)
{
    p_base->BAUD = (p_base->BAUD & ~LPUART_BAUD_TDMAE_MASK) |
    2020:	692b      	ldr	r3, [r5, #16]
    2022:	4a0a      	ldr	r2, [pc, #40]	; (204c <lpaurt_start_send_data_using_dma+0xb4>)
    2024:	401a      	ands	r2, r3
    2026:	2380      	movs	r3, #128	; 0x80
    2028:	041b      	lsls	r3, r3, #16
    202a:	4313      	orrs	r3, r2
    202c:	612b      	str	r3, [r5, #16]
lpaurt_start_send_data_using_dma():
D:\CQ9008\sample_codes\Release_example_240606\puf_template\debug/../sdk/platform/drivers/src/lpuart_driver.c:1845
    lpuart_set_transmitter_cmd(p_base, true);

    /* Enable tx DMA requests for the current instance */
    lpuart_set_tx_dma_cmd(p_base, true);

    return STATUS_SUCCESS;
    202e:	2000      	movs	r0, #0
D:\CQ9008\sample_codes\Release_example_240606\puf_template\debug/../sdk/platform/drivers/src/lpuart_driver.c:1846
}
    2030:	b006      	add	sp, #24
    2032:	bc80      	pop	{r7}
    2034:	46b8      	mov	r8, r7
    2036:	bdf0      	pop	{r4, r5, r6, r7, pc}
D:\CQ9008\sample_codes\Release_example_240606\puf_template\debug/../sdk/platform/drivers/src/lpuart_driver.c:1808
        return STATUS_BUSY;
    2038:	2002      	movs	r0, #2
    203a:	e7f9      	b.n	2030 <lpaurt_start_send_data_using_dma+0x98>
    203c:	00006398 	.word	0x00006398
    2040:	2000030c 	.word	0x2000030c
    2044:	000022c5 	.word	0x000022c5
    2048:	fff7ffff 	.word	0xfff7ffff
    204c:	ff7fffff 	.word	0xff7fffff

00002050 <lpuart_init_set>:
lpuart_init_set():
D:\CQ9008\sample_codes\Release_example_240606\puf_template\debug/../sdk/platform/drivers/src/lpuart_driver.c:84
    p_base->BAUD = ((uint32_t)((FEATURE_LPUART_DEFAULT_OSR << LPUART_BAUD_OSR_SHIFT) |
    2050:	4b05      	ldr	r3, [pc, #20]	; (2068 <lpuart_init_set+0x18>)
    2052:	6103      	str	r3, [r0, #16]
D:\CQ9008\sample_codes\Release_example_240606\puf_template\debug/../sdk/platform/drivers/src/lpuart_driver.c:87
    p_base->STAT = FEATURE_LPUART_STAT_REG_FLAGS_MASK;
    2054:	4b05      	ldr	r3, [pc, #20]	; (206c <lpuart_init_set+0x1c>)
    2056:	6143      	str	r3, [r0, #20]
D:\CQ9008\sample_codes\Release_example_240606\puf_template\debug/../sdk/platform/drivers/src/lpuart_driver.c:89
    p_base->CTRL = 0x00000000;
    2058:	2300      	movs	r3, #0
    205a:	6183      	str	r3, [r0, #24]
D:\CQ9008\sample_codes\Release_example_240606\puf_template\debug/../sdk/platform/drivers/src/lpuart_driver.c:91
    p_base->MATCH = 0x00000000;
    205c:	6203      	str	r3, [r0, #32]
D:\CQ9008\sample_codes\Release_example_240606\puf_template\debug/../sdk/platform/drivers/src/lpuart_driver.c:93
    p_base->FIFO = FEATURE_LPUART_FIFO_RESET_MASK;
    205e:	22f0      	movs	r2, #240	; 0xf0
    2060:	0292      	lsls	r2, r2, #10
    2062:	6282      	str	r2, [r0, #40]	; 0x28
D:\CQ9008\sample_codes\Release_example_240606\puf_template\debug/../sdk/platform/drivers/src/lpuart_driver.c:95
    p_base->WATER = 0x00000000;
    2064:	62c3      	str	r3, [r0, #44]	; 0x2c
D:\CQ9008\sample_codes\Release_example_240606\puf_template\debug/../sdk/platform/drivers/src/lpuart_driver.c:96
}
    2066:	4770      	bx	lr
    2068:	0f000004 	.word	0x0f000004
    206c:	c01fc000 	.word	0xc01fc000

00002070 <lpuart_set_bit_count_per_char>:
lpuart_set_bit_count_per_char():
D:\CQ9008\sample_codes\Release_example_240606\puf_template\debug/../sdk/platform/drivers/src/lpuart_driver.c:111
    uint32_t tmp_bit_count_per_char = (uint32_t)bit_count_per_char;
    2070:	000b      	movs	r3, r1
D:\CQ9008\sample_codes\Release_example_240606\puf_template\debug/../sdk/platform/drivers/src/lpuart_driver.c:112
    if (b_parity)
    2072:	2a00      	cmp	r2, #0
    2074:	d000      	beq.n	2078 <lpuart_set_bit_count_per_char+0x8>
D:\CQ9008\sample_codes\Release_example_240606\puf_template\debug/../sdk/platform/drivers/src/lpuart_driver.c:114
        tmp_bit_count_per_char += 1U;
    2076:	1c4b      	adds	r3, r1, #1
D:\CQ9008\sample_codes\Release_example_240606\puf_template\debug/../sdk/platform/drivers/src/lpuart_driver.c:117
    if (tmp_bit_count_per_char == (uint32_t)LPUART_10_BITS_PER_CHAR)
    2078:	2b02      	cmp	r3, #2
    207a:	d00a      	beq.n	2092 <lpuart_set_bit_count_per_char+0x22>
D:\CQ9008\sample_codes\Release_example_240606\puf_template\debug/../sdk/platform/drivers/src/lpuart_driver.c:126
            (p_base->CTRL & ~LPUART_CTRL_M_MASK) | (tmp_bit_count_per_char << LPUART_CTRL_M_SHIFT);
    207c:	6982      	ldr	r2, [r0, #24]
    207e:	2110      	movs	r1, #16
    2080:	438a      	bics	r2, r1
    2082:	011b      	lsls	r3, r3, #4
    2084:	4313      	orrs	r3, r2
D:\CQ9008\sample_codes\Release_example_240606\puf_template\debug/../sdk/platform/drivers/src/lpuart_driver.c:125
        p_base->CTRL =
    2086:	6183      	str	r3, [r0, #24]
D:\CQ9008\sample_codes\Release_example_240606\puf_template\debug/../sdk/platform/drivers/src/lpuart_driver.c:128
        p_base->BAUD &= ~LPUART_BAUD_M10_MASK;
    2088:	6903      	ldr	r3, [r0, #16]
    208a:	4a05      	ldr	r2, [pc, #20]	; (20a0 <lpuart_set_bit_count_per_char+0x30>)
    208c:	4013      	ands	r3, r2
    208e:	6103      	str	r3, [r0, #16]
D:\CQ9008\sample_codes\Release_example_240606\puf_template\debug/../sdk/platform/drivers/src/lpuart_driver.c:130
}
    2090:	4770      	bx	lr
D:\CQ9008\sample_codes\Release_example_240606\puf_template\debug/../sdk/platform/drivers/src/lpuart_driver.c:120
            (p_base->BAUD & ~LPUART_BAUD_M10_MASK) | ((uint32_t)1U << LPUART_BAUD_M10_SHIFT);
    2092:	6902      	ldr	r2, [r0, #16]
    2094:	2380      	movs	r3, #128	; 0x80
    2096:	059b      	lsls	r3, r3, #22
    2098:	4313      	orrs	r3, r2
D:\CQ9008\sample_codes\Release_example_240606\puf_template\debug/../sdk/platform/drivers/src/lpuart_driver.c:119
        p_base->BAUD =
    209a:	6103      	str	r3, [r0, #16]
    209c:	e7f8      	b.n	2090 <lpuart_set_bit_count_per_char+0x20>
    209e:	46c0      	nop			; (mov r8, r8)
    20a0:	dfffffff 	.word	0xdfffffff

000020a4 <lpuart_set_parity_mode>:
lpuart_set_parity_mode():
D:\CQ9008\sample_codes\Release_example_240606\puf_template\debug/../sdk/platform/drivers/src/lpuart_driver.c:142
{
    20a4:	000a      	movs	r2, r1
D:\CQ9008\sample_codes\Release_example_240606\puf_template\debug/../sdk/platform/drivers/src/lpuart_driver.c:143
    p_base->CTRL = (p_base->CTRL & ~LPUART_CTRL_PE_MASK) |
    20a6:	6983      	ldr	r3, [r0, #24]
    20a8:	2102      	movs	r1, #2
    20aa:	438b      	bics	r3, r1
D:\CQ9008\sample_codes\Release_example_240606\puf_template\debug/../sdk/platform/drivers/src/lpuart_driver.c:144
                   (((uint32_t)parity_mode_type >> 1U) << LPUART_CTRL_PE_SHIFT);
    20ac:	0851      	lsrs	r1, r2, #1
    20ae:	0049      	lsls	r1, r1, #1
D:\CQ9008\sample_codes\Release_example_240606\puf_template\debug/../sdk/platform/drivers/src/lpuart_driver.c:143
    p_base->CTRL = (p_base->CTRL & ~LPUART_CTRL_PE_MASK) |
    20b0:	430b      	orrs	r3, r1
    20b2:	6183      	str	r3, [r0, #24]
D:\CQ9008\sample_codes\Release_example_240606\puf_template\debug/../sdk/platform/drivers/src/lpuart_driver.c:145
    p_base->CTRL = (p_base->CTRL & ~LPUART_CTRL_PT_MASK) |
    20b4:	6981      	ldr	r1, [r0, #24]
    20b6:	2301      	movs	r3, #1
    20b8:	4399      	bics	r1, r3
D:\CQ9008\sample_codes\Release_example_240606\puf_template\debug/../sdk/platform/drivers/src/lpuart_driver.c:146
                   (((uint32_t)parity_mode_type & 1U) << LPUART_CTRL_PT_SHIFT);
    20ba:	401a      	ands	r2, r3
D:\CQ9008\sample_codes\Release_example_240606\puf_template\debug/../sdk/platform/drivers/src/lpuart_driver.c:145
    p_base->CTRL = (p_base->CTRL & ~LPUART_CTRL_PT_MASK) |
    20bc:	4311      	orrs	r1, r2
    20be:	6181      	str	r1, [r0, #24]
D:\CQ9008\sample_codes\Release_example_240606\puf_template\debug/../sdk/platform/drivers/src/lpuart_driver.c:147
}
    20c0:	4770      	bx	lr
	...

000020c4 <lpuart_set_int_mode>:
lpuart_set_int_mode():
D:\CQ9008\sample_codes\Release_example_240606\puf_template\debug/../sdk/platform/drivers/src/lpuart_driver.c:157
{
    20c4:	b530      	push	{r4, r5, lr}
D:\CQ9008\sample_codes\Release_example_240606\puf_template\debug/../sdk/platform/drivers/src/lpuart_driver.c:158
    uint32_t reg            = (uint32_t)(int_src) >> LPUART_SHIFT;
    20c6:	0c0b      	lsrs	r3, r1, #16
D:\CQ9008\sample_codes\Release_example_240606\puf_template\debug/../sdk/platform/drivers/src/lpuart_driver.c:159
    uint32_t int_reg_offset = (uint16_t)(int_src);
    20c8:	0409      	lsls	r1, r1, #16
    20ca:	0c09      	lsrs	r1, r1, #16
D:\CQ9008\sample_codes\Release_example_240606\puf_template\debug/../sdk/platform/drivers/src/lpuart_driver.c:161
    switch (reg)
    20cc:	2b03      	cmp	r3, #3
    20ce:	d00f      	beq.n	20f0 <lpuart_set_int_mode+0x2c>
    20d0:	2b07      	cmp	r3, #7
    20d2:	d01a      	beq.n	210a <lpuart_set_int_mode+0x46>
    20d4:	2b01      	cmp	r3, #1
    20d6:	d000      	beq.n	20da <lpuart_set_int_mode+0x16>
D:\CQ9008\sample_codes\Release_example_240606\puf_template\debug/../sdk/platform/drivers/src/lpuart_driver.c:187
}
    20d8:	bd30      	pop	{r4, r5, pc}
D:\CQ9008\sample_codes\Release_example_240606\puf_template\debug/../sdk/platform/drivers/src/lpuart_driver.c:165
            p_base->BAUD = (p_base->BAUD & ~(1UL << int_reg_offset)) |
    20da:	6904      	ldr	r4, [r0, #16]
    20dc:	2501      	movs	r5, #1
    20de:	408d      	lsls	r5, r1
    20e0:	43ac      	bics	r4, r5
D:\CQ9008\sample_codes\Release_example_240606\puf_template\debug/../sdk/platform/drivers/src/lpuart_driver.c:166
                           ((b_enable ? 1U : 0U) << int_reg_offset);
    20e2:	2a00      	cmp	r2, #0
    20e4:	d100      	bne.n	20e8 <lpuart_set_int_mode+0x24>
    20e6:	2300      	movs	r3, #0
D:\CQ9008\sample_codes\Release_example_240606\puf_template\debug/../sdk/platform/drivers/src/lpuart_driver.c:166 (discriminator 4)
    20e8:	408b      	lsls	r3, r1
D:\CQ9008\sample_codes\Release_example_240606\puf_template\debug/../sdk/platform/drivers/src/lpuart_driver.c:165 (discriminator 4)
            p_base->BAUD = (p_base->BAUD & ~(1UL << int_reg_offset)) |
    20ea:	4323      	orrs	r3, r4
    20ec:	6103      	str	r3, [r0, #16]
D:\CQ9008\sample_codes\Release_example_240606\puf_template\debug/../sdk/platform/drivers/src/lpuart_driver.c:168 (discriminator 4)
        break;
    20ee:	e7f3      	b.n	20d8 <lpuart_set_int_mode+0x14>
D:\CQ9008\sample_codes\Release_example_240606\puf_template\debug/../sdk/platform/drivers/src/lpuart_driver.c:171
            p_base->CTRL = (p_base->CTRL & ~(1UL << int_reg_offset)) |
    20f0:	6983      	ldr	r3, [r0, #24]
    20f2:	2401      	movs	r4, #1
    20f4:	408c      	lsls	r4, r1
    20f6:	43a3      	bics	r3, r4
D:\CQ9008\sample_codes\Release_example_240606\puf_template\debug/../sdk/platform/drivers/src/lpuart_driver.c:172
                           ((b_enable ? 1U : 0U) << int_reg_offset);
    20f8:	2a00      	cmp	r2, #0
    20fa:	d004      	beq.n	2106 <lpuart_set_int_mode+0x42>
    20fc:	2201      	movs	r2, #1
D:\CQ9008\sample_codes\Release_example_240606\puf_template\debug/../sdk/platform/drivers/src/lpuart_driver.c:172 (discriminator 4)
    20fe:	408a      	lsls	r2, r1
D:\CQ9008\sample_codes\Release_example_240606\puf_template\debug/../sdk/platform/drivers/src/lpuart_driver.c:171 (discriminator 4)
            p_base->CTRL = (p_base->CTRL & ~(1UL << int_reg_offset)) |
    2100:	4313      	orrs	r3, r2
    2102:	6183      	str	r3, [r0, #24]
D:\CQ9008\sample_codes\Release_example_240606\puf_template\debug/../sdk/platform/drivers/src/lpuart_driver.c:174 (discriminator 4)
        break;
    2104:	e7e8      	b.n	20d8 <lpuart_set_int_mode+0x14>
D:\CQ9008\sample_codes\Release_example_240606\puf_template\debug/../sdk/platform/drivers/src/lpuart_driver.c:172
                           ((b_enable ? 1U : 0U) << int_reg_offset);
    2106:	2200      	movs	r2, #0
    2108:	e7f9      	b.n	20fe <lpuart_set_int_mode+0x3a>
D:\CQ9008\sample_codes\Release_example_240606\puf_template\debug/../sdk/platform/drivers/src/lpuart_driver.c:178
                (p_base->FIFO & (~FEATURE_LPUART_FIFO_REG_FLAGS_MASK & ~(1UL << int_reg_offset))) |
    210a:	6a83      	ldr	r3, [r0, #40]	; 0x28
    210c:	2401      	movs	r4, #1
    210e:	408c      	lsls	r4, r1
    2110:	43a3      	bics	r3, r4
    2112:	4c05      	ldr	r4, [pc, #20]	; (2128 <lpuart_set_int_mode+0x64>)
    2114:	4023      	ands	r3, r4
D:\CQ9008\sample_codes\Release_example_240606\puf_template\debug/../sdk/platform/drivers/src/lpuart_driver.c:179
                ((b_enable ? 1U : 0U) << int_reg_offset);
    2116:	2a00      	cmp	r2, #0
    2118:	d004      	beq.n	2124 <lpuart_set_int_mode+0x60>
    211a:	2201      	movs	r2, #1
D:\CQ9008\sample_codes\Release_example_240606\puf_template\debug/../sdk/platform/drivers/src/lpuart_driver.c:179 (discriminator 4)
    211c:	408a      	lsls	r2, r1
D:\CQ9008\sample_codes\Release_example_240606\puf_template\debug/../sdk/platform/drivers/src/lpuart_driver.c:178 (discriminator 4)
                (p_base->FIFO & (~FEATURE_LPUART_FIFO_REG_FLAGS_MASK & ~(1UL << int_reg_offset))) |
    211e:	4313      	orrs	r3, r2
D:\CQ9008\sample_codes\Release_example_240606\puf_template\debug/../sdk/platform/drivers/src/lpuart_driver.c:177 (discriminator 4)
            p_base->FIFO =
    2120:	6283      	str	r3, [r0, #40]	; 0x28
D:\CQ9008\sample_codes\Release_example_240606\puf_template\debug/../sdk/platform/drivers/src/lpuart_driver.c:187 (discriminator 4)
}
    2122:	e7d9      	b.n	20d8 <lpuart_set_int_mode+0x14>
D:\CQ9008\sample_codes\Release_example_240606\puf_template\debug/../sdk/platform/drivers/src/lpuart_driver.c:179
                ((b_enable ? 1U : 0U) << int_reg_offset);
    2124:	2200      	movs	r2, #0
    2126:	e7f9      	b.n	211c <lpuart_set_int_mode+0x58>
    2128:	fffcffff 	.word	0xfffcffff

0000212c <lpuart_start_send_data_using_int>:
lpuart_start_send_data_using_int():
D:\CQ9008\sample_codes\Release_example_240606\puf_template\debug/../sdk/platform/drivers/src/lpuart_driver.c:1755
{
    212c:	b510      	push	{r4, lr}
DevAssert():
D:\CQ9008\sample_codes\Release_example_240606\puf_template\debug/../sdk/platform/devices/devassert.h:31
    if (x)
    212e:	2801      	cmp	r0, #1
    2130:	d901      	bls.n	2136 <lpuart_start_send_data_using_int+0xa>
D:\CQ9008\sample_codes\Release_example_240606\puf_template\debug/../sdk/platform/devices/devassert.h:36
        BKPT_ASM;
    2132:	be00      	bkpt	0x0000
D:\CQ9008\sample_codes\Release_example_240606\puf_template\debug/../sdk/platform/devices/devassert.h:37
        for (;;)
    2134:	e7fe      	b.n	2134 <lpuart_start_send_data_using_int+0x8>
D:\CQ9008\sample_codes\Release_example_240606\puf_template\debug/../sdk/platform/devices/devassert.h:31
    if (x)
    2136:	2900      	cmp	r1, #0
    2138:	d101      	bne.n	213e <lpuart_start_send_data_using_int+0x12>
D:\CQ9008\sample_codes\Release_example_240606\puf_template\debug/../sdk/platform/devices/devassert.h:36
        BKPT_ASM;
    213a:	be00      	bkpt	0x0000
D:\CQ9008\sample_codes\Release_example_240606\puf_template\debug/../sdk/platform/devices/devassert.h:37
        for (;;)
    213c:	e7fe      	b.n	213c <lpuart_start_send_data_using_int+0x10>
lpuart_start_send_data_using_int():
D:\CQ9008\sample_codes\Release_example_240606\puf_template\debug/../sdk/platform/drivers/src/lpuart_driver.c:1759
    LPUART_t       *p_base         = sp_lpuart_base[instance];
    213e:	0083      	lsls	r3, r0, #2
    2140:	4818      	ldr	r0, [pc, #96]	; (21a4 <lpuart_start_send_data_using_int+0x78>)
    2142:	5818      	ldr	r0, [r3, r0]
D:\CQ9008\sample_codes\Release_example_240606\puf_template\debug/../sdk/platform/drivers/src/lpuart_driver.c:1760
    lpuart_state_t *p_lpuart_state = (lpuart_state_t *)sp_lpuart_state_ptr[instance];
    2144:	4c18      	ldr	r4, [pc, #96]	; (21a8 <lpuart_start_send_data_using_int+0x7c>)
    2146:	591b      	ldr	r3, [r3, r4]
D:\CQ9008\sample_codes\Release_example_240606\puf_template\debug/../sdk/platform/drivers/src/lpuart_driver.c:1763
    if (p_lpuart_state->b_is_tx_busy)
    2148:	7f1c      	ldrb	r4, [r3, #28]
    214a:	2c00      	cmp	r4, #0
    214c:	d128      	bne.n	21a0 <lpuart_start_send_data_using_int+0x74>
DevAssert():
D:\CQ9008\sample_codes\Release_example_240606\puf_template\debug/../sdk/platform/devices/devassert.h:31
    if (x)
    214e:	2a00      	cmp	r2, #0
    2150:	d101      	bne.n	2156 <lpuart_start_send_data_using_int+0x2a>
D:\CQ9008\sample_codes\Release_example_240606\puf_template\debug/../sdk/platform/devices/devassert.h:36
        BKPT_ASM;
    2152:	be00      	bkpt	0x0000
D:\CQ9008\sample_codes\Release_example_240606\puf_template\debug/../sdk/platform/devices/devassert.h:37
        for (;;)
    2154:	e7fe      	b.n	2154 <lpuart_start_send_data_using_int+0x28>
lpuart_start_send_data_using_int():
D:\CQ9008\sample_codes\Release_example_240606\puf_template\debug/../sdk/platform/drivers/src/lpuart_driver.c:1770
    DEV_ASSERT((p_lpuart_state->bit_count_per_char == LPUART_8_BITS_PER_CHAR) ||
    2156:	2420      	movs	r4, #32
    2158:	5d1c      	ldrb	r4, [r3, r4]
    215a:	2c00      	cmp	r4, #0
    215c:	d003      	beq.n	2166 <lpuart_start_send_data_using_int+0x3a>
D:\CQ9008\sample_codes\Release_example_240606\puf_template\debug/../sdk/platform/drivers/src/lpuart_driver.c:1770 (discriminator 2)
    215e:	07d4      	lsls	r4, r2, #31
    2160:	d406      	bmi.n	2170 <lpuart_start_send_data_using_int+0x44>
D:\CQ9008\sample_codes\Release_example_240606\puf_template\debug/../sdk/platform/drivers/src/lpuart_driver.c:1770
    2162:	2401      	movs	r4, #1
    2164:	e000      	b.n	2168 <lpuart_start_send_data_using_int+0x3c>
    2166:	2401      	movs	r4, #1
DevAssert():
D:\CQ9008\sample_codes\Release_example_240606\puf_template\debug/../sdk/platform/devices/devassert.h:31 (discriminator 6)
    if (x)
    2168:	2c00      	cmp	r4, #0
    216a:	d103      	bne.n	2174 <lpuart_start_send_data_using_int+0x48>
D:\CQ9008\sample_codes\Release_example_240606\puf_template\debug/../sdk/platform/devices/devassert.h:36
        BKPT_ASM;
    216c:	be00      	bkpt	0x0000
D:\CQ9008\sample_codes\Release_example_240606\puf_template\debug/../sdk/platform/devices/devassert.h:37
        for (;;)
    216e:	e7fe      	b.n	216e <lpuart_start_send_data_using_int+0x42>
lpuart_start_send_data_using_int():
D:\CQ9008\sample_codes\Release_example_240606\puf_template\debug/../sdk/platform/drivers/src/lpuart_driver.c:1770
    2170:	2400      	movs	r4, #0
    2172:	e7f9      	b.n	2168 <lpuart_start_send_data_using_int+0x3c>
D:\CQ9008\sample_codes\Release_example_240606\puf_template\debug/../sdk/platform/drivers/src/lpuart_driver.c:1774 (discriminator 6)
    p_lpuart_state->txBuff          = p_tx_buff;
    2174:	60d9      	str	r1, [r3, #12]
D:\CQ9008\sample_codes\Release_example_240606\puf_template\debug/../sdk/platform/drivers/src/lpuart_driver.c:1775 (discriminator 6)
    p_lpuart_state->tx_size         = tx_size;
    2176:	615a      	str	r2, [r3, #20]
D:\CQ9008\sample_codes\Release_example_240606\puf_template\debug/../sdk/platform/drivers/src/lpuart_driver.c:1776 (discriminator 6)
    p_lpuart_state->b_is_tx_busy    = true;
    2178:	2201      	movs	r2, #1
    217a:	771a      	strb	r2, [r3, #28]
D:\CQ9008\sample_codes\Release_example_240606\puf_template\debug/../sdk/platform/drivers/src/lpuart_driver.c:1777 (discriminator 6)
    p_lpuart_state->transmit_status = STATUS_BUSY;
    217c:	3201      	adds	r2, #1
    217e:	875a      	strh	r2, [r3, #58]	; 0x3a
lpuart_set_transmitter_cmd():
D:\CQ9008\sample_codes\Release_example_240606\puf_template\debug/../sdk/platform/drivers/inc/lpuart_access.h:50 (discriminator 6)
        (p_base->CTRL & ~LPUART_CTRL_TE_MASK) | ((b_enable ? 1UL : 0UL) << LPUART_CTRL_TE_SHIFT);
    2180:	6983      	ldr	r3, [r0, #24]
    2182:	4a0a      	ldr	r2, [pc, #40]	; (21ac <lpuart_start_send_data_using_int+0x80>)
    2184:	401a      	ands	r2, r3
    2186:	2380      	movs	r3, #128	; 0x80
    2188:	031b      	lsls	r3, r3, #12
    218a:	4313      	orrs	r3, r2
D:\CQ9008\sample_codes\Release_example_240606\puf_template\debug/../sdk/platform/drivers/inc/lpuart_access.h:49 (discriminator 6)
    p_base->CTRL =
    218c:	6183      	str	r3, [r0, #24]
D:\CQ9008\sample_codes\Release_example_240606\puf_template\debug/../sdk/platform/drivers/inc/lpuart_access.h:52
    while ((bool)((p_base->CTRL & LPUART_CTRL_TE_MASK) != 0U) != b_enable)
    218e:	6983      	ldr	r3, [r0, #24]
    2190:	031b      	lsls	r3, r3, #12
    2192:	d5fc      	bpl.n	218e <lpuart_start_send_data_using_int+0x62>
lpuart_start_send_data_using_int():
D:\CQ9008\sample_codes\Release_example_240606\puf_template\debug/../sdk/platform/drivers/src/lpuart_driver.c:1783 (discriminator 6)
    lpuart_set_int_mode(p_base, LPUART_INT_TX_DATA_REG_EMPTY, true);
    2194:	2201      	movs	r2, #1
    2196:	4906      	ldr	r1, [pc, #24]	; (21b0 <lpuart_start_send_data_using_int+0x84>)
    2198:	f7ff ff94 	bl	20c4 <lpuart_set_int_mode>
D:\CQ9008\sample_codes\Release_example_240606\puf_template\debug/../sdk/platform/drivers/src/lpuart_driver.c:1785 (discriminator 6)
    return STATUS_SUCCESS;
    219c:	2000      	movs	r0, #0
    219e:	e000      	b.n	21a2 <lpuart_start_send_data_using_int+0x76>
D:\CQ9008\sample_codes\Release_example_240606\puf_template\debug/../sdk/platform/drivers/src/lpuart_driver.c:1765
        return STATUS_BUSY;
    21a0:	2002      	movs	r0, #2
D:\CQ9008\sample_codes\Release_example_240606\puf_template\debug/../sdk/platform/drivers/src/lpuart_driver.c:1786
}
    21a2:	bd10      	pop	{r4, pc}
    21a4:	00006398 	.word	0x00006398
    21a8:	2000030c 	.word	0x2000030c
    21ac:	fff7ffff 	.word	0xfff7ffff
    21b0:	00030017 	.word	0x00030017

000021b4 <lpuart_complete_send_data_using_int>:
lpuart_complete_send_data_using_int():
D:\CQ9008\sample_codes\Release_example_240606\puf_template\debug/../sdk/platform/drivers/src/lpuart_driver.c:1858
 * This is not a public API as it is called from other driver functions.
 *
 *END**************************************************************************/
static void
lpuart_complete_send_data_using_int(uint32_t instance)
{
    21b4:	b570      	push	{r4, r5, r6, lr}
DevAssert():
D:\CQ9008\sample_codes\Release_example_240606\puf_template\debug/../sdk/platform/devices/devassert.h:31
    if (x)
    21b6:	2801      	cmp	r0, #1
    21b8:	d901      	bls.n	21be <lpuart_complete_send_data_using_int+0xa>
D:\CQ9008\sample_codes\Release_example_240606\puf_template\debug/../sdk/platform/devices/devassert.h:36
        BKPT_ASM;
    21ba:	be00      	bkpt	0x0000
D:\CQ9008\sample_codes\Release_example_240606\puf_template\debug/../sdk/platform/devices/devassert.h:37
        for (;;)
    21bc:	e7fe      	b.n	21bc <lpuart_complete_send_data_using_int+0x8>
lpuart_complete_send_data_using_int():
D:\CQ9008\sample_codes\Release_example_240606\puf_template\debug/../sdk/platform/drivers/src/lpuart_driver.c:1861
    DEV_ASSERT(instance < LPUART_INSTANCE_COUNT);

    LPUART_t       *p_base         = sp_lpuart_base[instance];
    21be:	0080      	lsls	r0, r0, #2
    21c0:	4b13      	ldr	r3, [pc, #76]	; (2210 <lpuart_complete_send_data_using_int+0x5c>)
    21c2:	58c4      	ldr	r4, [r0, r3]
D:\CQ9008\sample_codes\Release_example_240606\puf_template\debug/../sdk/platform/drivers/src/lpuart_driver.c:1862
    lpuart_state_t *p_lpuart_state = (lpuart_state_t *)sp_lpuart_state_ptr[instance];
    21c4:	4b13      	ldr	r3, [pc, #76]	; (2214 <lpuart_complete_send_data_using_int+0x60>)
    21c6:	58c5      	ldr	r5, [r0, r3]
D:\CQ9008\sample_codes\Release_example_240606\puf_template\debug/../sdk/platform/drivers/src/lpuart_driver.c:1864

    if (p_lpuart_state->transmit_status == STATUS_BUSY)
    21c8:	8f6b      	ldrh	r3, [r5, #58]	; 0x3a
    21ca:	b29b      	uxth	r3, r3
    21cc:	2b02      	cmp	r3, #2
    21ce:	d113      	bne.n	21f8 <lpuart_complete_send_data_using_int+0x44>
D:\CQ9008\sample_codes\Release_example_240606\puf_template\debug/../sdk/platform/drivers/src/lpuart_driver.c:1867
    {
        /* If the transfer is completed, update the transmit status */
        p_lpuart_state->transmit_status = STATUS_SUCCESS;
    21d0:	2300      	movs	r3, #0
    21d2:	876b      	strh	r3, [r5, #58]	; 0x3a
D:\CQ9008\sample_codes\Release_example_240606\puf_template\debug/../sdk/platform/drivers/src/lpuart_driver.c:1877
         */
        lpuart_set_int_mode(p_base, LPUART_INT_TX_DATA_REG_EMPTY, false);
    }

    /* Disable transmission complete interrupt */
    lpuart_set_int_mode(p_base, LPUART_INT_TX_COMPLETE, false);
    21d4:	2200      	movs	r2, #0
    21d6:	4910      	ldr	r1, [pc, #64]	; (2218 <lpuart_complete_send_data_using_int+0x64>)
    21d8:	0020      	movs	r0, r4
    21da:	f7ff ff73 	bl	20c4 <lpuart_set_int_mode>
lpuart_set_transmitter_cmd():
D:\CQ9008\sample_codes\Release_example_240606\puf_template\debug/../sdk/platform/drivers/inc/lpuart_access.h:50
        (p_base->CTRL & ~LPUART_CTRL_TE_MASK) | ((b_enable ? 1UL : 0UL) << LPUART_CTRL_TE_SHIFT);
    21de:	69a3      	ldr	r3, [r4, #24]
    21e0:	4a0e      	ldr	r2, [pc, #56]	; (221c <lpuart_complete_send_data_using_int+0x68>)
    21e2:	4013      	ands	r3, r2
D:\CQ9008\sample_codes\Release_example_240606\puf_template\debug/../sdk/platform/drivers/inc/lpuart_access.h:49
    p_base->CTRL =
    21e4:	61a3      	str	r3, [r4, #24]
D:\CQ9008\sample_codes\Release_example_240606\puf_template\debug/../sdk/platform/drivers/inc/lpuart_access.h:52
    while ((bool)((p_base->CTRL & LPUART_CTRL_TE_MASK) != 0U) != b_enable)
    21e6:	69a3      	ldr	r3, [r4, #24]
    21e8:	031b      	lsls	r3, r3, #12
    21ea:	d4fc      	bmi.n	21e6 <lpuart_complete_send_data_using_int+0x32>
lpuart_complete_send_data_using_int():
D:\CQ9008\sample_codes\Release_example_240606\puf_template\debug/../sdk/platform/drivers/src/lpuart_driver.c:1883

    /* Disable transmitter */
    lpuart_set_transmitter_cmd(p_base, false);

    /* Update the internal busy flag */
    p_lpuart_state->b_is_tx_busy = false;
    21ec:	2300      	movs	r3, #0
    21ee:	772b      	strb	r3, [r5, #28]
D:\CQ9008\sample_codes\Release_example_240606\puf_template\debug/../sdk/platform/drivers/src/lpuart_driver.c:1886

    /* Signal the synchronous completion object. */
    if (p_lpuart_state->b_is_tx_blocking)
    21f0:	7fab      	ldrb	r3, [r5, #30]
    21f2:	2b00      	cmp	r3, #0
    21f4:	d106      	bne.n	2204 <lpuart_complete_send_data_using_int+0x50>
D:\CQ9008\sample_codes\Release_example_240606\puf_template\debug/../sdk/platform/drivers/src/lpuart_driver.c:1890
    {
        (void)osif_sema_post(&p_lpuart_state->tx_complete);
    }
}
    21f6:	bd70      	pop	{r4, r5, r6, pc}
D:\CQ9008\sample_codes\Release_example_240606\puf_template\debug/../sdk/platform/drivers/src/lpuart_driver.c:1873
        lpuart_set_int_mode(p_base, LPUART_INT_TX_DATA_REG_EMPTY, false);
    21f8:	2200      	movs	r2, #0
    21fa:	4909      	ldr	r1, [pc, #36]	; (2220 <lpuart_complete_send_data_using_int+0x6c>)
    21fc:	0020      	movs	r0, r4
    21fe:	f7ff ff61 	bl	20c4 <lpuart_set_int_mode>
    2202:	e7e7      	b.n	21d4 <lpuart_complete_send_data_using_int+0x20>
D:\CQ9008\sample_codes\Release_example_240606\puf_template\debug/../sdk/platform/drivers/src/lpuart_driver.c:1888
        (void)osif_sema_post(&p_lpuart_state->tx_complete);
    2204:	0028      	movs	r0, r5
    2206:	3038      	adds	r0, #56	; 0x38
    2208:	f000 feb8 	bl	2f7c <osif_sema_post>
D:\CQ9008\sample_codes\Release_example_240606\puf_template\debug/../sdk/platform/drivers/src/lpuart_driver.c:1890
}
    220c:	e7f3      	b.n	21f6 <lpuart_complete_send_data_using_int+0x42>
    220e:	46c0      	nop			; (mov r8, r8)
    2210:	00006398 	.word	0x00006398
    2214:	2000030c 	.word	0x2000030c
    2218:	00030016 	.word	0x00030016
    221c:	fff7ffff 	.word	0xfff7ffff
    2220:	00030017 	.word	0x00030017

00002224 <lpuart_stop_tx_dma>:
lpuart_stop_tx_dma():
D:\CQ9008\sample_codes\Release_example_240606\puf_template\debug/../sdk/platform/drivers/src/lpuart_driver.c:2295
 * This is not a public API as it is called from other driver functions.
 *
 *END**************************************************************************/
static void
lpuart_stop_tx_dma(uint32_t instance)
{
    2224:	b570      	push	{r4, r5, r6, lr}
D:\CQ9008\sample_codes\Release_example_240606\puf_template\debug/../sdk/platform/drivers/src/lpuart_driver.c:2296
    LPUART_t       *p_base         = sp_lpuart_base[instance];
    2226:	0080      	lsls	r0, r0, #2
    2228:	4b14      	ldr	r3, [pc, #80]	; (227c <lpuart_stop_tx_dma+0x58>)
    222a:	58c4      	ldr	r4, [r0, r3]
D:\CQ9008\sample_codes\Release_example_240606\puf_template\debug/../sdk/platform/drivers/src/lpuart_driver.c:2297
    lpuart_state_t *p_lpuart_state = (lpuart_state_t *)sp_lpuart_state_ptr[instance];
    222c:	4b14      	ldr	r3, [pc, #80]	; (2280 <lpuart_stop_tx_dma+0x5c>)
    222e:	58c5      	ldr	r5, [r0, r3]
lpuart_set_tx_dma_cmd():
D:\CQ9008\sample_codes\Release_example_240606\puf_template\debug/../sdk/platform/drivers/inc/lpuart_access.h:196
    p_base->BAUD = (p_base->BAUD & ~LPUART_BAUD_TDMAE_MASK) |
    2230:	6923      	ldr	r3, [r4, #16]
    2232:	4a14      	ldr	r2, [pc, #80]	; (2284 <lpuart_stop_tx_dma+0x60>)
    2234:	4013      	ands	r3, r2
    2236:	6123      	str	r3, [r4, #16]
lpuart_stop_tx_dma():
D:\CQ9008\sample_codes\Release_example_240606\puf_template\debug/../sdk/platform/drivers/src/lpuart_driver.c:2303

    /* Disable tx DMA requests for the current instance */
    lpuart_set_tx_dma_cmd(p_base, false);

    /* Stop the dma channel */
    (void)edma_stop_channel(p_lpuart_state->tx_dma_channel);
    2238:	2336      	movs	r3, #54	; 0x36
    223a:	5ce8      	ldrb	r0, [r5, r3]
    223c:	f7ff fd24 	bl	1c88 <edma_stop_channel>
D:\CQ9008\sample_codes\Release_example_240606\puf_template\debug/../sdk/platform/drivers/src/lpuart_driver.c:2306

    /* Disable transmission complete interrupt */
    lpuart_set_int_mode(p_base, LPUART_INT_TX_COMPLETE, false);
    2240:	2200      	movs	r2, #0
    2242:	4911      	ldr	r1, [pc, #68]	; (2288 <lpuart_stop_tx_dma+0x64>)
    2244:	0020      	movs	r0, r4
    2246:	f7ff ff3d 	bl	20c4 <lpuart_set_int_mode>
lpuart_set_transmitter_cmd():
D:\CQ9008\sample_codes\Release_example_240606\puf_template\debug/../sdk/platform/drivers/inc/lpuart_access.h:50
        (p_base->CTRL & ~LPUART_CTRL_TE_MASK) | ((b_enable ? 1UL : 0UL) << LPUART_CTRL_TE_SHIFT);
    224a:	69a3      	ldr	r3, [r4, #24]
    224c:	4a0f      	ldr	r2, [pc, #60]	; (228c <lpuart_stop_tx_dma+0x68>)
    224e:	4013      	ands	r3, r2
D:\CQ9008\sample_codes\Release_example_240606\puf_template\debug/../sdk/platform/drivers/inc/lpuart_access.h:49
    p_base->CTRL =
    2250:	61a3      	str	r3, [r4, #24]
D:\CQ9008\sample_codes\Release_example_240606\puf_template\debug/../sdk/platform/drivers/inc/lpuart_access.h:52
    while ((bool)((p_base->CTRL & LPUART_CTRL_TE_MASK) != 0U) != b_enable)
    2252:	69a3      	ldr	r3, [r4, #24]
    2254:	031b      	lsls	r3, r3, #12
    2256:	d4fc      	bmi.n	2252 <lpuart_stop_tx_dma+0x2e>
lpuart_stop_tx_dma():
D:\CQ9008\sample_codes\Release_example_240606\puf_template\debug/../sdk/platform/drivers/src/lpuart_driver.c:2312

    /* Disable transmitter */
    lpuart_set_transmitter_cmd(p_base, false);

    /* Signal the synchronous completion object. */
    if (p_lpuart_state->b_is_tx_blocking)
    2258:	7fab      	ldrb	r3, [r5, #30]
    225a:	2b00      	cmp	r3, #0
    225c:	d106      	bne.n	226c <lpuart_stop_tx_dma+0x48>
D:\CQ9008\sample_codes\Release_example_240606\puf_template\debug/../sdk/platform/drivers/src/lpuart_driver.c:2317
    {
        (void)osif_sema_post(&p_lpuart_state->tx_complete);
    }

    if (p_lpuart_state->transmit_status == STATUS_BUSY)
    225e:	8f6b      	ldrh	r3, [r5, #58]	; 0x3a
    2260:	b29b      	uxth	r3, r3
    2262:	2b02      	cmp	r3, #2
    2264:	d007      	beq.n	2276 <lpuart_stop_tx_dma+0x52>
D:\CQ9008\sample_codes\Release_example_240606\puf_template\debug/../sdk/platform/drivers/src/lpuart_driver.c:2324
        /* If the transfer is completed, update the transmit status */
        p_lpuart_state->transmit_status = STATUS_SUCCESS;
    }

    /* Update the internal busy flag */
    p_lpuart_state->b_is_tx_busy = false;
    2266:	2300      	movs	r3, #0
    2268:	772b      	strb	r3, [r5, #28]
D:\CQ9008\sample_codes\Release_example_240606\puf_template\debug/../sdk/platform/drivers/src/lpuart_driver.c:2325
}
    226a:	bd70      	pop	{r4, r5, r6, pc}
D:\CQ9008\sample_codes\Release_example_240606\puf_template\debug/../sdk/platform/drivers/src/lpuart_driver.c:2314
        (void)osif_sema_post(&p_lpuart_state->tx_complete);
    226c:	0028      	movs	r0, r5
    226e:	3038      	adds	r0, #56	; 0x38
    2270:	f000 fe84 	bl	2f7c <osif_sema_post>
    2274:	e7f3      	b.n	225e <lpuart_stop_tx_dma+0x3a>
D:\CQ9008\sample_codes\Release_example_240606\puf_template\debug/../sdk/platform/drivers/src/lpuart_driver.c:2320
        p_lpuart_state->transmit_status = STATUS_SUCCESS;
    2276:	2300      	movs	r3, #0
    2278:	876b      	strh	r3, [r5, #58]	; 0x3a
    227a:	e7f4      	b.n	2266 <lpuart_stop_tx_dma+0x42>
    227c:	00006398 	.word	0x00006398
    2280:	2000030c 	.word	0x2000030c
    2284:	ff7fffff 	.word	0xff7fffff
    2288:	00030016 	.word	0x00030016
    228c:	fff7ffff 	.word	0xfff7ffff

00002290 <lpaurt_tx_complete_irq_handler>:
lpaurt_tx_complete_irq_handler():
D:\CQ9008\sample_codes\Release_example_240606\puf_template\debug/../sdk/platform/drivers/src/lpuart_driver.c:1606
{
    2290:	b510      	push	{r4, lr}
D:\CQ9008\sample_codes\Release_example_240606\puf_template\debug/../sdk/platform/drivers/src/lpuart_driver.c:1607
    lpuart_state_t *p_lpuart_state = (lpuart_state_t *)sp_lpuart_state_ptr[instance];
    2292:	0082      	lsls	r2, r0, #2
    2294:	4b0a      	ldr	r3, [pc, #40]	; (22c0 <lpaurt_tx_complete_irq_handler+0x30>)
    2296:	58d4      	ldr	r4, [r2, r3]
D:\CQ9008\sample_codes\Release_example_240606\puf_template\debug/../sdk/platform/drivers/src/lpuart_driver.c:1609
    if (p_lpuart_state->tx_size == 0U)
    2298:	6963      	ldr	r3, [r4, #20]
    229a:	2b00      	cmp	r3, #0
    229c:	d10c      	bne.n	22b8 <lpaurt_tx_complete_irq_handler+0x28>
D:\CQ9008\sample_codes\Release_example_240606\puf_template\debug/../sdk/platform/drivers/src/lpuart_driver.c:1611
        if (p_lpuart_state->transfer_type == LPUART_USING_INTERRUPTS)
    229e:	3334      	adds	r3, #52	; 0x34
    22a0:	5ce3      	ldrb	r3, [r4, r3]
    22a2:	2b01      	cmp	r3, #1
    22a4:	d009      	beq.n	22ba <lpaurt_tx_complete_irq_handler+0x2a>
D:\CQ9008\sample_codes\Release_example_240606\puf_template\debug/../sdk/platform/drivers/src/lpuart_driver.c:1619
            lpuart_stop_tx_dma(instance);
    22a6:	f7ff ffbd 	bl	2224 <lpuart_stop_tx_dma>
D:\CQ9008\sample_codes\Release_example_240606\puf_template\debug/../sdk/platform/drivers/src/lpuart_driver.c:1622
        if (p_lpuart_state->tx_callback != NULL)
    22aa:	6ae3      	ldr	r3, [r4, #44]	; 0x2c
    22ac:	2b00      	cmp	r3, #0
    22ae:	d003      	beq.n	22b8 <lpaurt_tx_complete_irq_handler+0x28>
D:\CQ9008\sample_codes\Release_example_240606\puf_template\debug/../sdk/platform/drivers/src/lpuart_driver.c:1624
            p_lpuart_state->tx_callback(
    22b0:	6b22      	ldr	r2, [r4, #48]	; 0x30
    22b2:	2102      	movs	r1, #2
    22b4:	0020      	movs	r0, r4
    22b6:	4798      	blx	r3
D:\CQ9008\sample_codes\Release_example_240606\puf_template\debug/../sdk/platform/drivers/src/lpuart_driver.c:1628
}
    22b8:	bd10      	pop	{r4, pc}
D:\CQ9008\sample_codes\Release_example_240606\puf_template\debug/../sdk/platform/drivers/src/lpuart_driver.c:1614
            lpuart_complete_send_data_using_int(instance);
    22ba:	f7ff ff7b 	bl	21b4 <lpuart_complete_send_data_using_int>
    22be:	e7f4      	b.n	22aa <lpaurt_tx_complete_irq_handler+0x1a>
    22c0:	2000030c 	.word	0x2000030c

000022c4 <lpuart_tx_dma_callback>:
lpuart_tx_dma_callback():
D:\CQ9008\sample_codes\Release_example_240606\puf_template\debug/../sdk/platform/drivers/src/lpuart_driver.c:1903
{
    22c4:	b570      	push	{r4, r5, r6, lr}
D:\CQ9008\sample_codes\Release_example_240606\puf_template\debug/../sdk/platform/drivers/src/lpuart_driver.c:1905
    lpuart_state_t *p_lpuart_state = (lpuart_state_t *)sp_lpuart_state_ptr[instance];
    22c6:	0083      	lsls	r3, r0, #2
    22c8:	4a18      	ldr	r2, [pc, #96]	; (232c <lpuart_tx_dma_callback+0x68>)
    22ca:	589c      	ldr	r4, [r3, r2]
D:\CQ9008\sample_codes\Release_example_240606\puf_template\debug/../sdk/platform/drivers/src/lpuart_driver.c:1906
    LPUART_t       *p_base         = sp_lpuart_base[instance];
    22cc:	4a18      	ldr	r2, [pc, #96]	; (2330 <lpuart_tx_dma_callback+0x6c>)
    22ce:	589d      	ldr	r5, [r3, r2]
D:\CQ9008\sample_codes\Release_example_240606\puf_template\debug/../sdk/platform/drivers/src/lpuart_driver.c:1909
    if (status == EDMA_CHN_ERROR)
    22d0:	2901      	cmp	r1, #1
    22d2:	d018      	beq.n	2306 <lpuart_tx_dma_callback+0x42>
D:\CQ9008\sample_codes\Release_example_240606\puf_template\debug/../sdk/platform/drivers/src/lpuart_driver.c:1925
        if (p_lpuart_state->tx_callback != NULL)
    22d4:	6ae3      	ldr	r3, [r4, #44]	; 0x2c
    22d6:	2b00      	cmp	r3, #0
    22d8:	d003      	beq.n	22e2 <lpuart_tx_dma_callback+0x1e>
D:\CQ9008\sample_codes\Release_example_240606\puf_template\debug/../sdk/platform/drivers/src/lpuart_driver.c:1929
            p_lpuart_state->tx_callback(
    22da:	6b22      	ldr	r2, [r4, #48]	; 0x30
    22dc:	2101      	movs	r1, #1
    22de:	0020      	movs	r0, r4
    22e0:	4798      	blx	r3
D:\CQ9008\sample_codes\Release_example_240606\puf_template\debug/../sdk/platform/drivers/src/lpuart_driver.c:1936
        if (p_lpuart_state->tx_size > 0U)
    22e2:	6963      	ldr	r3, [r4, #20]
    22e4:	2b00      	cmp	r3, #0
    22e6:	d01a      	beq.n	231e <lpuart_tx_dma_callback+0x5a>
D:\CQ9008\sample_codes\Release_example_240606\puf_template\debug/../sdk/platform/drivers/src/lpuart_driver.c:1940
            edma_set_src_addr(p_lpuart_state->tx_dma_channel, (uint32_t)(p_lpuart_state->txBuff));
    22e8:	2536      	movs	r5, #54	; 0x36
    22ea:	5d60      	ldrb	r0, [r4, r5]
    22ec:	68e1      	ldr	r1, [r4, #12]
    22ee:	f7ff fce9 	bl	1cc4 <edma_set_src_addr>
D:\CQ9008\sample_codes\Release_example_240606\puf_template\debug/../sdk/platform/drivers/src/lpuart_driver.c:1941
            edma_set_major_loop_iteration_count(p_lpuart_state->tx_dma_channel,
    22f2:	6961      	ldr	r1, [r4, #20]
    22f4:	5d60      	ldrb	r0, [r4, r5]
    22f6:	f7ff fd1d 	bl	1d34 <edma_set_major_loop_iteration_count>
D:\CQ9008\sample_codes\Release_example_240606\puf_template\debug/../sdk/platform/drivers/src/lpuart_driver.c:1945
            p_lpuart_state->tx_size = 0U;
    22fa:	2300      	movs	r3, #0
    22fc:	6163      	str	r3, [r4, #20]
D:\CQ9008\sample_codes\Release_example_240606\puf_template\debug/../sdk/platform/drivers/src/lpuart_driver.c:1948
            (void)edma_start_channel(p_lpuart_state->tx_dma_channel);
    22fe:	5d60      	ldrb	r0, [r4, r5]
    2300:	f7ff fca4 	bl	1c4c <edma_start_channel>
D:\CQ9008\sample_codes\Release_example_240606\puf_template\debug/../sdk/platform/drivers/src/lpuart_driver.c:1956
}
    2304:	bd70      	pop	{r4, r5, r6, pc}
D:\CQ9008\sample_codes\Release_example_240606\puf_template\debug/../sdk/platform/drivers/src/lpuart_driver.c:1912
        p_lpuart_state->transmit_status = STATUS_ERROR;
    2306:	2301      	movs	r3, #1
    2308:	8763      	strh	r3, [r4, #58]	; 0x3a
D:\CQ9008\sample_codes\Release_example_240606\puf_template\debug/../sdk/platform/drivers/src/lpuart_driver.c:1914
        lpuart_stop_tx_dma(instance);
    230a:	f7ff ff8b 	bl	2224 <lpuart_stop_tx_dma>
D:\CQ9008\sample_codes\Release_example_240606\puf_template\debug/../sdk/platform/drivers/src/lpuart_driver.c:1916
        if (p_lpuart_state->tx_callback != NULL)
    230e:	6ae3      	ldr	r3, [r4, #44]	; 0x2c
    2310:	2b00      	cmp	r3, #0
    2312:	d0f7      	beq.n	2304 <lpuart_tx_dma_callback+0x40>
D:\CQ9008\sample_codes\Release_example_240606\puf_template\debug/../sdk/platform/drivers/src/lpuart_driver.c:1918
            p_lpuart_state->tx_callback(
    2314:	6b22      	ldr	r2, [r4, #48]	; 0x30
    2316:	2103      	movs	r1, #3
    2318:	0020      	movs	r0, r4
    231a:	4798      	blx	r3
    231c:	e7f2      	b.n	2304 <lpuart_tx_dma_callback+0x40>
D:\CQ9008\sample_codes\Release_example_240606\puf_template\debug/../sdk/platform/drivers/src/lpuart_driver.c:1953
            lpuart_set_int_mode(p_base, LPUART_INT_TX_COMPLETE, true);
    231e:	2201      	movs	r2, #1
    2320:	4904      	ldr	r1, [pc, #16]	; (2334 <lpuart_tx_dma_callback+0x70>)
    2322:	0028      	movs	r0, r5
    2324:	f7ff fece 	bl	20c4 <lpuart_set_int_mode>
D:\CQ9008\sample_codes\Release_example_240606\puf_template\debug/../sdk/platform/drivers/src/lpuart_driver.c:1956
}
    2328:	e7ec      	b.n	2304 <lpuart_tx_dma_callback+0x40>
    232a:	46c0      	nop			; (mov r8, r8)
    232c:	2000030c 	.word	0x2000030c
    2330:	00006398 	.word	0x00006398
    2334:	00030016 	.word	0x00030016

00002338 <lpuart_get_int_mode>:
lpuart_get_int_mode():
D:\CQ9008\sample_codes\Release_example_240606\puf_template\debug/../sdk/platform/drivers/src/lpuart_driver.c:197
    uint32_t reg       = (uint32_t)(int_src) >> LPUART_SHIFT;
    2338:	0c0b      	lsrs	r3, r1, #16
D:\CQ9008\sample_codes\Release_example_240606\puf_template\debug/../sdk/platform/drivers/src/lpuart_driver.c:200
    switch (reg)
    233a:	2b03      	cmp	r3, #3
    233c:	d00c      	beq.n	2358 <lpuart_get_int_mode+0x20>
    233e:	2b07      	cmp	r3, #7
    2340:	d011      	beq.n	2366 <lpuart_get_int_mode+0x2e>
    2342:	2b01      	cmp	r3, #1
    2344:	d001      	beq.n	234a <lpuart_get_int_mode+0x12>
    2346:	2000      	movs	r0, #0
D:\CQ9008\sample_codes\Release_example_240606\puf_template\debug/../sdk/platform/drivers/src/lpuart_driver.c:223
}
    2348:	4770      	bx	lr
D:\CQ9008\sample_codes\Release_example_240606\puf_template\debug/../sdk/platform/drivers/src/lpuart_driver.c:204
            b_ret_val = (((p_base->BAUD >> (uint16_t)(int_src)) & 1U) > 0U);
    234a:	6903      	ldr	r3, [r0, #16]
    234c:	0409      	lsls	r1, r1, #16
    234e:	0c09      	lsrs	r1, r1, #16
    2350:	40cb      	lsrs	r3, r1
    2352:	2001      	movs	r0, #1
    2354:	4018      	ands	r0, r3
D:\CQ9008\sample_codes\Release_example_240606\puf_template\debug/../sdk/platform/drivers/src/lpuart_driver.c:206
        break;
    2356:	e7f7      	b.n	2348 <lpuart_get_int_mode+0x10>
D:\CQ9008\sample_codes\Release_example_240606\puf_template\debug/../sdk/platform/drivers/src/lpuart_driver.c:209
            b_ret_val = (((p_base->CTRL >> (uint16_t)(int_src)) & 1U) > 0U);
    2358:	6983      	ldr	r3, [r0, #24]
    235a:	0409      	lsls	r1, r1, #16
    235c:	0c09      	lsrs	r1, r1, #16
    235e:	40cb      	lsrs	r3, r1
    2360:	2001      	movs	r0, #1
    2362:	4018      	ands	r0, r3
D:\CQ9008\sample_codes\Release_example_240606\puf_template\debug/../sdk/platform/drivers/src/lpuart_driver.c:211
        break;
    2364:	e7f0      	b.n	2348 <lpuart_get_int_mode+0x10>
D:\CQ9008\sample_codes\Release_example_240606\puf_template\debug/../sdk/platform/drivers/src/lpuart_driver.c:214
            b_ret_val = (((p_base->FIFO >> (uint16_t)(int_src)) & 1U) > 0U);
    2366:	6a83      	ldr	r3, [r0, #40]	; 0x28
    2368:	0409      	lsls	r1, r1, #16
    236a:	0c09      	lsrs	r1, r1, #16
    236c:	40cb      	lsrs	r3, r1
    236e:	2001      	movs	r0, #1
    2370:	4018      	ands	r0, r3
D:\CQ9008\sample_codes\Release_example_240606\puf_template\debug/../sdk/platform/drivers/src/lpuart_driver.c:216
        break;
    2372:	e7e9      	b.n	2348 <lpuart_get_int_mode+0x10>

00002374 <lpuart_put_char9>:
lpuart_put_char9():
D:\CQ9008\sample_codes\Release_example_240606\puf_template\debug/../sdk/platform/drivers/src/lpuart_driver.c:232
{
    2374:	b510      	push	{r4, lr}
D:\CQ9008\sample_codes\Release_example_240606\puf_template\debug/../sdk/platform/drivers/src/lpuart_driver.c:236
    ninth_data_bit = (uint8_t)((data >> 8U) & 0x1U);
    2376:	0a0b      	lsrs	r3, r1, #8
    2378:	2201      	movs	r2, #1
    237a:	401a      	ands	r2, r3
D:\CQ9008\sample_codes\Release_example_240606\puf_template\debug/../sdk/platform/drivers/src/lpuart_driver.c:239
    p_base->CTRL = (p_base->CTRL & ~LPUART_CTRL_R9T8_MASK) |
    237c:	6983      	ldr	r3, [r0, #24]
    237e:	4c04      	ldr	r4, [pc, #16]	; (2390 <lpuart_put_char9+0x1c>)
    2380:	4023      	ands	r3, r4
D:\CQ9008\sample_codes\Release_example_240606\puf_template\debug/../sdk/platform/drivers/src/lpuart_driver.c:240
                   ((uint32_t)(ninth_data_bit) << LPUART_CTRL_R9T8_SHIFT);
    2382:	0792      	lsls	r2, r2, #30
D:\CQ9008\sample_codes\Release_example_240606\puf_template\debug/../sdk/platform/drivers/src/lpuart_driver.c:239
    p_base->CTRL = (p_base->CTRL & ~LPUART_CTRL_R9T8_MASK) |
    2384:	4313      	orrs	r3, r2
    2386:	6183      	str	r3, [r0, #24]
D:\CQ9008\sample_codes\Release_example_240606\puf_template\debug/../sdk/platform/drivers/src/lpuart_driver.c:243
    p_data_reg_bytes[0] = (uint8_t)data;
    2388:	b2c9      	uxtb	r1, r1
    238a:	7701      	strb	r1, [r0, #28]
D:\CQ9008\sample_codes\Release_example_240606\puf_template\debug/../sdk/platform/drivers/src/lpuart_driver.c:244
}
    238c:	bd10      	pop	{r4, pc}
    238e:	46c0      	nop			; (mov r8, r8)
    2390:	bfffffff 	.word	0xbfffffff

00002394 <lpuart_put_char10>:
lpuart_put_char10():
D:\CQ9008\sample_codes\Release_example_240606\puf_template\debug/../sdk/platform/drivers/src/lpuart_driver.c:253
{
    2394:	b530      	push	{r4, r5, lr}
D:\CQ9008\sample_codes\Release_example_240606\puf_template\debug/../sdk/platform/drivers/src/lpuart_driver.c:258
    ninth_data_bit = (uint8_t)((data >> 8U) & 0x1U);
    2396:	0a0c      	lsrs	r4, r1, #8
    2398:	2201      	movs	r2, #1
    239a:	4014      	ands	r4, r2
D:\CQ9008\sample_codes\Release_example_240606\puf_template\debug/../sdk/platform/drivers/src/lpuart_driver.c:259
    tenth_data_bit = (uint8_t)((data >> 9U) & 0x1U);
    239c:	0a4b      	lsrs	r3, r1, #9
    239e:	401a      	ands	r2, r3
D:\CQ9008\sample_codes\Release_example_240606\puf_template\debug/../sdk/platform/drivers/src/lpuart_driver.c:262
    reg_val = p_base->CTRL;
    23a0:	6983      	ldr	r3, [r0, #24]
D:\CQ9008\sample_codes\Release_example_240606\puf_template\debug/../sdk/platform/drivers/src/lpuart_driver.c:264
        (reg_val & ~LPUART_CTRL_R9T8_MASK) | ((uint32_t)ninth_data_bit << LPUART_CTRL_R9T8_SHIFT);
    23a2:	4d06      	ldr	r5, [pc, #24]	; (23bc <lpuart_put_char10+0x28>)
    23a4:	402b      	ands	r3, r5
    23a6:	07a4      	lsls	r4, r4, #30
D:\CQ9008\sample_codes\Release_example_240606\puf_template\debug/../sdk/platform/drivers/src/lpuart_driver.c:263
    reg_val =
    23a8:	4323      	orrs	r3, r4
D:\CQ9008\sample_codes\Release_example_240606\puf_template\debug/../sdk/platform/drivers/src/lpuart_driver.c:266
        (reg_val & ~LPUART_CTRL_R8T9_MASK) | ((uint32_t)tenth_data_bit << LPUART_CTRL_R8T9_SHIFT);
    23aa:	005b      	lsls	r3, r3, #1
    23ac:	085b      	lsrs	r3, r3, #1
    23ae:	07d2      	lsls	r2, r2, #31
D:\CQ9008\sample_codes\Release_example_240606\puf_template\debug/../sdk/platform/drivers/src/lpuart_driver.c:265
    reg_val =
    23b0:	4313      	orrs	r3, r2
D:\CQ9008\sample_codes\Release_example_240606\puf_template\debug/../sdk/platform/drivers/src/lpuart_driver.c:267
    p_base->CTRL = reg_val;
    23b2:	6183      	str	r3, [r0, #24]
D:\CQ9008\sample_codes\Release_example_240606\puf_template\debug/../sdk/platform/drivers/src/lpuart_driver.c:270
    p_data_reg_bytes[0] = (uint8_t)data;
    23b4:	b2c9      	uxtb	r1, r1
    23b6:	7701      	strb	r1, [r0, #28]
D:\CQ9008\sample_codes\Release_example_240606\puf_template\debug/../sdk/platform/drivers/src/lpuart_driver.c:271
}
    23b8:	bd30      	pop	{r4, r5, pc}
    23ba:	46c0      	nop			; (mov r8, r8)
    23bc:	bfffffff 	.word	0xbfffffff

000023c0 <lpuart_put_data>:
lpuart_put_data():
D:\CQ9008\sample_codes\Release_example_240606\puf_template\debug/../sdk/platform/drivers/src/lpuart_driver.c:2205
{
    23c0:	b510      	push	{r4, lr}
D:\CQ9008\sample_codes\Release_example_240606\puf_template\debug/../sdk/platform/drivers/src/lpuart_driver.c:2206
    const lpuart_state_t *p_lpuart_state = (lpuart_state_t *)sp_lpuart_state_ptr[instance];
    23c2:	0080      	lsls	r0, r0, #2
    23c4:	4b0d      	ldr	r3, [pc, #52]	; (23fc <lpuart_put_data+0x3c>)
    23c6:	58c3      	ldr	r3, [r0, r3]
D:\CQ9008\sample_codes\Release_example_240606\puf_template\debug/../sdk/platform/drivers/src/lpuart_driver.c:2207
    LPUART_t             *p_base         = sp_lpuart_base[instance];
    23c8:	4a0d      	ldr	r2, [pc, #52]	; (2400 <lpuart_put_data+0x40>)
    23ca:	5880      	ldr	r0, [r0, r2]
D:\CQ9008\sample_codes\Release_example_240606\puf_template\debug/../sdk/platform/drivers/src/lpuart_driver.c:2209
    const uint8_t        *p_tx_buff = p_lpuart_state->txBuff;
    23cc:	68da      	ldr	r2, [r3, #12]
D:\CQ9008\sample_codes\Release_example_240606\puf_template\debug/../sdk/platform/drivers/src/lpuart_driver.c:2211
    if (p_lpuart_state->bit_count_per_char == LPUART_8_BITS_PER_CHAR)
    23ce:	2120      	movs	r1, #32
    23d0:	5c5b      	ldrb	r3, [r3, r1]
    23d2:	2b00      	cmp	r3, #0
    23d4:	d102      	bne.n	23dc <lpuart_put_data+0x1c>
D:\CQ9008\sample_codes\Release_example_240606\puf_template\debug/../sdk/platform/drivers/src/lpuart_driver.c:2214
        lpuart_put_char(p_base, *p_tx_buff);
    23d6:	7813      	ldrb	r3, [r2, #0]
lpuart_put_char():
D:\CQ9008\sample_codes\Release_example_240606\puf_template\debug/../sdk/platform/drivers/inc/lpuart_access.h:227
 */
static inline void
lpuart_put_char(LPUART_t *p_base, uint8_t data)
{
    volatile uint8_t *dataRegBytes = (volatile uint8_t *)(&(p_base->DATA));
    dataRegBytes[0]                = data;
    23d8:	7703      	strb	r3, [r0, #28]
lpuart_put_data():
D:\CQ9008\sample_codes\Release_example_240606\puf_template\debug/../sdk/platform/drivers/src/lpuart_driver.c:2236
}
    23da:	bd10      	pop	{r4, pc}
D:\CQ9008\sample_codes\Release_example_240606\puf_template\debug/../sdk/platform/drivers/src/lpuart_driver.c:2216
    else if (p_lpuart_state->bit_count_per_char == LPUART_9_BITS_PER_CHAR)
    23dc:	2b01      	cmp	r3, #1
    23de:	d006      	beq.n	23ee <lpuart_put_data+0x2e>
D:\CQ9008\sample_codes\Release_example_240606\puf_template\debug/../sdk/platform/drivers/src/lpuart_driver.c:2229
        data = (uint16_t)(*p_tx_buff);
    23e0:	7813      	ldrb	r3, [r2, #0]
D:\CQ9008\sample_codes\Release_example_240606\puf_template\debug/../sdk/platform/drivers/src/lpuart_driver.c:2231
        data |= (uint16_t)(((uint16_t)(*p_tx_buff)) << 8U);
    23e2:	7851      	ldrb	r1, [r2, #1]
    23e4:	0209      	lsls	r1, r1, #8
    23e6:	4319      	orrs	r1, r3
D:\CQ9008\sample_codes\Release_example_240606\puf_template\debug/../sdk/platform/drivers/src/lpuart_driver.c:2234
        lpuart_put_char10(p_base, data);
    23e8:	f7ff ffd4 	bl	2394 <lpuart_put_char10>
D:\CQ9008\sample_codes\Release_example_240606\puf_template\debug/../sdk/platform/drivers/src/lpuart_driver.c:2236
}
    23ec:	e7f5      	b.n	23da <lpuart_put_data+0x1a>
D:\CQ9008\sample_codes\Release_example_240606\puf_template\debug/../sdk/platform/drivers/src/lpuart_driver.c:2219
        data = (uint16_t)(*p_tx_buff);
    23ee:	7813      	ldrb	r3, [r2, #0]
D:\CQ9008\sample_codes\Release_example_240606\puf_template\debug/../sdk/platform/drivers/src/lpuart_driver.c:2221
        data |= (uint16_t)(((uint16_t)(*p_tx_buff)) << 8U);
    23f0:	7851      	ldrb	r1, [r2, #1]
    23f2:	0209      	lsls	r1, r1, #8
    23f4:	4319      	orrs	r1, r3
D:\CQ9008\sample_codes\Release_example_240606\puf_template\debug/../sdk/platform/drivers/src/lpuart_driver.c:2224
        lpuart_put_char9(p_base, data);
    23f6:	f7ff ffbd 	bl	2374 <lpuart_put_char9>
    23fa:	e7ee      	b.n	23da <lpuart_put_data+0x1a>
    23fc:	2000030c 	.word	0x2000030c
    2400:	00006398 	.word	0x00006398

00002404 <lpuart_tx_empty_irq_handler>:
lpuart_tx_empty_irq_handler():
D:\CQ9008\sample_codes\Release_example_240606\puf_template\debug/../sdk/platform/drivers/src/lpuart_driver.c:1553
{
    2404:	b570      	push	{r4, r5, r6, lr}
D:\CQ9008\sample_codes\Release_example_240606\puf_template\debug/../sdk/platform/drivers/src/lpuart_driver.c:1554
    lpuart_state_t *p_lpuart_state = (lpuart_state_t *)sp_lpuart_state_ptr[instance];
    2406:	0083      	lsls	r3, r0, #2
    2408:	4a19      	ldr	r2, [pc, #100]	; (2470 <lpuart_tx_empty_irq_handler+0x6c>)
    240a:	589c      	ldr	r4, [r3, r2]
D:\CQ9008\sample_codes\Release_example_240606\puf_template\debug/../sdk/platform/drivers/src/lpuart_driver.c:1555
    LPUART_t       *p_base         = sp_lpuart_base[instance];
    240c:	4a19      	ldr	r2, [pc, #100]	; (2474 <lpuart_tx_empty_irq_handler+0x70>)
    240e:	589d      	ldr	r5, [r3, r2]
D:\CQ9008\sample_codes\Release_example_240606\puf_template\debug/../sdk/platform/drivers/src/lpuart_driver.c:1558
    if (p_lpuart_state->tx_size > 0U)
    2410:	6963      	ldr	r3, [r4, #20]
    2412:	2b00      	cmp	r3, #0
    2414:	d100      	bne.n	2418 <lpuart_tx_empty_irq_handler+0x14>
D:\CQ9008\sample_codes\Release_example_240606\puf_template\debug/../sdk/platform/drivers/src/lpuart_driver.c:1595
}
    2416:	bd70      	pop	{r4, r5, r6, pc}
D:\CQ9008\sample_codes\Release_example_240606\puf_template\debug/../sdk/platform/drivers/src/lpuart_driver.c:1561
        lpuart_put_data(instance);
    2418:	f7ff ffd2 	bl	23c0 <lpuart_put_data>
D:\CQ9008\sample_codes\Release_example_240606\puf_template\debug/../sdk/platform/drivers/src/lpuart_driver.c:1564
        if (p_lpuart_state->bit_count_per_char == LPUART_8_BITS_PER_CHAR)
    241c:	2320      	movs	r3, #32
    241e:	5ce3      	ldrb	r3, [r4, r3]
    2420:	2b00      	cmp	r3, #0
    2422:	d11d      	bne.n	2460 <lpuart_tx_empty_irq_handler+0x5c>
D:\CQ9008\sample_codes\Release_example_240606\puf_template\debug/../sdk/platform/drivers/src/lpuart_driver.c:1566
            ++p_lpuart_state->txBuff;
    2424:	68e3      	ldr	r3, [r4, #12]
    2426:	3301      	adds	r3, #1
    2428:	60e3      	str	r3, [r4, #12]
D:\CQ9008\sample_codes\Release_example_240606\puf_template\debug/../sdk/platform/drivers/src/lpuart_driver.c:1567
            --p_lpuart_state->tx_size;
    242a:	6963      	ldr	r3, [r4, #20]
    242c:	3b01      	subs	r3, #1
    242e:	6163      	str	r3, [r4, #20]
D:\CQ9008\sample_codes\Release_example_240606\puf_template\debug/../sdk/platform/drivers/src/lpuart_driver.c:1576
        if (p_lpuart_state->tx_size == 0U)
    2430:	6963      	ldr	r3, [r4, #20]
    2432:	2b00      	cmp	r3, #0
    2434:	d1ef      	bne.n	2416 <lpuart_tx_empty_irq_handler+0x12>
D:\CQ9008\sample_codes\Release_example_240606\puf_template\debug/../sdk/platform/drivers/src/lpuart_driver.c:1580
            if (p_lpuart_state->tx_callback != NULL)
    2436:	6ae3      	ldr	r3, [r4, #44]	; 0x2c
    2438:	2b00      	cmp	r3, #0
    243a:	d003      	beq.n	2444 <lpuart_tx_empty_irq_handler+0x40>
D:\CQ9008\sample_codes\Release_example_240606\puf_template\debug/../sdk/platform/drivers/src/lpuart_driver.c:1582
                p_lpuart_state->tx_callback(
    243c:	6b22      	ldr	r2, [r4, #48]	; 0x30
    243e:	2101      	movs	r1, #1
    2440:	0020      	movs	r0, r4
    2442:	4798      	blx	r3
D:\CQ9008\sample_codes\Release_example_240606\puf_template\debug/../sdk/platform/drivers/src/lpuart_driver.c:1588
            if (p_lpuart_state->tx_size == 0U)
    2444:	6963      	ldr	r3, [r4, #20]
    2446:	2b00      	cmp	r3, #0
    2448:	d1e5      	bne.n	2416 <lpuart_tx_empty_irq_handler+0x12>
D:\CQ9008\sample_codes\Release_example_240606\puf_template\debug/../sdk/platform/drivers/src/lpuart_driver.c:1590
                lpuart_set_int_mode(p_base, LPUART_INT_TX_DATA_REG_EMPTY, false);
    244a:	2200      	movs	r2, #0
    244c:	490a      	ldr	r1, [pc, #40]	; (2478 <lpuart_tx_empty_irq_handler+0x74>)
    244e:	0028      	movs	r0, r5
    2450:	f7ff fe38 	bl	20c4 <lpuart_set_int_mode>
D:\CQ9008\sample_codes\Release_example_240606\puf_template\debug/../sdk/platform/drivers/src/lpuart_driver.c:1591
                lpuart_set_int_mode(p_base, LPUART_INT_TX_COMPLETE, true);
    2454:	2201      	movs	r2, #1
    2456:	4909      	ldr	r1, [pc, #36]	; (247c <lpuart_tx_empty_irq_handler+0x78>)
    2458:	0028      	movs	r0, r5
    245a:	f7ff fe33 	bl	20c4 <lpuart_set_int_mode>
D:\CQ9008\sample_codes\Release_example_240606\puf_template\debug/../sdk/platform/drivers/src/lpuart_driver.c:1595
}
    245e:	e7da      	b.n	2416 <lpuart_tx_empty_irq_handler+0x12>
D:\CQ9008\sample_codes\Release_example_240606\puf_template\debug/../sdk/platform/drivers/src/lpuart_driver.c:1571
            p_lpuart_state->txBuff = &p_lpuart_state->txBuff[2];
    2460:	68e3      	ldr	r3, [r4, #12]
    2462:	3302      	adds	r3, #2
    2464:	60e3      	str	r3, [r4, #12]
D:\CQ9008\sample_codes\Release_example_240606\puf_template\debug/../sdk/platform/drivers/src/lpuart_driver.c:1572
            p_lpuart_state->tx_size -= 2U;
    2466:	6963      	ldr	r3, [r4, #20]
    2468:	3b02      	subs	r3, #2
    246a:	6163      	str	r3, [r4, #20]
    246c:	e7e0      	b.n	2430 <lpuart_tx_empty_irq_handler+0x2c>
    246e:	46c0      	nop			; (mov r8, r8)
    2470:	2000030c 	.word	0x2000030c
    2474:	00006398 	.word	0x00006398
    2478:	00030017 	.word	0x00030017
    247c:	00030016 	.word	0x00030016

00002480 <lpuart_get_char9>:
DevAssert():
D:\CQ9008\sample_codes\Release_example_240606\puf_template\debug/../sdk/platform/devices/devassert.h:31
    if (x)
    2480:	2900      	cmp	r1, #0
    2482:	d101      	bne.n	2488 <lpuart_get_char9+0x8>
D:\CQ9008\sample_codes\Release_example_240606\puf_template\debug/../sdk/platform/devices/devassert.h:36
        BKPT_ASM;
    2484:	be00      	bkpt	0x0000
D:\CQ9008\sample_codes\Release_example_240606\puf_template\debug/../sdk/platform/devices/devassert.h:37
        for (;;)
    2486:	e7fe      	b.n	2486 <lpuart_get_char9+0x6>
lpuart_get_char9():
D:\CQ9008\sample_codes\Release_example_240606\puf_template\debug/../sdk/platform/drivers/src/lpuart_driver.c:284
    *p_read_data = (uint16_t)(((p_base->CTRL >> LPUART_CTRL_R8T9_SHIFT) & 1U) << 8);
    2488:	6983      	ldr	r3, [r0, #24]
    248a:	0fdb      	lsrs	r3, r3, #31
    248c:	021b      	lsls	r3, r3, #8
    248e:	800b      	strh	r3, [r1, #0]
D:\CQ9008\sample_codes\Release_example_240606\puf_template\debug/../sdk/platform/drivers/src/lpuart_driver.c:287
    *p_read_data |= (uint8_t)p_base->DATA;
    2490:	69c2      	ldr	r2, [r0, #28]
    2492:	b2d2      	uxtb	r2, r2
    2494:	4313      	orrs	r3, r2
    2496:	800b      	strh	r3, [r1, #0]
D:\CQ9008\sample_codes\Release_example_240606\puf_template\debug/../sdk/platform/drivers/src/lpuart_driver.c:288
}
    2498:	4770      	bx	lr

0000249a <lpuart_get_char10>:
DevAssert():
D:\CQ9008\sample_codes\Release_example_240606\puf_template\debug/../sdk/platform/devices/devassert.h:31
    if (x)
    249a:	2900      	cmp	r1, #0
    249c:	d101      	bne.n	24a2 <lpuart_get_char10+0x8>
D:\CQ9008\sample_codes\Release_example_240606\puf_template\debug/../sdk/platform/devices/devassert.h:36
        BKPT_ASM;
    249e:	be00      	bkpt	0x0000
D:\CQ9008\sample_codes\Release_example_240606\puf_template\debug/../sdk/platform/devices/devassert.h:37
        for (;;)
    24a0:	e7fe      	b.n	24a0 <lpuart_get_char10+0x6>
lpuart_get_char10():
D:\CQ9008\sample_codes\Release_example_240606\puf_template\debug/../sdk/platform/drivers/src/lpuart_driver.c:301
    *p_read_data = (uint16_t)(((p_base->CTRL >> LPUART_CTRL_R9T8_SHIFT) & 1U) << 9);
    24a2:	6983      	ldr	r3, [r0, #24]
    24a4:	0f9b      	lsrs	r3, r3, #30
    24a6:	025b      	lsls	r3, r3, #9
    24a8:	2280      	movs	r2, #128	; 0x80
    24aa:	0092      	lsls	r2, r2, #2
    24ac:	4013      	ands	r3, r2
    24ae:	800b      	strh	r3, [r1, #0]
D:\CQ9008\sample_codes\Release_example_240606\puf_template\debug/../sdk/platform/drivers/src/lpuart_driver.c:303
    *p_read_data |= (uint16_t)(((p_base->CTRL >> LPUART_CTRL_R8T9_SHIFT) & 1U) << 8);
    24b0:	6982      	ldr	r2, [r0, #24]
    24b2:	0fd2      	lsrs	r2, r2, #31
    24b4:	0212      	lsls	r2, r2, #8
    24b6:	4313      	orrs	r3, r2
    24b8:	800b      	strh	r3, [r1, #0]
D:\CQ9008\sample_codes\Release_example_240606\puf_template\debug/../sdk/platform/drivers/src/lpuart_driver.c:306
    *p_read_data |= (uint8_t)p_base->DATA;
    24ba:	69c2      	ldr	r2, [r0, #28]
    24bc:	b2d2      	uxtb	r2, r2
    24be:	4313      	orrs	r3, r2
    24c0:	800b      	strh	r3, [r1, #0]
D:\CQ9008\sample_codes\Release_example_240606\puf_template\debug/../sdk/platform/drivers/src/lpuart_driver.c:307
}
    24c2:	4770      	bx	lr

000024c4 <lpuart_get_data>:
lpuart_get_data():
D:\CQ9008\sample_codes\Release_example_240606\puf_template\debug/../sdk/platform/drivers/src/lpuart_driver.c:2248
{
    24c4:	b510      	push	{r4, lr}
    24c6:	b082      	sub	sp, #8
D:\CQ9008\sample_codes\Release_example_240606\puf_template\debug/../sdk/platform/drivers/src/lpuart_driver.c:2249
    const lpuart_state_t *p_lpuart_state = (lpuart_state_t *)sp_lpuart_state_ptr[instance];
    24c8:	0080      	lsls	r0, r0, #2
    24ca:	4b15      	ldr	r3, [pc, #84]	; (2520 <lpuart_get_data+0x5c>)
    24cc:	58c3      	ldr	r3, [r0, r3]
D:\CQ9008\sample_codes\Release_example_240606\puf_template\debug/../sdk/platform/drivers/src/lpuart_driver.c:2250
    const LPUART_t       *p_base         = sp_lpuart_base[instance];
    24ce:	4a15      	ldr	r2, [pc, #84]	; (2524 <lpuart_get_data+0x60>)
    24d0:	5880      	ldr	r0, [r0, r2]
D:\CQ9008\sample_codes\Release_example_240606\puf_template\debug/../sdk/platform/drivers/src/lpuart_driver.c:2252
    uint8_t              *p_rx_buff = p_lpuart_state->rxBuff;
    24d2:	691c      	ldr	r4, [r3, #16]
D:\CQ9008\sample_codes\Release_example_240606\puf_template\debug/../sdk/platform/drivers/src/lpuart_driver.c:2254
    if (p_lpuart_state->bit_count_per_char == LPUART_8_BITS_PER_CHAR)
    24d4:	2220      	movs	r2, #32
    24d6:	5c9b      	ldrb	r3, [r3, r2]
    24d8:	2b00      	cmp	r3, #0
    24da:	d106      	bne.n	24ea <lpuart_get_data+0x26>
DevAssert():
D:\CQ9008\sample_codes\Release_example_240606\puf_template\debug/../sdk/platform/devices/devassert.h:31
    if (x)
    24dc:	2c00      	cmp	r4, #0
    24de:	d101      	bne.n	24e4 <lpuart_get_data+0x20>
D:\CQ9008\sample_codes\Release_example_240606\puf_template\debug/../sdk/platform/devices/devassert.h:36
        BKPT_ASM;
    24e0:	be00      	bkpt	0x0000
D:\CQ9008\sample_codes\Release_example_240606\puf_template\debug/../sdk/platform/devices/devassert.h:37
        for (;;)
    24e2:	e7fe      	b.n	24e2 <lpuart_get_data+0x1e>
lpuart_get_char():
D:\CQ9008\sample_codes\Release_example_240606\puf_template\debug/../sdk/platform/drivers/inc/lpuart_access.h:242
 */
static inline void
lpuart_get_char(const LPUART_t *p_base, uint8_t *p_read_data)
{
    DEV_ASSERT(p_read_data != NULL);
    *p_read_data = (uint8_t)p_base->DATA;
    24e4:	69c3      	ldr	r3, [r0, #28]
    24e6:	7023      	strb	r3, [r4, #0]
D:\CQ9008\sample_codes\Release_example_240606\puf_template\debug/../sdk/platform/drivers/inc/lpuart_access.h:243
}
    24e8:	e00c      	b.n	2504 <lpuart_get_data+0x40>
lpuart_get_data():
D:\CQ9008\sample_codes\Release_example_240606\puf_template\debug/../sdk/platform/drivers/src/lpuart_driver.c:2259
    else if (p_lpuart_state->bit_count_per_char == LPUART_9_BITS_PER_CHAR)
    24ea:	2b01      	cmp	r3, #1
    24ec:	d00c      	beq.n	2508 <lpuart_get_data+0x44>
D:\CQ9008\sample_codes\Release_example_240606\puf_template\debug/../sdk/platform/drivers/src/lpuart_driver.c:2273
        lpuart_get_char10(p_base, &data);
    24ee:	466b      	mov	r3, sp
    24f0:	1d99      	adds	r1, r3, #6
    24f2:	f7ff ffd2 	bl	249a <lpuart_get_char10>
D:\CQ9008\sample_codes\Release_example_240606\puf_template\debug/../sdk/platform/drivers/src/lpuart_driver.c:2276
        *p_rx_buff = (uint8_t)(data & 0xFFU);
    24f6:	466b      	mov	r3, sp
    24f8:	799b      	ldrb	r3, [r3, #6]
    24fa:	7023      	strb	r3, [r4, #0]
D:\CQ9008\sample_codes\Release_example_240606\puf_template\debug/../sdk/platform/drivers/src/lpuart_driver.c:2280
        *p_rx_buff = (uint8_t)(data >> 8U);
    24fc:	466b      	mov	r3, sp
    24fe:	88db      	ldrh	r3, [r3, #6]
    2500:	0a1b      	lsrs	r3, r3, #8
    2502:	7063      	strb	r3, [r4, #1]
D:\CQ9008\sample_codes\Release_example_240606\puf_template\debug/../sdk/platform/drivers/src/lpuart_driver.c:2282
}
    2504:	b002      	add	sp, #8
    2506:	bd10      	pop	{r4, pc}
D:\CQ9008\sample_codes\Release_example_240606\puf_template\debug/../sdk/platform/drivers/src/lpuart_driver.c:2262
        lpuart_get_char9(p_base, &data);
    2508:	466b      	mov	r3, sp
    250a:	1d99      	adds	r1, r3, #6
    250c:	f7ff ffb8 	bl	2480 <lpuart_get_char9>
D:\CQ9008\sample_codes\Release_example_240606\puf_template\debug/../sdk/platform/drivers/src/lpuart_driver.c:2265
        *p_rx_buff = (uint8_t)(data & 0xFFU);
    2510:	466b      	mov	r3, sp
    2512:	799b      	ldrb	r3, [r3, #6]
    2514:	7023      	strb	r3, [r4, #0]
D:\CQ9008\sample_codes\Release_example_240606\puf_template\debug/../sdk/platform/drivers/src/lpuart_driver.c:2268
        *p_rx_buff = (uint8_t)(data >> 8U);
    2516:	466b      	mov	r3, sp
    2518:	88db      	ldrh	r3, [r3, #6]
    251a:	0a1b      	lsrs	r3, r3, #8
    251c:	7063      	strb	r3, [r4, #1]
    251e:	e7f1      	b.n	2504 <lpuart_get_data+0x40>
    2520:	2000030c 	.word	0x2000030c
    2524:	00006398 	.word	0x00006398

00002528 <lpuart_get_status_flag>:
lpuart_get_status_flag():
D:\CQ9008\sample_codes\Release_example_240606\puf_template\debug/../sdk/platform/drivers/src/lpuart_driver.c:343
    uint32_t reg     = (uint32_t)(status_flag) >> LPUART_SHIFT;
    2528:	0c0b      	lsrs	r3, r1, #16
D:\CQ9008\sample_codes\Release_example_240606\puf_template\debug/../sdk/platform/drivers/src/lpuart_driver.c:346
    switch (reg)
    252a:	2b04      	cmp	r3, #4
    252c:	d00c      	beq.n	2548 <lpuart_get_status_flag+0x20>
    252e:	2b07      	cmp	r3, #7
    2530:	d011      	beq.n	2556 <lpuart_get_status_flag+0x2e>
    2532:	2b02      	cmp	r3, #2
    2534:	d001      	beq.n	253a <lpuart_get_status_flag+0x12>
    2536:	2000      	movs	r0, #0
D:\CQ9008\sample_codes\Release_example_240606\puf_template\debug/../sdk/platform/drivers/src/lpuart_driver.c:370
}
    2538:	4770      	bx	lr
D:\CQ9008\sample_codes\Release_example_240606\puf_template\debug/../sdk/platform/drivers/src/lpuart_driver.c:350
            ret_val = (((p_base->STAT >> (uint16_t)(status_flag)) & 1U) > 0U);
    253a:	6943      	ldr	r3, [r0, #20]
    253c:	0409      	lsls	r1, r1, #16
    253e:	0c09      	lsrs	r1, r1, #16
    2540:	40cb      	lsrs	r3, r1
    2542:	2001      	movs	r0, #1
    2544:	4018      	ands	r0, r3
D:\CQ9008\sample_codes\Release_example_240606\puf_template\debug/../sdk/platform/drivers/src/lpuart_driver.c:352
        break;
    2546:	e7f7      	b.n	2538 <lpuart_get_status_flag+0x10>
D:\CQ9008\sample_codes\Release_example_240606\puf_template\debug/../sdk/platform/drivers/src/lpuart_driver.c:355
            ret_val = (((p_base->DATA >> (uint16_t)(status_flag)) & 1U) > 0U);
    2548:	69c3      	ldr	r3, [r0, #28]
    254a:	0409      	lsls	r1, r1, #16
    254c:	0c09      	lsrs	r1, r1, #16
    254e:	40cb      	lsrs	r3, r1
    2550:	2001      	movs	r0, #1
    2552:	4018      	ands	r0, r3
D:\CQ9008\sample_codes\Release_example_240606\puf_template\debug/../sdk/platform/drivers/src/lpuart_driver.c:357
        break;
    2554:	e7f0      	b.n	2538 <lpuart_get_status_flag+0x10>
D:\CQ9008\sample_codes\Release_example_240606\puf_template\debug/../sdk/platform/drivers/src/lpuart_driver.c:360
            ret_val = (((p_base->FIFO >> (uint16_t)(status_flag)) & 1U) > 0U);
    2556:	6a83      	ldr	r3, [r0, #40]	; 0x28
    2558:	0409      	lsls	r1, r1, #16
    255a:	0c09      	lsrs	r1, r1, #16
    255c:	40cb      	lsrs	r3, r1
    255e:	2001      	movs	r0, #1
    2560:	4018      	ands	r0, r3
D:\CQ9008\sample_codes\Release_example_240606\puf_template\debug/../sdk/platform/drivers/src/lpuart_driver.c:362
        break;
    2562:	e7e9      	b.n	2538 <lpuart_get_status_flag+0x10>

00002564 <lpuart_set_error_interrupts>:
lpuart_set_error_interrupts():
D:\CQ9008\sample_codes\Release_example_240606\puf_template\debug/../sdk/platform/drivers/src/lpuart_driver.c:465
{
    2564:	b570      	push	{r4, r5, r6, lr}
    2566:	0004      	movs	r4, r0
    2568:	000d      	movs	r5, r1
D:\CQ9008\sample_codes\Release_example_240606\puf_template\debug/../sdk/platform/drivers/src/lpuart_driver.c:467
    lpuart_set_int_mode(p_base, LPUART_INT_RX_OVERRUN, b_enable);
    256a:	000a      	movs	r2, r1
    256c:	4909      	ldr	r1, [pc, #36]	; (2594 <lpuart_set_error_interrupts+0x30>)
    256e:	f7ff fda9 	bl	20c4 <lpuart_set_int_mode>
D:\CQ9008\sample_codes\Release_example_240606\puf_template\debug/../sdk/platform/drivers/src/lpuart_driver.c:468
    lpuart_set_int_mode(p_base, LPUART_INT_PARITY_ERR_FLAG, b_enable);
    2572:	002a      	movs	r2, r5
    2574:	4908      	ldr	r1, [pc, #32]	; (2598 <lpuart_set_error_interrupts+0x34>)
    2576:	0020      	movs	r0, r4
    2578:	f7ff fda4 	bl	20c4 <lpuart_set_int_mode>
D:\CQ9008\sample_codes\Release_example_240606\puf_template\debug/../sdk/platform/drivers/src/lpuart_driver.c:469
    lpuart_set_int_mode(p_base, LPUART_INT_NOISE_ERR_FLAG, b_enable);
    257c:	002a      	movs	r2, r5
    257e:	4907      	ldr	r1, [pc, #28]	; (259c <lpuart_set_error_interrupts+0x38>)
    2580:	0020      	movs	r0, r4
    2582:	f7ff fd9f 	bl	20c4 <lpuart_set_int_mode>
D:\CQ9008\sample_codes\Release_example_240606\puf_template\debug/../sdk/platform/drivers/src/lpuart_driver.c:470
    lpuart_set_int_mode(p_base, LPUART_INT_FRAME_ERR_FLAG, b_enable);
    2586:	002a      	movs	r2, r5
    2588:	4905      	ldr	r1, [pc, #20]	; (25a0 <lpuart_set_error_interrupts+0x3c>)
    258a:	0020      	movs	r0, r4
    258c:	f7ff fd9a 	bl	20c4 <lpuart_set_int_mode>
D:\CQ9008\sample_codes\Release_example_240606\puf_template\debug/../sdk/platform/drivers/src/lpuart_driver.c:471
}
    2590:	bd70      	pop	{r4, r5, r6, pc}
    2592:	46c0      	nop			; (mov r8, r8)
    2594:	0003001b 	.word	0x0003001b
    2598:	00030018 	.word	0x00030018
    259c:	0003001a 	.word	0x0003001a
    25a0:	00030019 	.word	0x00030019

000025a4 <lpuart_start_receive_data_using_int>:
lpuart_start_receive_data_using_int():
D:\CQ9008\sample_codes\Release_example_240606\puf_template\debug/../sdk/platform/drivers/src/lpuart_driver.c:1968
{
    25a4:	b510      	push	{r4, lr}
DevAssert():
D:\CQ9008\sample_codes\Release_example_240606\puf_template\debug/../sdk/platform/devices/devassert.h:31
    if (x)
    25a6:	2801      	cmp	r0, #1
    25a8:	d901      	bls.n	25ae <lpuart_start_receive_data_using_int+0xa>
D:\CQ9008\sample_codes\Release_example_240606\puf_template\debug/../sdk/platform/devices/devassert.h:36
        BKPT_ASM;
    25aa:	be00      	bkpt	0x0000
D:\CQ9008\sample_codes\Release_example_240606\puf_template\debug/../sdk/platform/devices/devassert.h:37
        for (;;)
    25ac:	e7fe      	b.n	25ac <lpuart_start_receive_data_using_int+0x8>
D:\CQ9008\sample_codes\Release_example_240606\puf_template\debug/../sdk/platform/devices/devassert.h:31
    if (x)
    25ae:	2900      	cmp	r1, #0
    25b0:	d101      	bne.n	25b6 <lpuart_start_receive_data_using_int+0x12>
D:\CQ9008\sample_codes\Release_example_240606\puf_template\debug/../sdk/platform/devices/devassert.h:36
        BKPT_ASM;
    25b2:	be00      	bkpt	0x0000
D:\CQ9008\sample_codes\Release_example_240606\puf_template\debug/../sdk/platform/devices/devassert.h:37
        for (;;)
    25b4:	e7fe      	b.n	25b4 <lpuart_start_receive_data_using_int+0x10>
lpuart_start_receive_data_using_int():
D:\CQ9008\sample_codes\Release_example_240606\puf_template\debug/../sdk/platform/drivers/src/lpuart_driver.c:1972
    lpuart_state_t *p_lpuart_state = (lpuart_state_t *)sp_lpuart_state_ptr[instance];
    25b6:	0080      	lsls	r0, r0, #2
    25b8:	4b1b      	ldr	r3, [pc, #108]	; (2628 <lpuart_start_receive_data_using_int+0x84>)
    25ba:	58c3      	ldr	r3, [r0, r3]
D:\CQ9008\sample_codes\Release_example_240606\puf_template\debug/../sdk/platform/drivers/src/lpuart_driver.c:1973
    LPUART_t       *p_base         = sp_lpuart_base[instance];
    25bc:	4c1b      	ldr	r4, [pc, #108]	; (262c <lpuart_start_receive_data_using_int+0x88>)
    25be:	5904      	ldr	r4, [r0, r4]
D:\CQ9008\sample_codes\Release_example_240606\puf_template\debug/../sdk/platform/drivers/src/lpuart_driver.c:1976
    if (p_lpuart_state->b_is_rx_busy)
    25c0:	7f58      	ldrb	r0, [r3, #29]
    25c2:	2800      	cmp	r0, #0
    25c4:	d12d      	bne.n	2622 <lpuart_start_receive_data_using_int+0x7e>
DevAssert():
D:\CQ9008\sample_codes\Release_example_240606\puf_template\debug/../sdk/platform/devices/devassert.h:31
    if (x)
    25c6:	2a00      	cmp	r2, #0
    25c8:	d101      	bne.n	25ce <lpuart_start_receive_data_using_int+0x2a>
D:\CQ9008\sample_codes\Release_example_240606\puf_template\debug/../sdk/platform/devices/devassert.h:36
        BKPT_ASM;
    25ca:	be00      	bkpt	0x0000
D:\CQ9008\sample_codes\Release_example_240606\puf_template\debug/../sdk/platform/devices/devassert.h:37
        for (;;)
    25cc:	e7fe      	b.n	25cc <lpuart_start_receive_data_using_int+0x28>
lpuart_start_receive_data_using_int():
D:\CQ9008\sample_codes\Release_example_240606\puf_template\debug/../sdk/platform/drivers/src/lpuart_driver.c:1983
    DEV_ASSERT((p_lpuart_state->bit_count_per_char == LPUART_8_BITS_PER_CHAR) ||
    25ce:	2020      	movs	r0, #32
    25d0:	5c18      	ldrb	r0, [r3, r0]
    25d2:	2800      	cmp	r0, #0
    25d4:	d003      	beq.n	25de <lpuart_start_receive_data_using_int+0x3a>
D:\CQ9008\sample_codes\Release_example_240606\puf_template\debug/../sdk/platform/drivers/src/lpuart_driver.c:1983 (discriminator 2)
    25d6:	07d0      	lsls	r0, r2, #31
    25d8:	d406      	bmi.n	25e8 <lpuart_start_receive_data_using_int+0x44>
D:\CQ9008\sample_codes\Release_example_240606\puf_template\debug/../sdk/platform/drivers/src/lpuart_driver.c:1983
    25da:	2001      	movs	r0, #1
    25dc:	e000      	b.n	25e0 <lpuart_start_receive_data_using_int+0x3c>
    25de:	2001      	movs	r0, #1
DevAssert():
D:\CQ9008\sample_codes\Release_example_240606\puf_template\debug/../sdk/platform/devices/devassert.h:31 (discriminator 6)
    if (x)
    25e0:	2800      	cmp	r0, #0
    25e2:	d103      	bne.n	25ec <lpuart_start_receive_data_using_int+0x48>
D:\CQ9008\sample_codes\Release_example_240606\puf_template\debug/../sdk/platform/devices/devassert.h:36
        BKPT_ASM;
    25e4:	be00      	bkpt	0x0000
D:\CQ9008\sample_codes\Release_example_240606\puf_template\debug/../sdk/platform/devices/devassert.h:37
        for (;;)
    25e6:	e7fe      	b.n	25e6 <lpuart_start_receive_data_using_int+0x42>
lpuart_start_receive_data_using_int():
D:\CQ9008\sample_codes\Release_example_240606\puf_template\debug/../sdk/platform/drivers/src/lpuart_driver.c:1983
    25e8:	2000      	movs	r0, #0
    25ea:	e7f9      	b.n	25e0 <lpuart_start_receive_data_using_int+0x3c>
D:\CQ9008\sample_codes\Release_example_240606\puf_template\debug/../sdk/platform/drivers/src/lpuart_driver.c:1988 (discriminator 6)
    p_lpuart_state->b_is_rx_busy   = true;
    25ec:	2001      	movs	r0, #1
    25ee:	7758      	strb	r0, [r3, #29]
D:\CQ9008\sample_codes\Release_example_240606\puf_template\debug/../sdk/platform/drivers/src/lpuart_driver.c:1989 (discriminator 6)
    p_lpuart_state->rxBuff         = p_rx_buff;
    25f0:	6119      	str	r1, [r3, #16]
D:\CQ9008\sample_codes\Release_example_240606\puf_template\debug/../sdk/platform/drivers/src/lpuart_driver.c:1990 (discriminator 6)
    p_lpuart_state->rx_size        = rx_size;
    25f2:	619a      	str	r2, [r3, #24]
D:\CQ9008\sample_codes\Release_example_240606\puf_template\debug/../sdk/platform/drivers/src/lpuart_driver.c:1991 (discriminator 6)
    p_lpuart_state->receive_status = STATUS_BUSY;
    25f4:	2202      	movs	r2, #2
    25f6:	879a      	strh	r2, [r3, #60]	; 0x3c
lpuart_set_receiver_cmd():
D:\CQ9008\sample_codes\Release_example_240606\puf_template\debug/../sdk/platform/drivers/inc/lpuart_access.h:69 (discriminator 6)
        (p_base->CTRL & ~LPUART_CTRL_RE_MASK) | ((b_enable ? 1UL : 0UL) << LPUART_CTRL_RE_SHIFT);
    25f8:	69a3      	ldr	r3, [r4, #24]
    25fa:	4a0d      	ldr	r2, [pc, #52]	; (2630 <lpuart_start_receive_data_using_int+0x8c>)
    25fc:	401a      	ands	r2, r3
    25fe:	2380      	movs	r3, #128	; 0x80
    2600:	02db      	lsls	r3, r3, #11
    2602:	4313      	orrs	r3, r2
D:\CQ9008\sample_codes\Release_example_240606\puf_template\debug/../sdk/platform/drivers/inc/lpuart_access.h:68 (discriminator 6)
    p_base->CTRL =
    2604:	61a3      	str	r3, [r4, #24]
D:\CQ9008\sample_codes\Release_example_240606\puf_template\debug/../sdk/platform/drivers/inc/lpuart_access.h:71
    while ((bool)((p_base->CTRL & LPUART_CTRL_RE_MASK) != 0U) != b_enable)
    2606:	69a3      	ldr	r3, [r4, #24]
    2608:	035b      	lsls	r3, r3, #13
    260a:	d5fc      	bpl.n	2606 <lpuart_start_receive_data_using_int+0x62>
lpuart_start_receive_data_using_int():
D:\CQ9008\sample_codes\Release_example_240606\puf_template\debug/../sdk/platform/drivers/src/lpuart_driver.c:1997 (discriminator 6)
    lpuart_set_error_interrupts(p_base, true);
    260c:	2101      	movs	r1, #1
    260e:	0020      	movs	r0, r4
    2610:	f7ff ffa8 	bl	2564 <lpuart_set_error_interrupts>
D:\CQ9008\sample_codes\Release_example_240606\puf_template\debug/../sdk/platform/drivers/src/lpuart_driver.c:2000 (discriminator 6)
    lpuart_set_int_mode(p_base, LPUART_INT_RX_DATA_REG_FULL, true);
    2614:	2201      	movs	r2, #1
    2616:	4907      	ldr	r1, [pc, #28]	; (2634 <lpuart_start_receive_data_using_int+0x90>)
    2618:	0020      	movs	r0, r4
    261a:	f7ff fd53 	bl	20c4 <lpuart_set_int_mode>
D:\CQ9008\sample_codes\Release_example_240606\puf_template\debug/../sdk/platform/drivers/src/lpuart_driver.c:2002 (discriminator 6)
    return STATUS_SUCCESS;
    261e:	2000      	movs	r0, #0
    2620:	e000      	b.n	2624 <lpuart_start_receive_data_using_int+0x80>
D:\CQ9008\sample_codes\Release_example_240606\puf_template\debug/../sdk/platform/drivers/src/lpuart_driver.c:1978
        return STATUS_BUSY;
    2622:	2002      	movs	r0, #2
D:\CQ9008\sample_codes\Release_example_240606\puf_template\debug/../sdk/platform/drivers/src/lpuart_driver.c:2003
}
    2624:	bd10      	pop	{r4, pc}
    2626:	46c0      	nop			; (mov r8, r8)
    2628:	2000030c 	.word	0x2000030c
    262c:	00006398 	.word	0x00006398
    2630:	fffbffff 	.word	0xfffbffff
    2634:	00030015 	.word	0x00030015

00002638 <lpuart_start_receive_data_using_dma>:
lpuart_start_receive_data_using_dma():
D:\CQ9008\sample_codes\Release_example_240606\puf_template\debug/../sdk/platform/drivers/src/lpuart_driver.c:2015
{
    2638:	b5f0      	push	{r4, r5, r6, r7, lr}
    263a:	46d6      	mov	lr, sl
    263c:	464f      	mov	r7, r9
    263e:	4646      	mov	r6, r8
    2640:	b5c0      	push	{r6, r7, lr}
    2642:	b084      	sub	sp, #16
    2644:	0004      	movs	r4, r0
    2646:	000d      	movs	r5, r1
DevAssert():
D:\CQ9008\sample_codes\Release_example_240606\puf_template\debug/../sdk/platform/devices/devassert.h:31
    if (x)
    2648:	2801      	cmp	r0, #1
    264a:	d901      	bls.n	2650 <lpuart_start_receive_data_using_dma+0x18>
D:\CQ9008\sample_codes\Release_example_240606\puf_template\debug/../sdk/platform/devices/devassert.h:36
        BKPT_ASM;
    264c:	be00      	bkpt	0x0000
D:\CQ9008\sample_codes\Release_example_240606\puf_template\debug/../sdk/platform/devices/devassert.h:37
        for (;;)
    264e:	e7fe      	b.n	264e <lpuart_start_receive_data_using_dma+0x16>
D:\CQ9008\sample_codes\Release_example_240606\puf_template\debug/../sdk/platform/devices/devassert.h:31
    if (x)
    2650:	2900      	cmp	r1, #0
    2652:	d101      	bne.n	2658 <lpuart_start_receive_data_using_dma+0x20>
D:\CQ9008\sample_codes\Release_example_240606\puf_template\debug/../sdk/platform/devices/devassert.h:36
        BKPT_ASM;
    2654:	be00      	bkpt	0x0000
D:\CQ9008\sample_codes\Release_example_240606\puf_template\debug/../sdk/platform/devices/devassert.h:37
        for (;;)
    2656:	e7fe      	b.n	2656 <lpuart_start_receive_data_using_dma+0x1e>
lpuart_start_receive_data_using_dma():
D:\CQ9008\sample_codes\Release_example_240606\puf_template\debug/../sdk/platform/drivers/src/lpuart_driver.c:2019
    LPUART_t       *p_base         = sp_lpuart_base[instance];
    2658:	0083      	lsls	r3, r0, #2
    265a:	4926      	ldr	r1, [pc, #152]	; (26f4 <lpuart_start_receive_data_using_dma+0xbc>)
    265c:	585e      	ldr	r6, [r3, r1]
D:\CQ9008\sample_codes\Release_example_240606\puf_template\debug/../sdk/platform/drivers/src/lpuart_driver.c:2020
    lpuart_state_t *p_lpuart_state = (lpuart_state_t *)sp_lpuart_state_ptr[instance];
    265e:	4926      	ldr	r1, [pc, #152]	; (26f8 <lpuart_start_receive_data_using_dma+0xc0>)
    2660:	585f      	ldr	r7, [r3, r1]
D:\CQ9008\sample_codes\Release_example_240606\puf_template\debug/../sdk/platform/drivers/src/lpuart_driver.c:2023
    if (p_lpuart_state->b_is_rx_busy)
    2662:	7f7b      	ldrb	r3, [r7, #29]
    2664:	2b00      	cmp	r3, #0
    2666:	d142      	bne.n	26ee <lpuart_start_receive_data_using_dma+0xb6>
DevAssert():
D:\CQ9008\sample_codes\Release_example_240606\puf_template\debug/../sdk/platform/devices/devassert.h:31
    if (x)
    2668:	2a00      	cmp	r2, #0
    266a:	d101      	bne.n	2670 <lpuart_start_receive_data_using_dma+0x38>
D:\CQ9008\sample_codes\Release_example_240606\puf_template\debug/../sdk/platform/devices/devassert.h:36
        BKPT_ASM;
    266c:	be00      	bkpt	0x0000
D:\CQ9008\sample_codes\Release_example_240606\puf_template\debug/../sdk/platform/devices/devassert.h:37
        for (;;)
    266e:	e7fe      	b.n	266e <lpuart_start_receive_data_using_dma+0x36>
lpuart_start_receive_data_using_dma():
D:\CQ9008\sample_codes\Release_example_240606\puf_template\debug/../sdk/platform/drivers/src/lpuart_driver.c:2034
                                           (uint32_t)(&(p_base->DATA)),
    2670:	0031      	movs	r1, r6
    2672:	311c      	adds	r1, #28
D:\CQ9008\sample_codes\Release_example_240606\puf_template\debug/../sdk/platform/drivers/src/lpuart_driver.c:2032
    (void)edma_config_multi_block_transfer(p_lpuart_state->rx_dma_channel,
    2674:	2335      	movs	r3, #53	; 0x35
    2676:	469a      	mov	sl, r3
    2678:	5cf8      	ldrb	r0, [r7, r3]
    267a:	3b34      	subs	r3, #52	; 0x34
    267c:	4698      	mov	r8, r3
    267e:	9303      	str	r3, [sp, #12]
    2680:	9202      	str	r2, [sp, #8]
    2682:	9301      	str	r3, [sp, #4]
    2684:	2300      	movs	r3, #0
    2686:	4699      	mov	r9, r3
    2688:	9300      	str	r3, [sp, #0]
    268a:	002b      	movs	r3, r5
    268c:	000a      	movs	r2, r1
    268e:	2100      	movs	r1, #0
    2690:	f7ff fa82 	bl	1b98 <edma_config_multi_block_transfer>
D:\CQ9008\sample_codes\Release_example_240606\puf_template\debug/../sdk/platform/drivers/src/lpuart_driver.c:2043
    (void)edma_install_callback(p_lpuart_state->rx_dma_channel,
    2694:	4653      	mov	r3, sl
    2696:	5cf8      	ldrb	r0, [r7, r3]
    2698:	0022      	movs	r2, r4
    269a:	4918      	ldr	r1, [pc, #96]	; (26fc <lpuart_start_receive_data_using_dma+0xc4>)
    269c:	f7ff f972 	bl	1984 <edma_install_callback>
D:\CQ9008\sample_codes\Release_example_240606\puf_template\debug/../sdk/platform/drivers/src/lpuart_driver.c:2048
    (void)edma_start_channel(p_lpuart_state->rx_dma_channel);
    26a0:	4653      	mov	r3, sl
    26a2:	5cf8      	ldrb	r0, [r7, r3]
    26a4:	f7ff fad2 	bl	1c4c <edma_start_channel>
D:\CQ9008\sample_codes\Release_example_240606\puf_template\debug/../sdk/platform/drivers/src/lpuart_driver.c:2051
    p_lpuart_state->rxBuff         = p_rx_buff;
    26a8:	613d      	str	r5, [r7, #16]
D:\CQ9008\sample_codes\Release_example_240606\puf_template\debug/../sdk/platform/drivers/src/lpuart_driver.c:2052
    p_lpuart_state->rx_size        = 0U;
    26aa:	464b      	mov	r3, r9
    26ac:	61bb      	str	r3, [r7, #24]
D:\CQ9008\sample_codes\Release_example_240606\puf_template\debug/../sdk/platform/drivers/src/lpuart_driver.c:2053
    p_lpuart_state->b_is_rx_busy   = true;
    26ae:	4643      	mov	r3, r8
    26b0:	777b      	strb	r3, [r7, #29]
D:\CQ9008\sample_codes\Release_example_240606\puf_template\debug/../sdk/platform/drivers/src/lpuart_driver.c:2054
    p_lpuart_state->receive_status = STATUS_BUSY;
    26b2:	3301      	adds	r3, #1
    26b4:	87bb      	strh	r3, [r7, #60]	; 0x3c
lpuart_set_receiver_cmd():
D:\CQ9008\sample_codes\Release_example_240606\puf_template\debug/../sdk/platform/drivers/inc/lpuart_access.h:69
        (p_base->CTRL & ~LPUART_CTRL_RE_MASK) | ((b_enable ? 1UL : 0UL) << LPUART_CTRL_RE_SHIFT);
    26b6:	69b3      	ldr	r3, [r6, #24]
    26b8:	4a11      	ldr	r2, [pc, #68]	; (2700 <lpuart_start_receive_data_using_dma+0xc8>)
    26ba:	401a      	ands	r2, r3
    26bc:	2380      	movs	r3, #128	; 0x80
    26be:	02db      	lsls	r3, r3, #11
    26c0:	4313      	orrs	r3, r2
D:\CQ9008\sample_codes\Release_example_240606\puf_template\debug/../sdk/platform/drivers/inc/lpuart_access.h:68
    p_base->CTRL =
    26c2:	61b3      	str	r3, [r6, #24]
D:\CQ9008\sample_codes\Release_example_240606\puf_template\debug/../sdk/platform/drivers/inc/lpuart_access.h:71
    while ((bool)((p_base->CTRL & LPUART_CTRL_RE_MASK) != 0U) != b_enable)
    26c4:	69b3      	ldr	r3, [r6, #24]
    26c6:	035b      	lsls	r3, r3, #13
    26c8:	d5fc      	bpl.n	26c4 <lpuart_start_receive_data_using_dma+0x8c>
lpuart_start_receive_data_using_dma():
D:\CQ9008\sample_codes\Release_example_240606\puf_template\debug/../sdk/platform/drivers/src/lpuart_driver.c:2060
    lpuart_set_error_interrupts(p_base, true);
    26ca:	2101      	movs	r1, #1
    26cc:	0030      	movs	r0, r6
    26ce:	f7ff ff49 	bl	2564 <lpuart_set_error_interrupts>
lpuart_set_rx_dma_cmd():
D:\CQ9008\sample_codes\Release_example_240606\puf_template\debug/../sdk/platform/drivers/inc/lpuart_access.h:211
    p_base->BAUD = (p_base->BAUD & ~LPUART_BAUD_RDMAE_MASK) |
    26d2:	6933      	ldr	r3, [r6, #16]
    26d4:	4a0b      	ldr	r2, [pc, #44]	; (2704 <lpuart_start_receive_data_using_dma+0xcc>)
    26d6:	401a      	ands	r2, r3
    26d8:	2380      	movs	r3, #128	; 0x80
    26da:	039b      	lsls	r3, r3, #14
    26dc:	4313      	orrs	r3, r2
    26de:	6133      	str	r3, [r6, #16]
lpuart_start_receive_data_using_dma():
D:\CQ9008\sample_codes\Release_example_240606\puf_template\debug/../sdk/platform/drivers/src/lpuart_driver.c:2065
    return STATUS_SUCCESS;
    26e0:	2000      	movs	r0, #0
D:\CQ9008\sample_codes\Release_example_240606\puf_template\debug/../sdk/platform/drivers/src/lpuart_driver.c:2066
}
    26e2:	b004      	add	sp, #16
    26e4:	bce0      	pop	{r5, r6, r7}
    26e6:	46ba      	mov	sl, r7
    26e8:	46b1      	mov	r9, r6
    26ea:	46a8      	mov	r8, r5
    26ec:	bdf0      	pop	{r4, r5, r6, r7, pc}
D:\CQ9008\sample_codes\Release_example_240606\puf_template\debug/../sdk/platform/drivers/src/lpuart_driver.c:2025
        return STATUS_BUSY;
    26ee:	2002      	movs	r0, #2
    26f0:	e7f7      	b.n	26e2 <lpuart_start_receive_data_using_dma+0xaa>
    26f2:	46c0      	nop			; (mov r8, r8)
    26f4:	00006398 	.word	0x00006398
    26f8:	2000030c 	.word	0x2000030c
    26fc:	0000284d 	.word	0x0000284d
    2700:	fffbffff 	.word	0xfffbffff
    2704:	ffdfffff 	.word	0xffdfffff

00002708 <lpuart_complete_receive_data_using_int>:
lpuart_complete_receive_data_using_int():
D:\CQ9008\sample_codes\Release_example_240606\puf_template\debug/../sdk/platform/drivers/src/lpuart_driver.c:2078
{
    2708:	b570      	push	{r4, r5, r6, lr}
DevAssert():
D:\CQ9008\sample_codes\Release_example_240606\puf_template\debug/../sdk/platform/devices/devassert.h:31
    if (x)
    270a:	2801      	cmp	r0, #1
    270c:	d901      	bls.n	2712 <lpuart_complete_receive_data_using_int+0xa>
D:\CQ9008\sample_codes\Release_example_240606\puf_template\debug/../sdk/platform/devices/devassert.h:36
        BKPT_ASM;
    270e:	be00      	bkpt	0x0000
D:\CQ9008\sample_codes\Release_example_240606\puf_template\debug/../sdk/platform/devices/devassert.h:37
        for (;;)
    2710:	e7fe      	b.n	2710 <lpuart_complete_receive_data_using_int+0x8>
lpuart_complete_receive_data_using_int():
D:\CQ9008\sample_codes\Release_example_240606\puf_template\debug/../sdk/platform/drivers/src/lpuart_driver.c:2082
    lpuart_state_t *p_lpuart_state = (lpuart_state_t *)sp_lpuart_state_ptr[instance];
    2712:	0080      	lsls	r0, r0, #2
    2714:	4b14      	ldr	r3, [pc, #80]	; (2768 <lpuart_complete_receive_data_using_int+0x60>)
    2716:	58c5      	ldr	r5, [r0, r3]
D:\CQ9008\sample_codes\Release_example_240606\puf_template\debug/../sdk/platform/drivers/src/lpuart_driver.c:2083
    LPUART_t       *p_base         = sp_lpuart_base[instance];
    2718:	4b14      	ldr	r3, [pc, #80]	; (276c <lpuart_complete_receive_data_using_int+0x64>)
    271a:	58c4      	ldr	r4, [r0, r3]
lpuart_set_receiver_cmd():
D:\CQ9008\sample_codes\Release_example_240606\puf_template\debug/../sdk/platform/drivers/inc/lpuart_access.h:69
        (p_base->CTRL & ~LPUART_CTRL_RE_MASK) | ((b_enable ? 1UL : 0UL) << LPUART_CTRL_RE_SHIFT);
    271c:	69a3      	ldr	r3, [r4, #24]
    271e:	4a14      	ldr	r2, [pc, #80]	; (2770 <lpuart_complete_receive_data_using_int+0x68>)
    2720:	4013      	ands	r3, r2
D:\CQ9008\sample_codes\Release_example_240606\puf_template\debug/../sdk/platform/drivers/inc/lpuart_access.h:68
    p_base->CTRL =
    2722:	61a3      	str	r3, [r4, #24]
D:\CQ9008\sample_codes\Release_example_240606\puf_template\debug/../sdk/platform/drivers/inc/lpuart_access.h:71
    while ((bool)((p_base->CTRL & LPUART_CTRL_RE_MASK) != 0U) != b_enable)
    2724:	69a3      	ldr	r3, [r4, #24]
    2726:	035b      	lsls	r3, r3, #13
    2728:	d4fc      	bmi.n	2724 <lpuart_complete_receive_data_using_int+0x1c>
lpuart_complete_receive_data_using_int():
D:\CQ9008\sample_codes\Release_example_240606\puf_template\debug/../sdk/platform/drivers/src/lpuart_driver.c:2089
    lpuart_set_error_interrupts(p_base, false);
    272a:	2100      	movs	r1, #0
    272c:	0020      	movs	r0, r4
    272e:	f7ff ff19 	bl	2564 <lpuart_set_error_interrupts>
lpuart_get_char():
D:\CQ9008\sample_codes\Release_example_240606\puf_template\debug/../sdk/platform/drivers/inc/lpuart_access.h:242
    *p_read_data = (uint8_t)p_base->DATA;
    2732:	69e3      	ldr	r3, [r4, #28]
lpuart_complete_receive_data_using_int():
D:\CQ9008\sample_codes\Release_example_240606\puf_template\debug/../sdk/platform/drivers/src/lpuart_driver.c:2095
    lpuart_set_int_mode(p_base, LPUART_INT_RX_DATA_REG_FULL, false);
    2734:	2200      	movs	r2, #0
    2736:	490f      	ldr	r1, [pc, #60]	; (2774 <lpuart_complete_receive_data_using_int+0x6c>)
    2738:	0020      	movs	r0, r4
    273a:	f7ff fcc3 	bl	20c4 <lpuart_set_int_mode>
D:\CQ9008\sample_codes\Release_example_240606\puf_template\debug/../sdk/platform/drivers/src/lpuart_driver.c:2098
    if (p_lpuart_state->b_is_rx_blocking)
    273e:	7feb      	ldrb	r3, [r5, #31]
    2740:	2b00      	cmp	r3, #0
    2742:	d106      	bne.n	2752 <lpuart_complete_receive_data_using_int+0x4a>
D:\CQ9008\sample_codes\Release_example_240606\puf_template\debug/../sdk/platform/drivers/src/lpuart_driver.c:2105
    p_lpuart_state->b_is_rx_busy = false;
    2744:	2300      	movs	r3, #0
    2746:	776b      	strb	r3, [r5, #29]
D:\CQ9008\sample_codes\Release_example_240606\puf_template\debug/../sdk/platform/drivers/src/lpuart_driver.c:2106
    if (p_lpuart_state->receive_status == STATUS_BUSY)
    2748:	8fab      	ldrh	r3, [r5, #60]	; 0x3c
    274a:	b29b      	uxth	r3, r3
    274c:	2b02      	cmp	r3, #2
    274e:	d007      	beq.n	2760 <lpuart_complete_receive_data_using_int+0x58>
D:\CQ9008\sample_codes\Release_example_240606\puf_template\debug/../sdk/platform/drivers/src/lpuart_driver.c:2110
}
    2750:	bd70      	pop	{r4, r5, r6, pc}
D:\CQ9008\sample_codes\Release_example_240606\puf_template\debug/../sdk/platform/drivers/src/lpuart_driver.c:2100
        (void)osif_sema_post(&p_lpuart_state->rx_complete);
    2752:	0028      	movs	r0, r5
    2754:	3037      	adds	r0, #55	; 0x37
    2756:	f000 fc11 	bl	2f7c <osif_sema_post>
D:\CQ9008\sample_codes\Release_example_240606\puf_template\debug/../sdk/platform/drivers/src/lpuart_driver.c:2101
        p_lpuart_state->b_is_rx_blocking = false;
    275a:	2300      	movs	r3, #0
    275c:	77eb      	strb	r3, [r5, #31]
    275e:	e7f1      	b.n	2744 <lpuart_complete_receive_data_using_int+0x3c>
D:\CQ9008\sample_codes\Release_example_240606\puf_template\debug/../sdk/platform/drivers/src/lpuart_driver.c:2108
        p_lpuart_state->receive_status = STATUS_SUCCESS;
    2760:	2300      	movs	r3, #0
    2762:	87ab      	strh	r3, [r5, #60]	; 0x3c
D:\CQ9008\sample_codes\Release_example_240606\puf_template\debug/../sdk/platform/drivers/src/lpuart_driver.c:2110
}
    2764:	e7f4      	b.n	2750 <lpuart_complete_receive_data_using_int+0x48>
    2766:	46c0      	nop			; (mov r8, r8)
    2768:	2000030c 	.word	0x2000030c
    276c:	00006398 	.word	0x00006398
    2770:	fffbffff 	.word	0xfffbffff
    2774:	00030015 	.word	0x00030015

00002778 <lpuart_rx_irq_handler>:
lpuart_rx_irq_handler():
D:\CQ9008\sample_codes\Release_example_240606\puf_template\debug/../sdk/platform/drivers/src/lpuart_driver.c:1499
{
    2778:	b570      	push	{r4, r5, r6, lr}
    277a:	0005      	movs	r5, r0
D:\CQ9008\sample_codes\Release_example_240606\puf_template\debug/../sdk/platform/drivers/src/lpuart_driver.c:1500
    lpuart_state_t *p_lpuart_state = (lpuart_state_t *)sp_lpuart_state_ptr[instance];
    277c:	0082      	lsls	r2, r0, #2
    277e:	4b17      	ldr	r3, [pc, #92]	; (27dc <lpuart_rx_irq_handler+0x64>)
    2780:	58d4      	ldr	r4, [r2, r3]
D:\CQ9008\sample_codes\Release_example_240606\puf_template\debug/../sdk/platform/drivers/src/lpuart_driver.c:1503
    lpuart_get_data(instance);
    2782:	f7ff fe9f 	bl	24c4 <lpuart_get_data>
D:\CQ9008\sample_codes\Release_example_240606\puf_template\debug/../sdk/platform/drivers/src/lpuart_driver.c:1506
    if (p_lpuart_state->bit_count_per_char == LPUART_8_BITS_PER_CHAR)
    2786:	2320      	movs	r3, #32
    2788:	5ce3      	ldrb	r3, [r4, r3]
    278a:	2b00      	cmp	r3, #0
    278c:	d113      	bne.n	27b6 <lpuart_rx_irq_handler+0x3e>
D:\CQ9008\sample_codes\Release_example_240606\puf_template\debug/../sdk/platform/drivers/src/lpuart_driver.c:1508
        ++p_lpuart_state->rxBuff;
    278e:	6923      	ldr	r3, [r4, #16]
    2790:	3301      	adds	r3, #1
    2792:	6123      	str	r3, [r4, #16]
D:\CQ9008\sample_codes\Release_example_240606\puf_template\debug/../sdk/platform/drivers/src/lpuart_driver.c:1509
        --p_lpuart_state->rx_size;
    2794:	69a3      	ldr	r3, [r4, #24]
    2796:	3b01      	subs	r3, #1
    2798:	61a3      	str	r3, [r4, #24]
D:\CQ9008\sample_codes\Release_example_240606\puf_template\debug/../sdk/platform/drivers/src/lpuart_driver.c:1518
    if (p_lpuart_state->rx_size == 0U)
    279a:	69a3      	ldr	r3, [r4, #24]
    279c:	2b00      	cmp	r3, #0
    279e:	d106      	bne.n	27ae <lpuart_rx_irq_handler+0x36>
D:\CQ9008\sample_codes\Release_example_240606\puf_template\debug/../sdk/platform/drivers/src/lpuart_driver.c:1522
        if (p_lpuart_state->rx_callback != NULL)
    27a0:	6a63      	ldr	r3, [r4, #36]	; 0x24
    27a2:	2b00      	cmp	r3, #0
    27a4:	d003      	beq.n	27ae <lpuart_rx_irq_handler+0x36>
D:\CQ9008\sample_codes\Release_example_240606\puf_template\debug/../sdk/platform/drivers/src/lpuart_driver.c:1524
            p_lpuart_state->rx_callback(
    27a6:	6aa2      	ldr	r2, [r4, #40]	; 0x28
    27a8:	2100      	movs	r1, #0
    27aa:	0020      	movs	r0, r4
    27ac:	4798      	blx	r3
D:\CQ9008\sample_codes\Release_example_240606\puf_template\debug/../sdk/platform/drivers/src/lpuart_driver.c:1530
    if (p_lpuart_state->rx_size == 0U)
    27ae:	69a3      	ldr	r3, [r4, #24]
    27b0:	2b00      	cmp	r3, #0
    27b2:	d007      	beq.n	27c4 <lpuart_rx_irq_handler+0x4c>
D:\CQ9008\sample_codes\Release_example_240606\puf_template\debug/../sdk/platform/drivers/src/lpuart_driver.c:1542
}
    27b4:	bd70      	pop	{r4, r5, r6, pc}
D:\CQ9008\sample_codes\Release_example_240606\puf_template\debug/../sdk/platform/drivers/src/lpuart_driver.c:1513
        p_lpuart_state->rxBuff = &p_lpuart_state->rxBuff[2];
    27b6:	6923      	ldr	r3, [r4, #16]
    27b8:	3302      	adds	r3, #2
    27ba:	6123      	str	r3, [r4, #16]
D:\CQ9008\sample_codes\Release_example_240606\puf_template\debug/../sdk/platform/drivers/src/lpuart_driver.c:1514
        p_lpuart_state->rx_size -= 2U;
    27bc:	69a3      	ldr	r3, [r4, #24]
    27be:	3b02      	subs	r3, #2
    27c0:	61a3      	str	r3, [r4, #24]
    27c2:	e7ea      	b.n	279a <lpuart_rx_irq_handler+0x22>
D:\CQ9008\sample_codes\Release_example_240606\puf_template\debug/../sdk/platform/drivers/src/lpuart_driver.c:1533
        lpuart_complete_receive_data_using_int(instance);
    27c4:	0028      	movs	r0, r5
    27c6:	f7ff ff9f 	bl	2708 <lpuart_complete_receive_data_using_int>
D:\CQ9008\sample_codes\Release_example_240606\puf_template\debug/../sdk/platform/drivers/src/lpuart_driver.c:1536
        if (p_lpuart_state->rx_callback != NULL)
    27ca:	6a63      	ldr	r3, [r4, #36]	; 0x24
    27cc:	2b00      	cmp	r3, #0
    27ce:	d0f1      	beq.n	27b4 <lpuart_rx_irq_handler+0x3c>
D:\CQ9008\sample_codes\Release_example_240606\puf_template\debug/../sdk/platform/drivers/src/lpuart_driver.c:1538
            p_lpuart_state->rx_callback(
    27d0:	6aa2      	ldr	r2, [r4, #40]	; 0x28
    27d2:	2102      	movs	r1, #2
    27d4:	0020      	movs	r0, r4
    27d6:	4798      	blx	r3
D:\CQ9008\sample_codes\Release_example_240606\puf_template\debug/../sdk/platform/drivers/src/lpuart_driver.c:1542
}
    27d8:	e7ec      	b.n	27b4 <lpuart_rx_irq_handler+0x3c>
    27da:	46c0      	nop			; (mov r8, r8)
    27dc:	2000030c 	.word	0x2000030c

000027e0 <lpuart_stop_rx_dma>:
lpuart_stop_rx_dma():
D:\CQ9008\sample_codes\Release_example_240606\puf_template\debug/../sdk/platform/drivers/src/lpuart_driver.c:2338
 * This is not a public API as it is called from other driver functions.
 *
 *END**************************************************************************/
static void
lpuart_stop_rx_dma(uint32_t instance)
{
    27e0:	b570      	push	{r4, r5, r6, lr}
D:\CQ9008\sample_codes\Release_example_240606\puf_template\debug/../sdk/platform/drivers/src/lpuart_driver.c:2339
    LPUART_t       *p_base         = sp_lpuart_base[instance];
    27e2:	0080      	lsls	r0, r0, #2
    27e4:	4b15      	ldr	r3, [pc, #84]	; (283c <lpuart_stop_rx_dma+0x5c>)
    27e6:	58c4      	ldr	r4, [r0, r3]
D:\CQ9008\sample_codes\Release_example_240606\puf_template\debug/../sdk/platform/drivers/src/lpuart_driver.c:2340
    lpuart_state_t *p_lpuart_state = (lpuart_state_t *)sp_lpuart_state_ptr[instance];
    27e8:	4b15      	ldr	r3, [pc, #84]	; (2840 <lpuart_stop_rx_dma+0x60>)
    27ea:	58c5      	ldr	r5, [r0, r3]
lpuart_set_receiver_cmd():
D:\CQ9008\sample_codes\Release_example_240606\puf_template\debug/../sdk/platform/drivers/inc/lpuart_access.h:69
        (p_base->CTRL & ~LPUART_CTRL_RE_MASK) | ((b_enable ? 1UL : 0UL) << LPUART_CTRL_RE_SHIFT);
    27ec:	69a3      	ldr	r3, [r4, #24]
    27ee:	4a15      	ldr	r2, [pc, #84]	; (2844 <lpuart_stop_rx_dma+0x64>)
    27f0:	4013      	ands	r3, r2
D:\CQ9008\sample_codes\Release_example_240606\puf_template\debug/../sdk/platform/drivers/inc/lpuart_access.h:68
    p_base->CTRL =
    27f2:	61a3      	str	r3, [r4, #24]
D:\CQ9008\sample_codes\Release_example_240606\puf_template\debug/../sdk/platform/drivers/inc/lpuart_access.h:71
    while ((bool)((p_base->CTRL & LPUART_CTRL_RE_MASK) != 0U) != b_enable)
    27f4:	69a3      	ldr	r3, [r4, #24]
    27f6:	035b      	lsls	r3, r3, #13
    27f8:	d4fc      	bmi.n	27f4 <lpuart_stop_rx_dma+0x14>
lpuart_stop_rx_dma():
D:\CQ9008\sample_codes\Release_example_240606\puf_template\debug/../sdk/platform/drivers/src/lpuart_driver.c:2347

    /* Disable receiver */
    lpuart_set_receiver_cmd(p_base, false);

    /* Disable error interrupts */
    lpuart_set_error_interrupts(p_base, false);
    27fa:	2100      	movs	r1, #0
    27fc:	0020      	movs	r0, r4
    27fe:	f7ff feb1 	bl	2564 <lpuart_set_error_interrupts>
lpuart_set_rx_dma_cmd():
D:\CQ9008\sample_codes\Release_example_240606\puf_template\debug/../sdk/platform/drivers/inc/lpuart_access.h:211
    p_base->BAUD = (p_base->BAUD & ~LPUART_BAUD_RDMAE_MASK) |
    2802:	6923      	ldr	r3, [r4, #16]
    2804:	4a10      	ldr	r2, [pc, #64]	; (2848 <lpuart_stop_rx_dma+0x68>)
    2806:	4013      	ands	r3, r2
    2808:	6123      	str	r3, [r4, #16]
lpuart_get_char():
D:\CQ9008\sample_codes\Release_example_240606\puf_template\debug/../sdk/platform/drivers/inc/lpuart_access.h:242
    *p_read_data = (uint8_t)p_base->DATA;
    280a:	69e3      	ldr	r3, [r4, #28]
lpuart_stop_rx_dma():
D:\CQ9008\sample_codes\Release_example_240606\puf_template\debug/../sdk/platform/drivers/src/lpuart_driver.c:2356

    /* Read dummy to clear RDRF flag */
    lpuart_get_char(p_base, &tmp_byte);

    /* Stop the DMA channel */
    (void)edma_stop_channel(p_lpuart_state->rx_dma_channel);
    280c:	2335      	movs	r3, #53	; 0x35
    280e:	5ce8      	ldrb	r0, [r5, r3]
    2810:	f7ff fa3a 	bl	1c88 <edma_stop_channel>
D:\CQ9008\sample_codes\Release_example_240606\puf_template\debug/../sdk/platform/drivers/src/lpuart_driver.c:2359

    /* Signal the synchronous completion object. */
    if (p_lpuart_state->b_is_rx_blocking)
    2814:	7feb      	ldrb	r3, [r5, #31]
    2816:	2b00      	cmp	r3, #0
    2818:	d106      	bne.n	2828 <lpuart_stop_rx_dma+0x48>
D:\CQ9008\sample_codes\Release_example_240606\puf_template\debug/../sdk/platform/drivers/src/lpuart_driver.c:2366
        (void)osif_sema_post(&p_lpuart_state->rx_complete);
        p_lpuart_state->b_is_rx_blocking = false;
    }

    /* Update the internal driver status */
    if (p_lpuart_state->receive_status == STATUS_BUSY)
    281a:	8fab      	ldrh	r3, [r5, #60]	; 0x3c
    281c:	b29b      	uxth	r3, r3
    281e:	2b02      	cmp	r3, #2
    2820:	d009      	beq.n	2836 <lpuart_stop_rx_dma+0x56>
D:\CQ9008\sample_codes\Release_example_240606\puf_template\debug/../sdk/platform/drivers/src/lpuart_driver.c:2372
    {
        p_lpuart_state->receive_status = STATUS_SUCCESS;
    }

    /* Update the information of the module driver state */
    p_lpuart_state->b_is_rx_busy = false;
    2822:	2300      	movs	r3, #0
    2824:	776b      	strb	r3, [r5, #29]
D:\CQ9008\sample_codes\Release_example_240606\puf_template\debug/../sdk/platform/drivers/src/lpuart_driver.c:2373
}
    2826:	bd70      	pop	{r4, r5, r6, pc}
D:\CQ9008\sample_codes\Release_example_240606\puf_template\debug/../sdk/platform/drivers/src/lpuart_driver.c:2361
        (void)osif_sema_post(&p_lpuart_state->rx_complete);
    2828:	0028      	movs	r0, r5
    282a:	3037      	adds	r0, #55	; 0x37
    282c:	f000 fba6 	bl	2f7c <osif_sema_post>
D:\CQ9008\sample_codes\Release_example_240606\puf_template\debug/../sdk/platform/drivers/src/lpuart_driver.c:2362
        p_lpuart_state->b_is_rx_blocking = false;
    2830:	2300      	movs	r3, #0
    2832:	77eb      	strb	r3, [r5, #31]
    2834:	e7f1      	b.n	281a <lpuart_stop_rx_dma+0x3a>
D:\CQ9008\sample_codes\Release_example_240606\puf_template\debug/../sdk/platform/drivers/src/lpuart_driver.c:2368
        p_lpuart_state->receive_status = STATUS_SUCCESS;
    2836:	2300      	movs	r3, #0
    2838:	87ab      	strh	r3, [r5, #60]	; 0x3c
    283a:	e7f2      	b.n	2822 <lpuart_stop_rx_dma+0x42>
    283c:	00006398 	.word	0x00006398
    2840:	2000030c 	.word	0x2000030c
    2844:	fffbffff 	.word	0xfffbffff
    2848:	ffdfffff 	.word	0xffdfffff

0000284c <lpuart_rx_dma_callback>:
lpuart_rx_dma_callback():
D:\CQ9008\sample_codes\Release_example_240606\puf_template\debug/../sdk/platform/drivers/src/lpuart_driver.c:2123
{
    284c:	b570      	push	{r4, r5, r6, lr}
    284e:	0005      	movs	r5, r0
D:\CQ9008\sample_codes\Release_example_240606\puf_template\debug/../sdk/platform/drivers/src/lpuart_driver.c:2125
    lpuart_state_t *p_lpuart_state = (lpuart_state_t *)sp_lpuart_state_ptr[instance];
    2850:	0083      	lsls	r3, r0, #2
    2852:	4a24      	ldr	r2, [pc, #144]	; (28e4 <lpuart_rx_dma_callback+0x98>)
    2854:	589c      	ldr	r4, [r3, r2]
D:\CQ9008\sample_codes\Release_example_240606\puf_template\debug/../sdk/platform/drivers/src/lpuart_driver.c:2126
    LPUART_t       *p_base         = sp_lpuart_base[instance];
    2856:	4a24      	ldr	r2, [pc, #144]	; (28e8 <lpuart_rx_dma_callback+0x9c>)
    2858:	589e      	ldr	r6, [r3, r2]
D:\CQ9008\sample_codes\Release_example_240606\puf_template\debug/../sdk/platform/drivers/src/lpuart_driver.c:2128
    if (status == EDMA_CHN_ERROR)
    285a:	2901      	cmp	r1, #1
    285c:	d01c      	beq.n	2898 <lpuart_rx_dma_callback+0x4c>
D:\CQ9008\sample_codes\Release_example_240606\puf_template\debug/../sdk/platform/drivers/src/lpuart_driver.c:2147
    if (p_lpuart_state->receive_status != STATUS_BUSY)
    285e:	8fa3      	ldrh	r3, [r4, #60]	; 0x3c
    2860:	b29b      	uxth	r3, r3
    2862:	2b02      	cmp	r3, #2
    2864:	d117      	bne.n	2896 <lpuart_rx_dma_callback+0x4a>
D:\CQ9008\sample_codes\Release_example_240606\puf_template\debug/../sdk/platform/drivers/src/lpuart_driver.c:2153
    if (p_lpuart_state->rx_callback != NULL)
    2866:	6a63      	ldr	r3, [r4, #36]	; 0x24
    2868:	2b00      	cmp	r3, #0
    286a:	d003      	beq.n	2874 <lpuart_rx_dma_callback+0x28>
D:\CQ9008\sample_codes\Release_example_240606\puf_template\debug/../sdk/platform/drivers/src/lpuart_driver.c:2157
        p_lpuart_state->rx_callback(
    286c:	6aa2      	ldr	r2, [r4, #40]	; 0x28
    286e:	2100      	movs	r1, #0
    2870:	0020      	movs	r0, r4
    2872:	4798      	blx	r3
D:\CQ9008\sample_codes\Release_example_240606\puf_template\debug/../sdk/platform/drivers/src/lpuart_driver.c:2164
    if (p_lpuart_state->rx_size > 0U)
    2874:	69a3      	ldr	r3, [r4, #24]
    2876:	2b00      	cmp	r3, #0
    2878:	d021      	beq.n	28be <lpuart_rx_dma_callback+0x72>
D:\CQ9008\sample_codes\Release_example_240606\puf_template\debug/../sdk/platform/drivers/src/lpuart_driver.c:2168
        edma_set_dest_addr(p_lpuart_state->rx_dma_channel, (uint32_t)(p_lpuart_state->rxBuff));
    287a:	2535      	movs	r5, #53	; 0x35
    287c:	5d60      	ldrb	r0, [r4, r5]
    287e:	6921      	ldr	r1, [r4, #16]
    2880:	f7ff fa3c 	bl	1cfc <edma_set_dest_addr>
D:\CQ9008\sample_codes\Release_example_240606\puf_template\debug/../sdk/platform/drivers/src/lpuart_driver.c:2169
        edma_set_major_loop_iteration_count(p_lpuart_state->rx_dma_channel,
    2884:	69a1      	ldr	r1, [r4, #24]
    2886:	5d60      	ldrb	r0, [r4, r5]
    2888:	f7ff fa54 	bl	1d34 <edma_set_major_loop_iteration_count>
D:\CQ9008\sample_codes\Release_example_240606\puf_template\debug/../sdk/platform/drivers/src/lpuart_driver.c:2173
        p_lpuart_state->rx_size = 0U;
    288c:	2300      	movs	r3, #0
    288e:	61a3      	str	r3, [r4, #24]
D:\CQ9008\sample_codes\Release_example_240606\puf_template\debug/../sdk/platform/drivers/src/lpuart_driver.c:2176
        (void)edma_start_channel(p_lpuart_state->rx_dma_channel);
    2890:	5d60      	ldrb	r0, [r4, r5]
    2892:	f7ff f9db 	bl	1c4c <edma_start_channel>
D:\CQ9008\sample_codes\Release_example_240606\puf_template\debug/../sdk/platform/drivers/src/lpuart_driver.c:2193
}
    2896:	bd70      	pop	{r4, r5, r6, pc}
D:\CQ9008\sample_codes\Release_example_240606\puf_template\debug/../sdk/platform/drivers/src/lpuart_driver.c:2131
        p_lpuart_state->receive_status = STATUS_ERROR;
    2898:	2301      	movs	r3, #1
    289a:	87a3      	strh	r3, [r4, #60]	; 0x3c
D:\CQ9008\sample_codes\Release_example_240606\puf_template\debug/../sdk/platform/drivers/src/lpuart_driver.c:2133
        lpuart_stop_rx_dma(instance);
    289c:	f7ff ffa0 	bl	27e0 <lpuart_stop_rx_dma>
D:\CQ9008\sample_codes\Release_example_240606\puf_template\debug/../sdk/platform/drivers/src/lpuart_driver.c:2135
        if (p_lpuart_state->rx_callback != NULL)
    28a0:	6a63      	ldr	r3, [r4, #36]	; 0x24
    28a2:	2b00      	cmp	r3, #0
    28a4:	d003      	beq.n	28ae <lpuart_rx_dma_callback+0x62>
D:\CQ9008\sample_codes\Release_example_240606\puf_template\debug/../sdk/platform/drivers/src/lpuart_driver.c:2137
            p_lpuart_state->rx_callback(
    28a6:	6aa2      	ldr	r2, [r4, #40]	; 0x28
    28a8:	2103      	movs	r1, #3
    28aa:	0020      	movs	r0, r4
    28ac:	4798      	blx	r3
lpuart_clear_error_flags():
D:\CQ9008\sample_codes\Release_example_240606\puf_template\debug/../sdk/platform/drivers/inc/lpuart_access.h:258
lpuart_clear_error_flags(LPUART_t *p_base)
{
    uint32_t mask =
        LPUART_STAT_OR_MASK | LPUART_STAT_NF_MASK | LPUART_STAT_FE_MASK | LPUART_STAT_PF_MASK;

    p_base->STAT = (p_base->STAT & (~FEATURE_LPUART_STAT_REG_FLAGS_MASK)) | mask;
    28ae:	6973      	ldr	r3, [r6, #20]
    28b0:	4a0e      	ldr	r2, [pc, #56]	; (28ec <lpuart_rx_dma_callback+0xa0>)
    28b2:	401a      	ands	r2, r3
    28b4:	23f0      	movs	r3, #240	; 0xf0
    28b6:	031b      	lsls	r3, r3, #12
    28b8:	4313      	orrs	r3, r2
    28ba:	6173      	str	r3, [r6, #20]
D:\CQ9008\sample_codes\Release_example_240606\puf_template\debug/../sdk/platform/drivers/inc/lpuart_access.h:259
}
    28bc:	e7cf      	b.n	285e <lpuart_rx_dma_callback+0x12>
lpuart_rx_dma_callback():
D:\CQ9008\sample_codes\Release_example_240606\puf_template\debug/../sdk/platform/drivers/src/lpuart_driver.c:2181
        lpuart_stop_rx_dma(instance);
    28be:	0028      	movs	r0, r5
    28c0:	f7ff ff8e 	bl	27e0 <lpuart_stop_rx_dma>
D:\CQ9008\sample_codes\Release_example_240606\puf_template\debug/../sdk/platform/drivers/src/lpuart_driver.c:2184
        if (p_lpuart_state->rx_callback != NULL)
    28c4:	6a63      	ldr	r3, [r4, #36]	; 0x24
    28c6:	2b00      	cmp	r3, #0
    28c8:	d003      	beq.n	28d2 <lpuart_rx_dma_callback+0x86>
D:\CQ9008\sample_codes\Release_example_240606\puf_template\debug/../sdk/platform/drivers/src/lpuart_driver.c:2186
            p_lpuart_state->rx_callback(
    28ca:	6aa2      	ldr	r2, [r4, #40]	; 0x28
    28cc:	2102      	movs	r1, #2
    28ce:	0020      	movs	r0, r4
    28d0:	4798      	blx	r3
lpuart_clear_error_flags():
D:\CQ9008\sample_codes\Release_example_240606\puf_template\debug/../sdk/platform/drivers/inc/lpuart_access.h:258
    p_base->STAT = (p_base->STAT & (~FEATURE_LPUART_STAT_REG_FLAGS_MASK)) | mask;
    28d2:	6973      	ldr	r3, [r6, #20]
    28d4:	4a05      	ldr	r2, [pc, #20]	; (28ec <lpuart_rx_dma_callback+0xa0>)
    28d6:	401a      	ands	r2, r3
    28d8:	23f0      	movs	r3, #240	; 0xf0
    28da:	031b      	lsls	r3, r3, #12
    28dc:	4313      	orrs	r3, r2
    28de:	6173      	str	r3, [r6, #20]
D:\CQ9008\sample_codes\Release_example_240606\puf_template\debug/../sdk/platform/drivers/inc/lpuart_access.h:259
}
    28e0:	e7d9      	b.n	2896 <lpuart_rx_dma_callback+0x4a>
    28e2:	46c0      	nop			; (mov r8, r8)
    28e4:	2000030c 	.word	0x2000030c
    28e8:	00006398 	.word	0x00006398
    28ec:	3fe03fff 	.word	0x3fe03fff

000028f0 <lpuart_err_irq_handler>:
lpuart_err_irq_handler():
D:\CQ9008\sample_codes\Release_example_240606\puf_template\debug/../sdk/platform/drivers/src/lpuart_driver.c:1639
{
    28f0:	b570      	push	{r4, r5, r6, lr}
    28f2:	0006      	movs	r6, r0
D:\CQ9008\sample_codes\Release_example_240606\puf_template\debug/../sdk/platform/drivers/src/lpuart_driver.c:1640
    lpuart_state_t *p_lpuart_state = (lpuart_state_t *)sp_lpuart_state_ptr[instance];
    28f4:	0083      	lsls	r3, r0, #2
    28f6:	4a44      	ldr	r2, [pc, #272]	; (2a08 <lpuart_err_irq_handler+0x118>)
    28f8:	589c      	ldr	r4, [r3, r2]
D:\CQ9008\sample_codes\Release_example_240606\puf_template\debug/../sdk/platform/drivers/src/lpuart_driver.c:1641
    LPUART_t       *p_base         = sp_lpuart_base[instance];
    28fa:	4a44      	ldr	r2, [pc, #272]	; (2a0c <lpuart_err_irq_handler+0x11c>)
    28fc:	589d      	ldr	r5, [r3, r2]
D:\CQ9008\sample_codes\Release_example_240606\puf_template\debug/../sdk/platform/drivers/src/lpuart_driver.c:1644
    if (lpuart_get_status_flag(p_base, LPUART_RX_OVERRUN))
    28fe:	4944      	ldr	r1, [pc, #272]	; (2a10 <lpuart_err_irq_handler+0x120>)
    2900:	0028      	movs	r0, r5
    2902:	f7ff fe11 	bl	2528 <lpuart_get_status_flag>
    2906:	2800      	cmp	r0, #0
    2908:	d016      	beq.n	2938 <lpuart_err_irq_handler+0x48>
D:\CQ9008\sample_codes\Release_example_240606\puf_template\debug/../sdk/platform/drivers/src/lpuart_driver.c:1647
        p_lpuart_state->receive_status = STATUS_UART_RX_OVERRUN;
    290a:	4b42      	ldr	r3, [pc, #264]	; (2a14 <lpuart_err_irq_handler+0x124>)
    290c:	87a3      	strh	r3, [r4, #60]	; 0x3c
D:\CQ9008\sample_codes\Release_example_240606\puf_template\debug/../sdk/platform/drivers/src/lpuart_driver.c:1648
        if (p_lpuart_state->transfer_type == LPUART_USING_INTERRUPTS)
    290e:	2334      	movs	r3, #52	; 0x34
    2910:	5ce3      	ldrb	r3, [r4, r3]
    2912:	2b01      	cmp	r3, #1
    2914:	d068      	beq.n	29e8 <lpuart_err_irq_handler+0xf8>
D:\CQ9008\sample_codes\Release_example_240606\puf_template\debug/../sdk/platform/drivers/src/lpuart_driver.c:1656
            lpuart_stop_rx_dma(instance);
    2916:	0030      	movs	r0, r6
    2918:	f7ff ff62 	bl	27e0 <lpuart_stop_rx_dma>
D:\CQ9008\sample_codes\Release_example_240606\puf_template\debug/../sdk/platform/drivers/src/lpuart_driver.c:1659
        if (p_lpuart_state->rx_callback != NULL)
    291c:	6a63      	ldr	r3, [r4, #36]	; 0x24
    291e:	2b00      	cmp	r3, #0
    2920:	d003      	beq.n	292a <lpuart_err_irq_handler+0x3a>
D:\CQ9008\sample_codes\Release_example_240606\puf_template\debug/../sdk/platform/drivers/src/lpuart_driver.c:1661
            p_lpuart_state->rx_callback(
    2922:	6aa2      	ldr	r2, [r4, #40]	; 0x28
    2924:	2103      	movs	r1, #3
    2926:	0020      	movs	r0, r4
    2928:	4798      	blx	r3
lpuart_clear_error_flags():
D:\CQ9008\sample_codes\Release_example_240606\puf_template\debug/../sdk/platform/drivers/inc/lpuart_access.h:258
    p_base->STAT = (p_base->STAT & (~FEATURE_LPUART_STAT_REG_FLAGS_MASK)) | mask;
    292a:	696b      	ldr	r3, [r5, #20]
    292c:	4a3a      	ldr	r2, [pc, #232]	; (2a18 <lpuart_err_irq_handler+0x128>)
    292e:	401a      	ands	r2, r3
    2930:	23f0      	movs	r3, #240	; 0xf0
    2932:	031b      	lsls	r3, r3, #12
    2934:	4313      	orrs	r3, r2
    2936:	616b      	str	r3, [r5, #20]
lpuart_err_irq_handler():
D:\CQ9008\sample_codes\Release_example_240606\puf_template\debug/../sdk/platform/drivers/src/lpuart_driver.c:1669
    if (lpuart_get_status_flag(p_base, LPUART_FRAME_ERR))
    2938:	4938      	ldr	r1, [pc, #224]	; (2a1c <lpuart_err_irq_handler+0x12c>)
    293a:	0028      	movs	r0, r5
    293c:	f7ff fdf4 	bl	2528 <lpuart_get_status_flag>
    2940:	2800      	cmp	r0, #0
    2942:	d016      	beq.n	2972 <lpuart_err_irq_handler+0x82>
D:\CQ9008\sample_codes\Release_example_240606\puf_template\debug/../sdk/platform/drivers/src/lpuart_driver.c:1672
        p_lpuart_state->receive_status = STATUS_UART_FRAMING_ERROR;
    2944:	4b36      	ldr	r3, [pc, #216]	; (2a20 <lpuart_err_irq_handler+0x130>)
    2946:	87a3      	strh	r3, [r4, #60]	; 0x3c
D:\CQ9008\sample_codes\Release_example_240606\puf_template\debug/../sdk/platform/drivers/src/lpuart_driver.c:1673
        if (p_lpuart_state->transfer_type == LPUART_USING_INTERRUPTS)
    2948:	2334      	movs	r3, #52	; 0x34
    294a:	5ce3      	ldrb	r3, [r4, r3]
    294c:	2b01      	cmp	r3, #1
    294e:	d04f      	beq.n	29f0 <lpuart_err_irq_handler+0x100>
D:\CQ9008\sample_codes\Release_example_240606\puf_template\debug/../sdk/platform/drivers/src/lpuart_driver.c:1681
            lpuart_stop_rx_dma(instance);
    2950:	0030      	movs	r0, r6
    2952:	f7ff ff45 	bl	27e0 <lpuart_stop_rx_dma>
D:\CQ9008\sample_codes\Release_example_240606\puf_template\debug/../sdk/platform/drivers/src/lpuart_driver.c:1684
        if (p_lpuart_state->rx_callback != NULL)
    2956:	6a63      	ldr	r3, [r4, #36]	; 0x24
    2958:	2b00      	cmp	r3, #0
    295a:	d003      	beq.n	2964 <lpuart_err_irq_handler+0x74>
D:\CQ9008\sample_codes\Release_example_240606\puf_template\debug/../sdk/platform/drivers/src/lpuart_driver.c:1686
            p_lpuart_state->rx_callback(
    295c:	6aa2      	ldr	r2, [r4, #40]	; 0x28
    295e:	2103      	movs	r1, #3
    2960:	0020      	movs	r0, r4
    2962:	4798      	blx	r3
lpuart_clear_error_flags():
D:\CQ9008\sample_codes\Release_example_240606\puf_template\debug/../sdk/platform/drivers/inc/lpuart_access.h:258
    2964:	696b      	ldr	r3, [r5, #20]
    2966:	4a2c      	ldr	r2, [pc, #176]	; (2a18 <lpuart_err_irq_handler+0x128>)
    2968:	401a      	ands	r2, r3
    296a:	23f0      	movs	r3, #240	; 0xf0
    296c:	031b      	lsls	r3, r3, #12
    296e:	4313      	orrs	r3, r2
    2970:	616b      	str	r3, [r5, #20]
lpuart_err_irq_handler():
D:\CQ9008\sample_codes\Release_example_240606\puf_template\debug/../sdk/platform/drivers/src/lpuart_driver.c:1694
    if (lpuart_get_status_flag(p_base, LPUART_PARITY_ERR))
    2972:	492c      	ldr	r1, [pc, #176]	; (2a24 <lpuart_err_irq_handler+0x134>)
    2974:	0028      	movs	r0, r5
    2976:	f7ff fdd7 	bl	2528 <lpuart_get_status_flag>
    297a:	2800      	cmp	r0, #0
    297c:	d016      	beq.n	29ac <lpuart_err_irq_handler+0xbc>
D:\CQ9008\sample_codes\Release_example_240606\puf_template\debug/../sdk/platform/drivers/src/lpuart_driver.c:1697
        p_lpuart_state->receive_status = STATUS_UART_PARITY_ERROR;
    297e:	4b2a      	ldr	r3, [pc, #168]	; (2a28 <lpuart_err_irq_handler+0x138>)
    2980:	87a3      	strh	r3, [r4, #60]	; 0x3c
D:\CQ9008\sample_codes\Release_example_240606\puf_template\debug/../sdk/platform/drivers/src/lpuart_driver.c:1698
        if (p_lpuart_state->transfer_type == LPUART_USING_INTERRUPTS)
    2982:	2334      	movs	r3, #52	; 0x34
    2984:	5ce3      	ldrb	r3, [r4, r3]
    2986:	2b01      	cmp	r3, #1
    2988:	d036      	beq.n	29f8 <lpuart_err_irq_handler+0x108>
D:\CQ9008\sample_codes\Release_example_240606\puf_template\debug/../sdk/platform/drivers/src/lpuart_driver.c:1706
            lpuart_stop_rx_dma(instance);
    298a:	0030      	movs	r0, r6
    298c:	f7ff ff28 	bl	27e0 <lpuart_stop_rx_dma>
D:\CQ9008\sample_codes\Release_example_240606\puf_template\debug/../sdk/platform/drivers/src/lpuart_driver.c:1709
        if (p_lpuart_state->rx_callback != NULL)
    2990:	6a63      	ldr	r3, [r4, #36]	; 0x24
    2992:	2b00      	cmp	r3, #0
    2994:	d003      	beq.n	299e <lpuart_err_irq_handler+0xae>
D:\CQ9008\sample_codes\Release_example_240606\puf_template\debug/../sdk/platform/drivers/src/lpuart_driver.c:1711
            p_lpuart_state->rx_callback(
    2996:	6aa2      	ldr	r2, [r4, #40]	; 0x28
    2998:	2103      	movs	r1, #3
    299a:	0020      	movs	r0, r4
    299c:	4798      	blx	r3
lpuart_clear_error_flags():
D:\CQ9008\sample_codes\Release_example_240606\puf_template\debug/../sdk/platform/drivers/inc/lpuart_access.h:258
    299e:	696b      	ldr	r3, [r5, #20]
    29a0:	4a1d      	ldr	r2, [pc, #116]	; (2a18 <lpuart_err_irq_handler+0x128>)
    29a2:	401a      	ands	r2, r3
    29a4:	23f0      	movs	r3, #240	; 0xf0
    29a6:	031b      	lsls	r3, r3, #12
    29a8:	4313      	orrs	r3, r2
    29aa:	616b      	str	r3, [r5, #20]
lpuart_err_irq_handler():
D:\CQ9008\sample_codes\Release_example_240606\puf_template\debug/../sdk/platform/drivers/src/lpuart_driver.c:1719
    if (lpuart_get_status_flag(p_base, LPUART_NOISE_DETECT))
    29ac:	491f      	ldr	r1, [pc, #124]	; (2a2c <lpuart_err_irq_handler+0x13c>)
    29ae:	0028      	movs	r0, r5
    29b0:	f7ff fdba 	bl	2528 <lpuart_get_status_flag>
    29b4:	2800      	cmp	r0, #0
    29b6:	d016      	beq.n	29e6 <lpuart_err_irq_handler+0xf6>
D:\CQ9008\sample_codes\Release_example_240606\puf_template\debug/../sdk/platform/drivers/src/lpuart_driver.c:1722
        p_lpuart_state->receive_status = STATUS_UART_NOISE_ERROR;
    29b8:	4b1d      	ldr	r3, [pc, #116]	; (2a30 <lpuart_err_irq_handler+0x140>)
    29ba:	87a3      	strh	r3, [r4, #60]	; 0x3c
D:\CQ9008\sample_codes\Release_example_240606\puf_template\debug/../sdk/platform/drivers/src/lpuart_driver.c:1723
        if (p_lpuart_state->transfer_type == LPUART_USING_INTERRUPTS)
    29bc:	2334      	movs	r3, #52	; 0x34
    29be:	5ce3      	ldrb	r3, [r4, r3]
    29c0:	2b01      	cmp	r3, #1
    29c2:	d01d      	beq.n	2a00 <lpuart_err_irq_handler+0x110>
D:\CQ9008\sample_codes\Release_example_240606\puf_template\debug/../sdk/platform/drivers/src/lpuart_driver.c:1731
            lpuart_stop_rx_dma(instance);
    29c4:	0030      	movs	r0, r6
    29c6:	f7ff ff0b 	bl	27e0 <lpuart_stop_rx_dma>
D:\CQ9008\sample_codes\Release_example_240606\puf_template\debug/../sdk/platform/drivers/src/lpuart_driver.c:1734
        if (p_lpuart_state->rx_callback != NULL)
    29ca:	6a63      	ldr	r3, [r4, #36]	; 0x24
    29cc:	2b00      	cmp	r3, #0
    29ce:	d003      	beq.n	29d8 <lpuart_err_irq_handler+0xe8>
D:\CQ9008\sample_codes\Release_example_240606\puf_template\debug/../sdk/platform/drivers/src/lpuart_driver.c:1736
            p_lpuart_state->rx_callback(
    29d0:	6aa2      	ldr	r2, [r4, #40]	; 0x28
    29d2:	2103      	movs	r1, #3
    29d4:	0020      	movs	r0, r4
    29d6:	4798      	blx	r3
lpuart_clear_error_flags():
D:\CQ9008\sample_codes\Release_example_240606\puf_template\debug/../sdk/platform/drivers/inc/lpuart_access.h:258
    29d8:	696b      	ldr	r3, [r5, #20]
    29da:	4a0f      	ldr	r2, [pc, #60]	; (2a18 <lpuart_err_irq_handler+0x128>)
    29dc:	401a      	ands	r2, r3
    29de:	23f0      	movs	r3, #240	; 0xf0
    29e0:	031b      	lsls	r3, r3, #12
    29e2:	4313      	orrs	r3, r2
    29e4:	616b      	str	r3, [r5, #20]
lpuart_err_irq_handler():
D:\CQ9008\sample_codes\Release_example_240606\puf_template\debug/../sdk/platform/drivers/src/lpuart_driver.c:1743
}
    29e6:	bd70      	pop	{r4, r5, r6, pc}
D:\CQ9008\sample_codes\Release_example_240606\puf_template\debug/../sdk/platform/drivers/src/lpuart_driver.c:1651
            lpuart_complete_receive_data_using_int(instance);
    29e8:	0030      	movs	r0, r6
    29ea:	f7ff fe8d 	bl	2708 <lpuart_complete_receive_data_using_int>
    29ee:	e795      	b.n	291c <lpuart_err_irq_handler+0x2c>
D:\CQ9008\sample_codes\Release_example_240606\puf_template\debug/../sdk/platform/drivers/src/lpuart_driver.c:1676
            lpuart_complete_receive_data_using_int(instance);
    29f0:	0030      	movs	r0, r6
    29f2:	f7ff fe89 	bl	2708 <lpuart_complete_receive_data_using_int>
    29f6:	e7ae      	b.n	2956 <lpuart_err_irq_handler+0x66>
D:\CQ9008\sample_codes\Release_example_240606\puf_template\debug/../sdk/platform/drivers/src/lpuart_driver.c:1701
            lpuart_complete_receive_data_using_int(instance);
    29f8:	0030      	movs	r0, r6
    29fa:	f7ff fe85 	bl	2708 <lpuart_complete_receive_data_using_int>
    29fe:	e7c7      	b.n	2990 <lpuart_err_irq_handler+0xa0>
D:\CQ9008\sample_codes\Release_example_240606\puf_template\debug/../sdk/platform/drivers/src/lpuart_driver.c:1726
            lpuart_complete_receive_data_using_int(instance);
    2a00:	0030      	movs	r0, r6
    2a02:	f7ff fe81 	bl	2708 <lpuart_complete_receive_data_using_int>
    2a06:	e7e0      	b.n	29ca <lpuart_err_irq_handler+0xda>
    2a08:	2000030c 	.word	0x2000030c
    2a0c:	00006398 	.word	0x00006398
    2a10:	00020013 	.word	0x00020013
    2a14:	00000601 	.word	0x00000601
    2a18:	3fe03fff 	.word	0x3fe03fff
    2a1c:	00020011 	.word	0x00020011
    2a20:	00000603 	.word	0x00000603
    2a24:	00020010 	.word	0x00020010
    2a28:	00000604 	.word	0x00000604
    2a2c:	00020012 	.word	0x00020012
    2a30:	00000605 	.word	0x00000605

00002a34 <lpuart_install_rx_callback>:
DevAssert():
D:\CQ9008\sample_codes\Release_example_240606\puf_template\debug/../sdk/platform/devices/devassert.h:31
    if (x)
    2a34:	2801      	cmp	r0, #1
    2a36:	d901      	bls.n	2a3c <lpuart_install_rx_callback+0x8>
D:\CQ9008\sample_codes\Release_example_240606\puf_template\debug/../sdk/platform/devices/devassert.h:36
        BKPT_ASM;
    2a38:	be00      	bkpt	0x0000
D:\CQ9008\sample_codes\Release_example_240606\puf_template\debug/../sdk/platform/devices/devassert.h:37
        for (;;)
    2a3a:	e7fe      	b.n	2a3a <lpuart_install_rx_callback+0x6>
lpuart_install_rx_callback():
D:\CQ9008\sample_codes\Release_example_240606\puf_template\debug/../sdk/platform/drivers/src/lpuart_driver.c:657
    lpuart_state_t *p_lpuart_state = (lpuart_state_t *)sp_lpuart_state_ptr[instance];
    2a3c:	0080      	lsls	r0, r0, #2
    2a3e:	4b03      	ldr	r3, [pc, #12]	; (2a4c <lpuart_install_rx_callback+0x18>)
    2a40:	58c3      	ldr	r3, [r0, r3]
D:\CQ9008\sample_codes\Release_example_240606\puf_template\debug/../sdk/platform/drivers/src/lpuart_driver.c:659
    uart_callback_t current_callback    = p_lpuart_state->rx_callback;
    2a42:	6a58      	ldr	r0, [r3, #36]	; 0x24
D:\CQ9008\sample_codes\Release_example_240606\puf_template\debug/../sdk/platform/drivers/src/lpuart_driver.c:660
    p_lpuart_state->rx_callback         = function;
    2a44:	6259      	str	r1, [r3, #36]	; 0x24
D:\CQ9008\sample_codes\Release_example_240606\puf_template\debug/../sdk/platform/drivers/src/lpuart_driver.c:661
    p_lpuart_state->p_rx_callback_param = p_callback_param;
    2a46:	629a      	str	r2, [r3, #40]	; 0x28
D:\CQ9008\sample_codes\Release_example_240606\puf_template\debug/../sdk/platform/drivers/src/lpuart_driver.c:664
}
    2a48:	4770      	bx	lr
    2a4a:	46c0      	nop			; (mov r8, r8)
    2a4c:	2000030c 	.word	0x2000030c

00002a50 <lpuart_send_data_blocking>:
lpuart_send_data_blocking():
D:\CQ9008\sample_codes\Release_example_240606\puf_template\debug/../sdk/platform/drivers/src/lpuart_driver.c:701
{
    2a50:	b570      	push	{r4, r5, r6, lr}
    2a52:	0004      	movs	r4, r0
    2a54:	001d      	movs	r5, r3
DevAssert():
D:\CQ9008\sample_codes\Release_example_240606\puf_template\debug/../sdk/platform/devices/devassert.h:31
    if (x)
    2a56:	2801      	cmp	r0, #1
    2a58:	d901      	bls.n	2a5e <lpuart_send_data_blocking+0xe>
D:\CQ9008\sample_codes\Release_example_240606\puf_template\debug/../sdk/platform/devices/devassert.h:36
        BKPT_ASM;
    2a5a:	be00      	bkpt	0x0000
D:\CQ9008\sample_codes\Release_example_240606\puf_template\debug/../sdk/platform/devices/devassert.h:37
        for (;;)
    2a5c:	e7fe      	b.n	2a5c <lpuart_send_data_blocking+0xc>
D:\CQ9008\sample_codes\Release_example_240606\puf_template\debug/../sdk/platform/devices/devassert.h:31
    if (x)
    2a5e:	2900      	cmp	r1, #0
    2a60:	d101      	bne.n	2a66 <lpuart_send_data_blocking+0x16>
D:\CQ9008\sample_codes\Release_example_240606\puf_template\debug/../sdk/platform/devices/devassert.h:36
        BKPT_ASM;
    2a62:	be00      	bkpt	0x0000
D:\CQ9008\sample_codes\Release_example_240606\puf_template\debug/../sdk/platform/devices/devassert.h:37
        for (;;)
    2a64:	e7fe      	b.n	2a64 <lpuart_send_data_blocking+0x14>
lpuart_send_data_blocking():
D:\CQ9008\sample_codes\Release_example_240606\puf_template\debug/../sdk/platform/drivers/src/lpuart_driver.c:705
    lpuart_state_t *p_lpuart_state = (lpuart_state_t *)sp_lpuart_state_ptr[instance];
    2a66:	0083      	lsls	r3, r0, #2
    2a68:	4817      	ldr	r0, [pc, #92]	; (2ac8 <lpuart_send_data_blocking+0x78>)
    2a6a:	581e      	ldr	r6, [r3, r0]
D:\CQ9008\sample_codes\Release_example_240606\puf_template\debug/../sdk/platform/drivers/src/lpuart_driver.c:710
    p_lpuart_state->b_is_tx_blocking = true;
    2a6c:	2301      	movs	r3, #1
    2a6e:	77b3      	strb	r3, [r6, #30]
D:\CQ9008\sample_codes\Release_example_240606\puf_template\debug/../sdk/platform/drivers/src/lpuart_driver.c:712
    DEV_ASSERT((p_lpuart_state->transfer_type == LPUART_USING_INTERRUPTS) ||
    2a70:	3333      	adds	r3, #51	; 0x33
    2a72:	5cf3      	ldrb	r3, [r6, r3]
DevAssert():
D:\CQ9008\sample_codes\Release_example_240606\puf_template\debug/../sdk/platform/devices/devassert.h:31
    if (x)
    2a74:	2b01      	cmp	r3, #1
    2a76:	d901      	bls.n	2a7c <lpuart_send_data_blocking+0x2c>
D:\CQ9008\sample_codes\Release_example_240606\puf_template\debug/../sdk/platform/devices/devassert.h:36
        BKPT_ASM;
    2a78:	be00      	bkpt	0x0000
D:\CQ9008\sample_codes\Release_example_240606\puf_template\debug/../sdk/platform/devices/devassert.h:37
        for (;;)
    2a7a:	e7fe      	b.n	2a7a <lpuart_send_data_blocking+0x2a>
lpuart_send_data_blocking():
D:\CQ9008\sample_codes\Release_example_240606\puf_template\debug/../sdk/platform/drivers/src/lpuart_driver.c:715
    if (p_lpuart_state->transfer_type == LPUART_USING_INTERRUPTS)
    2a7c:	2b01      	cmp	r3, #1
    2a7e:	d007      	beq.n	2a90 <lpuart_send_data_blocking+0x40>
D:\CQ9008\sample_codes\Release_example_240606\puf_template\debug/../sdk/platform/drivers/src/lpuart_driver.c:723
        ret_val = lpaurt_start_send_data_using_dma(instance, p_tx_buff, tx_size);
    2a80:	0020      	movs	r0, r4
    2a82:	f7ff fa89 	bl	1f98 <lpaurt_start_send_data_using_dma>
D:\CQ9008\sample_codes\Release_example_240606\puf_template\debug/../sdk/platform/drivers/src/lpuart_driver.c:726
    if (ret_val == STATUS_SUCCESS)
    2a86:	2800      	cmp	r0, #0
    2a88:	d006      	beq.n	2a98 <lpuart_send_data_blocking+0x48>
D:\CQ9008\sample_codes\Release_example_240606\puf_template\debug/../sdk/platform/drivers/src/lpuart_driver.c:748
    return p_lpuart_state->transmit_status;
    2a8a:	8f70      	ldrh	r0, [r6, #58]	; 0x3a
    2a8c:	b280      	uxth	r0, r0
D:\CQ9008\sample_codes\Release_example_240606\puf_template\debug/../sdk/platform/drivers/src/lpuart_driver.c:749
}
    2a8e:	bd70      	pop	{r4, r5, r6, pc}
D:\CQ9008\sample_codes\Release_example_240606\puf_template\debug/../sdk/platform/drivers/src/lpuart_driver.c:718
        ret_val = lpuart_start_send_data_using_int(instance, p_tx_buff, tx_size);
    2a90:	0020      	movs	r0, r4
    2a92:	f7ff fb4b 	bl	212c <lpuart_start_send_data_using_int>
    2a96:	e7f6      	b.n	2a86 <lpuart_send_data_blocking+0x36>
D:\CQ9008\sample_codes\Release_example_240606\puf_template\debug/../sdk/platform/drivers/src/lpuart_driver.c:729
        sync_status = osif_sema_wait(&p_lpuart_state->tx_complete, timeout);
    2a98:	0030      	movs	r0, r6
    2a9a:	3038      	adds	r0, #56	; 0x38
    2a9c:	0029      	movs	r1, r5
    2a9e:	f000 fa15 	bl	2ecc <osif_sema_wait>
D:\CQ9008\sample_codes\Release_example_240606\puf_template\debug/../sdk/platform/drivers/src/lpuart_driver.c:732
        if (sync_status == STATUS_TIMEOUT)
    2aa2:	2803      	cmp	r0, #3
    2aa4:	d1f1      	bne.n	2a8a <lpuart_send_data_blocking+0x3a>
D:\CQ9008\sample_codes\Release_example_240606\puf_template\debug/../sdk/platform/drivers/src/lpuart_driver.c:734
            p_lpuart_state->b_is_tx_blocking = false;
    2aa6:	2300      	movs	r3, #0
    2aa8:	77b3      	strb	r3, [r6, #30]
D:\CQ9008\sample_codes\Release_example_240606\puf_template\debug/../sdk/platform/drivers/src/lpuart_driver.c:735
            p_lpuart_state->transmit_status  = STATUS_TIMEOUT;
    2aaa:	3303      	adds	r3, #3
    2aac:	8773      	strh	r3, [r6, #58]	; 0x3a
D:\CQ9008\sample_codes\Release_example_240606\puf_template\debug/../sdk/platform/drivers/src/lpuart_driver.c:737
            if (p_lpuart_state->transfer_type == LPUART_USING_INTERRUPTS)
    2aae:	3331      	adds	r3, #49	; 0x31
    2ab0:	5cf3      	ldrb	r3, [r6, r3]
    2ab2:	2b01      	cmp	r3, #1
    2ab4:	d003      	beq.n	2abe <lpuart_send_data_blocking+0x6e>
D:\CQ9008\sample_codes\Release_example_240606\puf_template\debug/../sdk/platform/drivers/src/lpuart_driver.c:743
                lpuart_stop_tx_dma(instance);
    2ab6:	0020      	movs	r0, r4
    2ab8:	f7ff fbb4 	bl	2224 <lpuart_stop_tx_dma>
    2abc:	e7e5      	b.n	2a8a <lpuart_send_data_blocking+0x3a>
D:\CQ9008\sample_codes\Release_example_240606\puf_template\debug/../sdk/platform/drivers/src/lpuart_driver.c:739
                lpuart_complete_send_data_using_int(instance);
    2abe:	0020      	movs	r0, r4
    2ac0:	f7ff fb78 	bl	21b4 <lpuart_complete_send_data_using_int>
    2ac4:	e7e1      	b.n	2a8a <lpuart_send_data_blocking+0x3a>
    2ac6:	46c0      	nop			; (mov r8, r8)
    2ac8:	2000030c 	.word	0x2000030c

00002acc <lpuart_receive_data>:
lpuart_receive_data():
D:\CQ9008\sample_codes\Release_example_240606\puf_template\debug/../sdk/platform/drivers/src/lpuart_driver.c:1128
{
    2acc:	b510      	push	{r4, lr}
DevAssert():
D:\CQ9008\sample_codes\Release_example_240606\puf_template\debug/../sdk/platform/devices/devassert.h:31
    if (x)
    2ace:	2801      	cmp	r0, #1
    2ad0:	d901      	bls.n	2ad6 <lpuart_receive_data+0xa>
D:\CQ9008\sample_codes\Release_example_240606\puf_template\debug/../sdk/platform/devices/devassert.h:36
        BKPT_ASM;
    2ad2:	be00      	bkpt	0x0000
D:\CQ9008\sample_codes\Release_example_240606\puf_template\debug/../sdk/platform/devices/devassert.h:37
        for (;;)
    2ad4:	e7fe      	b.n	2ad4 <lpuart_receive_data+0x8>
D:\CQ9008\sample_codes\Release_example_240606\puf_template\debug/../sdk/platform/devices/devassert.h:31
    if (x)
    2ad6:	2900      	cmp	r1, #0
    2ad8:	d101      	bne.n	2ade <lpuart_receive_data+0x12>
D:\CQ9008\sample_codes\Release_example_240606\puf_template\debug/../sdk/platform/devices/devassert.h:36
        BKPT_ASM;
    2ada:	be00      	bkpt	0x0000
D:\CQ9008\sample_codes\Release_example_240606\puf_template\debug/../sdk/platform/devices/devassert.h:37
        for (;;)
    2adc:	e7fe      	b.n	2adc <lpuart_receive_data+0x10>
lpuart_receive_data():
D:\CQ9008\sample_codes\Release_example_240606\puf_template\debug/../sdk/platform/drivers/src/lpuart_driver.c:1133
    lpuart_state_t *p_lpuart_state = (lpuart_state_t *)sp_lpuart_state_ptr[instance];
    2ade:	0083      	lsls	r3, r0, #2
    2ae0:	4c08      	ldr	r4, [pc, #32]	; (2b04 <lpuart_receive_data+0x38>)
    2ae2:	591b      	ldr	r3, [r3, r4]
D:\CQ9008\sample_codes\Release_example_240606\puf_template\debug/../sdk/platform/drivers/src/lpuart_driver.c:1136
    p_lpuart_state->b_is_rx_blocking = false;
    2ae4:	2400      	movs	r4, #0
    2ae6:	77dc      	strb	r4, [r3, #31]
D:\CQ9008\sample_codes\Release_example_240606\puf_template\debug/../sdk/platform/drivers/src/lpuart_driver.c:1138
    DEV_ASSERT((p_lpuart_state->transfer_type == LPUART_USING_INTERRUPTS) ||
    2ae8:	3434      	adds	r4, #52	; 0x34
    2aea:	5d1b      	ldrb	r3, [r3, r4]
DevAssert():
D:\CQ9008\sample_codes\Release_example_240606\puf_template\debug/../sdk/platform/devices/devassert.h:31
    if (x)
    2aec:	2b01      	cmp	r3, #1
    2aee:	d901      	bls.n	2af4 <lpuart_receive_data+0x28>
D:\CQ9008\sample_codes\Release_example_240606\puf_template\debug/../sdk/platform/devices/devassert.h:36
        BKPT_ASM;
    2af0:	be00      	bkpt	0x0000
D:\CQ9008\sample_codes\Release_example_240606\puf_template\debug/../sdk/platform/devices/devassert.h:37
        for (;;)
    2af2:	e7fe      	b.n	2af2 <lpuart_receive_data+0x26>
lpuart_receive_data():
D:\CQ9008\sample_codes\Release_example_240606\puf_template\debug/../sdk/platform/drivers/src/lpuart_driver.c:1141
    if (p_lpuart_state->transfer_type == LPUART_USING_INTERRUPTS)
    2af4:	2b01      	cmp	r3, #1
    2af6:	d002      	beq.n	2afe <lpuart_receive_data+0x32>
D:\CQ9008\sample_codes\Release_example_240606\puf_template\debug/../sdk/platform/drivers/src/lpuart_driver.c:1149
        ret_val = lpuart_start_receive_data_using_dma(instance, p_rx_buff, rx_size);
    2af8:	f7ff fd9e 	bl	2638 <lpuart_start_receive_data_using_dma>
D:\CQ9008\sample_codes\Release_example_240606\puf_template\debug/../sdk/platform/drivers/src/lpuart_driver.c:1153
}
    2afc:	bd10      	pop	{r4, pc}
D:\CQ9008\sample_codes\Release_example_240606\puf_template\debug/../sdk/platform/drivers/src/lpuart_driver.c:1144
        ret_val = lpuart_start_receive_data_using_int(instance, p_rx_buff, rx_size);
    2afe:	f7ff fd51 	bl	25a4 <lpuart_start_receive_data_using_int>
    2b02:	e7fb      	b.n	2afc <lpuart_receive_data+0x30>
    2b04:	2000030c 	.word	0x2000030c

00002b08 <lpuart_get_receive_status>:
lpuart_get_receive_status():
D:\CQ9008\sample_codes\Release_example_240606\puf_template\debug/../sdk/platform/drivers/src/lpuart_driver.c:1168
{
    2b08:	b570      	push	{r4, r5, r6, lr}
    2b0a:	000c      	movs	r4, r1
DevAssert():
D:\CQ9008\sample_codes\Release_example_240606\puf_template\debug/../sdk/platform/devices/devassert.h:31
    if (x)
    2b0c:	2801      	cmp	r0, #1
    2b0e:	d901      	bls.n	2b14 <lpuart_get_receive_status+0xc>
D:\CQ9008\sample_codes\Release_example_240606\puf_template\debug/../sdk/platform/devices/devassert.h:36
        BKPT_ASM;
    2b10:	be00      	bkpt	0x0000
D:\CQ9008\sample_codes\Release_example_240606\puf_template\debug/../sdk/platform/devices/devassert.h:37
        for (;;)
    2b12:	e7fe      	b.n	2b12 <lpuart_get_receive_status+0xa>
lpuart_get_receive_status():
D:\CQ9008\sample_codes\Release_example_240606\puf_template\debug/../sdk/platform/drivers/src/lpuart_driver.c:1171
    const lpuart_state_t *p_lpuart_state = (lpuart_state_t *)sp_lpuart_state_ptr[instance];
    2b14:	0080      	lsls	r0, r0, #2
    2b16:	4b0c      	ldr	r3, [pc, #48]	; (2b48 <lpuart_get_receive_status+0x40>)
    2b18:	58c5      	ldr	r5, [r0, r3]
D:\CQ9008\sample_codes\Release_example_240606\puf_template\debug/../sdk/platform/drivers/src/lpuart_driver.c:1173
    if (p_bytes_remaining != NULL)
    2b1a:	2900      	cmp	r1, #0
    2b1c:	d011      	beq.n	2b42 <lpuart_get_receive_status+0x3a>
D:\CQ9008\sample_codes\Release_example_240606\puf_template\debug/../sdk/platform/drivers/src/lpuart_driver.c:1175
        if (p_lpuart_state->b_is_rx_busy)
    2b1e:	7f6b      	ldrb	r3, [r5, #29]
    2b20:	2b00      	cmp	r3, #0
    2b22:	d00c      	beq.n	2b3e <lpuart_get_receive_status+0x36>
D:\CQ9008\sample_codes\Release_example_240606\puf_template\debug/../sdk/platform/drivers/src/lpuart_driver.c:1178
            if (p_lpuart_state->transfer_type == LPUART_USING_INTERRUPTS)
    2b24:	2334      	movs	r3, #52	; 0x34
    2b26:	5ceb      	ldrb	r3, [r5, r3]
    2b28:	2b01      	cmp	r3, #1
    2b2a:	d102      	bne.n	2b32 <lpuart_get_receive_status+0x2a>
D:\CQ9008\sample_codes\Release_example_240606\puf_template\debug/../sdk/platform/drivers/src/lpuart_driver.c:1183
                *p_bytes_remaining = p_lpuart_state->rx_size;
    2b2c:	69ab      	ldr	r3, [r5, #24]
    2b2e:	600b      	str	r3, [r1, #0]
    2b30:	e007      	b.n	2b42 <lpuart_get_receive_status+0x3a>
D:\CQ9008\sample_codes\Release_example_240606\puf_template\debug/../sdk/platform/drivers/src/lpuart_driver.c:1191
                    edma_get_remaining_major_iterations_count(p_lpuart_state->rx_dma_channel);
    2b32:	2335      	movs	r3, #53	; 0x35
    2b34:	5ce8      	ldrb	r0, [r5, r3]
    2b36:	f7ff f91b 	bl	1d70 <edma_get_remaining_major_iterations_count>
D:\CQ9008\sample_codes\Release_example_240606\puf_template\debug/../sdk/platform/drivers/src/lpuart_driver.c:1190
                *p_bytes_remaining =
    2b3a:	6020      	str	r0, [r4, #0]
    2b3c:	e001      	b.n	2b42 <lpuart_get_receive_status+0x3a>
D:\CQ9008\sample_codes\Release_example_240606\puf_template\debug/../sdk/platform/drivers/src/lpuart_driver.c:1196
            *p_bytes_remaining = 0;
    2b3e:	2300      	movs	r3, #0
    2b40:	600b      	str	r3, [r1, #0]
D:\CQ9008\sample_codes\Release_example_240606\puf_template\debug/../sdk/platform/drivers/src/lpuart_driver.c:1200
    return p_lpuart_state->receive_status;
    2b42:	8fa8      	ldrh	r0, [r5, #60]	; 0x3c
    2b44:	b280      	uxth	r0, r0
D:\CQ9008\sample_codes\Release_example_240606\puf_template\debug/../sdk/platform/drivers/src/lpuart_driver.c:1201
}
    2b46:	bd70      	pop	{r4, r5, r6, pc}
    2b48:	2000030c 	.word	0x2000030c

00002b4c <lpuart_set_baud_rate>:
lpuart_set_baud_rate():
D:\CQ9008\sample_codes\Release_example_240606\puf_template\debug/../sdk/platform/drivers/src/lpuart_driver.c:1251
{
    2b4c:	b5f0      	push	{r4, r5, r6, r7, lr}
    2b4e:	46d6      	mov	lr, sl
    2b50:	464f      	mov	r7, r9
    2b52:	4646      	mov	r6, r8
    2b54:	b5c0      	push	{r6, r7, lr}
    2b56:	b086      	sub	sp, #24
    2b58:	0003      	movs	r3, r0
    2b5a:	000c      	movs	r4, r1
DevAssert():
D:\CQ9008\sample_codes\Release_example_240606\puf_template\debug/../sdk/platform/devices/devassert.h:31
    if (x)
    2b5c:	2801      	cmp	r0, #1
    2b5e:	d901      	bls.n	2b64 <lpuart_set_baud_rate+0x18>
D:\CQ9008\sample_codes\Release_example_240606\puf_template\debug/../sdk/platform/devices/devassert.h:36
        BKPT_ASM;
    2b60:	be00      	bkpt	0x0000
D:\CQ9008\sample_codes\Release_example_240606\puf_template\debug/../sdk/platform/devices/devassert.h:37
        for (;;)
    2b62:	e7fe      	b.n	2b62 <lpuart_set_baud_rate+0x16>
lpuart_set_baud_rate():
D:\CQ9008\sample_codes\Release_example_240606\puf_template\debug/../sdk/platform/drivers/src/lpuart_driver.c:1257
    clock_names_t         instance_clk_name = s_lpuart_clk_names[instance];
    2b64:	4a4b      	ldr	r2, [pc, #300]	; (2c94 <lpuart_set_baud_rate+0x148>)
    2b66:	5c10      	ldrb	r0, [r2, r0]
D:\CQ9008\sample_codes\Release_example_240606\puf_template\debug/../sdk/platform/drivers/src/lpuart_driver.c:1258
    LPUART_t             *p_base            = sp_lpuart_base[instance];
    2b68:	009b      	lsls	r3, r3, #2
    2b6a:	4a4b      	ldr	r2, [pc, #300]	; (2c98 <lpuart_set_baud_rate+0x14c>)
    2b6c:	589a      	ldr	r2, [r3, r2]
    2b6e:	4692      	mov	sl, r2
D:\CQ9008\sample_codes\Release_example_240606\puf_template\debug/../sdk/platform/drivers/src/lpuart_driver.c:1260
    p_lpuart_state = (lpuart_state_t *)sp_lpuart_state_ptr[instance];
    2b70:	4a4a      	ldr	r2, [pc, #296]	; (2c9c <lpuart_set_baud_rate+0x150>)
    2b72:	589b      	ldr	r3, [r3, r2]
D:\CQ9008\sample_codes\Release_example_240606\puf_template\debug/../sdk/platform/drivers/src/lpuart_driver.c:1262
    if (p_lpuart_state != NULL)
    2b74:	2b00      	cmp	r3, #0
    2b76:	d007      	beq.n	2b88 <lpuart_set_baud_rate+0x3c>
D:\CQ9008\sample_codes\Release_example_240606\puf_template\debug/../sdk/platform/drivers/src/lpuart_driver.c:1265
        if (p_lpuart_state->b_is_tx_busy == true)
    2b78:	7f1a      	ldrb	r2, [r3, #28]
    2b7a:	2a00      	cmp	r2, #0
    2b7c:	d000      	beq.n	2b80 <lpuart_set_baud_rate+0x34>
    2b7e:	e080      	b.n	2c82 <lpuart_set_baud_rate+0x136>
D:\CQ9008\sample_codes\Release_example_240606\puf_template\debug/../sdk/platform/drivers/src/lpuart_driver.c:1269
        if (p_lpuart_state->b_is_rx_busy == true)
    2b80:	7f5b      	ldrb	r3, [r3, #29]
    2b82:	2b00      	cmp	r3, #0
    2b84:	d000      	beq.n	2b88 <lpuart_set_baud_rate+0x3c>
    2b86:	e083      	b.n	2c90 <lpuart_set_baud_rate+0x144>
D:\CQ9008\sample_codes\Release_example_240606\puf_template\debug/../sdk/platform/drivers/src/lpuart_driver.c:1276
    (void)clock_get_freq(instance_clk_name, &lpuart_source_clock);
    2b88:	a905      	add	r1, sp, #20
    2b8a:	f7fe fd3e 	bl	160a <clock_get_freq>
D:\CQ9008\sample_codes\Release_example_240606\puf_template\debug/../sdk/platform/drivers/src/lpuart_driver.c:1279
    DEV_ASSERT(lpuart_source_clock > 0U);
    2b8e:	9e05      	ldr	r6, [sp, #20]
DevAssert():
D:\CQ9008\sample_codes\Release_example_240606\puf_template\debug/../sdk/platform/devices/devassert.h:31
    if (x)
    2b90:	2e00      	cmp	r6, #0
    2b92:	d101      	bne.n	2b98 <lpuart_set_baud_rate+0x4c>
D:\CQ9008\sample_codes\Release_example_240606\puf_template\debug/../sdk/platform/devices/devassert.h:36
        BKPT_ASM;
    2b94:	be00      	bkpt	0x0000
D:\CQ9008\sample_codes\Release_example_240606\puf_template\debug/../sdk/platform/devices/devassert.h:37
        for (;;)
    2b96:	e7fe      	b.n	2b96 <lpuart_set_baud_rate+0x4a>
lpuart_set_baud_rate():
D:\CQ9008\sample_codes\Release_example_240606\puf_template\debug/../sdk/platform/drivers/src/lpuart_driver.c:1282
    DEV_ASSERT(lpuart_source_clock >= (desired_baud_rate * 4U));
    2b98:	00a1      	lsls	r1, r4, #2
DevAssert():
D:\CQ9008\sample_codes\Release_example_240606\puf_template\debug/../sdk/platform/devices/devassert.h:31
    if (x)
    2b9a:	428e      	cmp	r6, r1
    2b9c:	d201      	bcs.n	2ba2 <lpuart_set_baud_rate+0x56>
D:\CQ9008\sample_codes\Release_example_240606\puf_template\debug/../sdk/platform/devices/devassert.h:36
        BKPT_ASM;
    2b9e:	be00      	bkpt	0x0000
D:\CQ9008\sample_codes\Release_example_240606\puf_template\debug/../sdk/platform/devices/devassert.h:37
        for (;;)
    2ba0:	e7fe      	b.n	2ba0 <lpuart_set_baud_rate+0x54>
lpuart_set_baud_rate():
D:\CQ9008\sample_codes\Release_example_240606\puf_template\debug/../sdk/platform/drivers/src/lpuart_driver.c:1289
    sbr             = (uint16_t)(lpuart_source_clock / (desired_baud_rate * osr));
    2ba2:	0030      	movs	r0, r6
    2ba4:	f7fd fac6 	bl	134 <__udivsi3>
    2ba8:	b283      	uxth	r3, r0
    2baa:	9303      	str	r3, [sp, #12]
D:\CQ9008\sample_codes\Release_example_240606\puf_template\debug/../sdk/platform/drivers/src/lpuart_driver.c:1290
    calculated_baud = (lpuart_source_clock / (osr * sbr));
    2bac:	0401      	lsls	r1, r0, #16
    2bae:	0b89      	lsrs	r1, r1, #14
    2bb0:	0030      	movs	r0, r6
    2bb2:	f7fd fabf 	bl	134 <__udivsi3>
D:\CQ9008\sample_codes\Release_example_240606\puf_template\debug/../sdk/platform/drivers/src/lpuart_driver.c:1291
    if (calculated_baud > desired_baud_rate)
    2bb6:	4284      	cmp	r4, r0
    2bb8:	d20c      	bcs.n	2bd4 <lpuart_set_baud_rate+0x88>
D:\CQ9008\sample_codes\Release_example_240606\puf_template\debug/../sdk/platform/drivers/src/lpuart_driver.c:1293
        baud_diff = calculated_baud - desired_baud_rate;
    2bba:	1b07      	subs	r7, r0, r4
D:\CQ9008\sample_codes\Release_example_240606\puf_template\debug/../sdk/platform/drivers/src/lpuart_driver.c:1300
    max_osr = lpuart_source_clock / desired_baud_rate;
    2bbc:	0021      	movs	r1, r4
    2bbe:	0030      	movs	r0, r6
    2bc0:	f7fd fab8 	bl	134 <__udivsi3>
    2bc4:	4681      	mov	r9, r0
D:\CQ9008\sample_codes\Release_example_240606\puf_template\debug/../sdk/platform/drivers/src/lpuart_driver.c:1301
    if (max_osr > 32U)
    2bc6:	2820      	cmp	r0, #32
    2bc8:	d824      	bhi.n	2c14 <lpuart_set_baud_rate+0xc8>
D:\CQ9008\sample_codes\Release_example_240606\puf_template\debug/../sdk/platform/drivers/src/lpuart_driver.c:1307
    if (max_osr >= 5U)
    2bca:	2804      	cmp	r0, #4
    2bcc:	d824      	bhi.n	2c18 <lpuart_set_baud_rate+0xcc>
D:\CQ9008\sample_codes\Release_example_240606\puf_template\debug/../sdk/platform/drivers/src/lpuart_driver.c:1288
    osr             = 4;
    2bce:	2304      	movs	r3, #4
    2bd0:	9302      	str	r3, [sp, #8]
    2bd2:	e028      	b.n	2c26 <lpuart_set_baud_rate+0xda>
D:\CQ9008\sample_codes\Release_example_240606\puf_template\debug/../sdk/platform/drivers/src/lpuart_driver.c:1297
        baud_diff = desired_baud_rate - calculated_baud;
    2bd4:	1a27      	subs	r7, r4, r0
    2bd6:	e7f1      	b.n	2bbc <lpuart_set_baud_rate+0x70>
D:\CQ9008\sample_codes\Release_example_240606\puf_template\debug/../sdk/platform/drivers/src/lpuart_driver.c:1323
                temp_diff = desired_baud_rate - calculated_baud;
    2bd8:	1a20      	subs	r0, r4, r0
D:\CQ9008\sample_codes\Release_example_240606\puf_template\debug/../sdk/platform/drivers/src/lpuart_driver.c:1326
            if (temp_diff <= baud_diff)
    2bda:	42b8      	cmp	r0, r7
    2bdc:	d804      	bhi.n	2be8 <lpuart_set_baud_rate+0x9c>
D:\CQ9008\sample_codes\Release_example_240606\puf_template\debug/../sdk/platform/drivers/src/lpuart_driver.c:1328
                baud_diff = temp_diff;
    2bde:	0007      	movs	r7, r0
D:\CQ9008\sample_codes\Release_example_240606\puf_template\debug/../sdk/platform/drivers/src/lpuart_driver.c:1329
                osr       = idx;      /* update and store the best osr value calculated */
    2be0:	9b01      	ldr	r3, [sp, #4]
    2be2:	9302      	str	r3, [sp, #8]
D:\CQ9008\sample_codes\Release_example_240606\puf_template\debug/../sdk/platform/drivers/src/lpuart_driver.c:1330
                sbr       = sbr_temp; /* update store the best sbr value calculated */
    2be4:	4643      	mov	r3, r8
    2be6:	9303      	str	r3, [sp, #12]
D:\CQ9008\sample_codes\Release_example_240606\puf_template\debug/../sdk/platform/drivers/src/lpuart_driver.c:1309 (discriminator 2)
        for (idx = 5U; idx <= max_osr; idx++)
    2be8:	3501      	adds	r5, #1
    2bea:	b2ad      	uxth	r5, r5
D:\CQ9008\sample_codes\Release_example_240606\puf_template\debug/../sdk/platform/drivers/src/lpuart_driver.c:1309 (discriminator 1)
    2bec:	9501      	str	r5, [sp, #4]
    2bee:	454d      	cmp	r5, r9
    2bf0:	d816      	bhi.n	2c20 <lpuart_set_baud_rate+0xd4>
D:\CQ9008\sample_codes\Release_example_240606\puf_template\debug/../sdk/platform/drivers/src/lpuart_driver.c:1312
            sbr_temp = (uint16_t)(lpuart_source_clock / (desired_baud_rate * idx));
    2bf2:	0021      	movs	r1, r4
    2bf4:	4369      	muls	r1, r5
    2bf6:	0030      	movs	r0, r6
    2bf8:	f7fd fa9c 	bl	134 <__udivsi3>
    2bfc:	b283      	uxth	r3, r0
    2bfe:	4698      	mov	r8, r3
D:\CQ9008\sample_codes\Release_example_240606\puf_template\debug/../sdk/platform/drivers/src/lpuart_driver.c:1315
            calculated_baud = (lpuart_source_clock / (idx * sbr_temp));
    2c00:	0401      	lsls	r1, r0, #16
    2c02:	0c09      	lsrs	r1, r1, #16
    2c04:	4369      	muls	r1, r5
    2c06:	0030      	movs	r0, r6
    2c08:	f7fd fa94 	bl	134 <__udivsi3>
D:\CQ9008\sample_codes\Release_example_240606\puf_template\debug/../sdk/platform/drivers/src/lpuart_driver.c:1317
            if (calculated_baud > desired_baud_rate)
    2c0c:	4284      	cmp	r4, r0
    2c0e:	d2e3      	bcs.n	2bd8 <lpuart_set_baud_rate+0x8c>
D:\CQ9008\sample_codes\Release_example_240606\puf_template\debug/../sdk/platform/drivers/src/lpuart_driver.c:1319
                temp_diff = calculated_baud - desired_baud_rate;
    2c10:	1b00      	subs	r0, r0, r4
    2c12:	e7e2      	b.n	2bda <lpuart_set_baud_rate+0x8e>
D:\CQ9008\sample_codes\Release_example_240606\puf_template\debug/../sdk/platform/drivers/src/lpuart_driver.c:1303
        max_osr = 32U;
    2c14:	2320      	movs	r3, #32
    2c16:	4699      	mov	r9, r3
D:\CQ9008\sample_codes\Release_example_240606\puf_template\debug/../sdk/platform/drivers/src/lpuart_driver.c:1303 (discriminator 1)
    2c18:	2304      	movs	r3, #4
    2c1a:	9302      	str	r3, [sp, #8]
    2c1c:	2505      	movs	r5, #5
    2c1e:	e7e5      	b.n	2bec <lpuart_set_baud_rate+0xa0>
D:\CQ9008\sample_codes\Release_example_240606\puf_template\debug/../sdk/platform/drivers/src/lpuart_driver.c:1336
    if (osr < 8U)
    2c20:	9b02      	ldr	r3, [sp, #8]
    2c22:	2b07      	cmp	r3, #7
    2c24:	d806      	bhi.n	2c34 <lpuart_set_baud_rate+0xe8>
lpuart_enable_both_edge_sampling():
D:\CQ9008\sample_codes\Release_example_240606\puf_template\debug/../sdk/platform/drivers/inc/lpuart_access.h:164
    p_base->BAUD |= LPUART_BAUD_BOTHEDGE_MASK;
    2c26:	4653      	mov	r3, sl
    2c28:	691a      	ldr	r2, [r3, #16]
    2c2a:	2380      	movs	r3, #128	; 0x80
    2c2c:	029b      	lsls	r3, r3, #10
    2c2e:	4313      	orrs	r3, r2
    2c30:	4652      	mov	r2, sl
    2c32:	6113      	str	r3, [r2, #16]
lpuart_set_baud_rate():
D:\CQ9008\sample_codes\Release_example_240606\puf_template\debug/../sdk/platform/drivers/src/lpuart_driver.c:1342
    lpuart_set_oversampling_ratio(p_base, (osr - 1U));
    2c34:	9f02      	ldr	r7, [sp, #8]
    2c36:	3f01      	subs	r7, #1
DevAssert():
D:\CQ9008\sample_codes\Release_example_240606\puf_template\debug/../sdk/platform/devices/devassert.h:31
    if (x)
    2c38:	2f1f      	cmp	r7, #31
    2c3a:	d901      	bls.n	2c40 <lpuart_set_baud_rate+0xf4>
D:\CQ9008\sample_codes\Release_example_240606\puf_template\debug/../sdk/platform/devices/devassert.h:36
        BKPT_ASM;
    2c3c:	be00      	bkpt	0x0000
D:\CQ9008\sample_codes\Release_example_240606\puf_template\debug/../sdk/platform/devices/devassert.h:37
        for (;;)
    2c3e:	e7fe      	b.n	2c3e <lpuart_set_baud_rate+0xf2>
lpuart_set_oversampling_ratio():
D:\CQ9008\sample_codes\Release_example_240606\puf_template\debug/../sdk/platform/drivers/inc/lpuart_access.h:128
    reg_val = p_base->BAUD;
    2c40:	4653      	mov	r3, sl
    2c42:	691b      	ldr	r3, [r3, #16]
D:\CQ9008\sample_codes\Release_example_240606\puf_template\debug/../sdk/platform/drivers/inc/lpuart_access.h:129
    reg_val &= ~(LPUART_BAUD_OSR_MASK);
    2c44:	4a16      	ldr	r2, [pc, #88]	; (2ca0 <lpuart_set_baud_rate+0x154>)
    2c46:	4013      	ands	r3, r2
D:\CQ9008\sample_codes\Release_example_240606\puf_template\debug/../sdk/platform/drivers/inc/lpuart_access.h:130
    reg_val |= LPUART_BAUD_OSR(over_sampling_ratio);
    2c48:	063f      	lsls	r7, r7, #24
    2c4a:	22f8      	movs	r2, #248	; 0xf8
    2c4c:	0552      	lsls	r2, r2, #21
    2c4e:	4017      	ands	r7, r2
    2c50:	431f      	orrs	r7, r3
D:\CQ9008\sample_codes\Release_example_240606\puf_template\debug/../sdk/platform/drivers/inc/lpuart_access.h:131
    p_base->BAUD = reg_val;
    2c52:	4653      	mov	r3, sl
    2c54:	611f      	str	r7, [r3, #16]
lpuart_set_baud_rate_divisor():
D:\CQ9008\sample_codes\Release_example_240606\puf_template\debug/../sdk/platform/drivers/inc/lpuart_access.h:87
    DEV_ASSERT((baud_rate_divisor <= 0x1FFFU) && (baud_rate_divisor >= 1U));
    2c56:	9b03      	ldr	r3, [sp, #12]
    2c58:	1e5a      	subs	r2, r3, #1
    2c5a:	2300      	movs	r3, #0
    2c5c:	4911      	ldr	r1, [pc, #68]	; (2ca4 <lpuart_set_baud_rate+0x158>)
    2c5e:	4291      	cmp	r1, r2
    2c60:	415b      	adcs	r3, r3
DevAssert():
D:\CQ9008\sample_codes\Release_example_240606\puf_template\debug/../sdk/platform/devices/devassert.h:31
    if (x)
    2c62:	2b00      	cmp	r3, #0
    2c64:	d101      	bne.n	2c6a <lpuart_set_baud_rate+0x11e>
D:\CQ9008\sample_codes\Release_example_240606\puf_template\debug/../sdk/platform/devices/devassert.h:36
        BKPT_ASM;
    2c66:	be00      	bkpt	0x0000
D:\CQ9008\sample_codes\Release_example_240606\puf_template\debug/../sdk/platform/devices/devassert.h:37
        for (;;)
    2c68:	e7fe      	b.n	2c68 <lpuart_set_baud_rate+0x11c>
lpuart_set_baud_rate_divisor():
D:\CQ9008\sample_codes\Release_example_240606\puf_template\debug/../sdk/platform/drivers/inc/lpuart_access.h:90
    reg_val = p_base->BAUD;
    2c6a:	4653      	mov	r3, sl
    2c6c:	691b      	ldr	r3, [r3, #16]
D:\CQ9008\sample_codes\Release_example_240606\puf_template\debug/../sdk/platform/drivers/inc/lpuart_access.h:91
    reg_val &= ~(LPUART_BAUD_SBR_MASK);
    2c6e:	0b5b      	lsrs	r3, r3, #13
    2c70:	035a      	lsls	r2, r3, #13
D:\CQ9008\sample_codes\Release_example_240606\puf_template\debug/../sdk/platform/drivers/inc/lpuart_access.h:92
    reg_val |= LPUART_BAUD_SBR(baud_rate_divisor);
    2c72:	9b03      	ldr	r3, [sp, #12]
    2c74:	04db      	lsls	r3, r3, #19
    2c76:	0cdb      	lsrs	r3, r3, #19
    2c78:	4313      	orrs	r3, r2
D:\CQ9008\sample_codes\Release_example_240606\puf_template\debug/../sdk/platform/drivers/inc/lpuart_access.h:93
    p_base->BAUD = reg_val;
    2c7a:	4652      	mov	r2, sl
    2c7c:	6113      	str	r3, [r2, #16]
lpuart_set_baud_rate():
D:\CQ9008\sample_codes\Release_example_240606\puf_template\debug/../sdk/platform/drivers/src/lpuart_driver.c:1347
    return STATUS_SUCCESS;
    2c7e:	2000      	movs	r0, #0
lpuart_set_baud_rate_divisor():
D:\CQ9008\sample_codes\Release_example_240606\puf_template\debug/../sdk/platform/drivers/inc/lpuart_access.h:94
}
    2c80:	e000      	b.n	2c84 <lpuart_set_baud_rate+0x138>
lpuart_set_baud_rate():
D:\CQ9008\sample_codes\Release_example_240606\puf_template\debug/../sdk/platform/drivers/src/lpuart_driver.c:1267
            return STATUS_BUSY;
    2c82:	2002      	movs	r0, #2
D:\CQ9008\sample_codes\Release_example_240606\puf_template\debug/../sdk/platform/drivers/src/lpuart_driver.c:1348
}
    2c84:	b006      	add	sp, #24
    2c86:	bce0      	pop	{r5, r6, r7}
    2c88:	46ba      	mov	sl, r7
    2c8a:	46b1      	mov	r9, r6
    2c8c:	46a8      	mov	r8, r5
    2c8e:	bdf0      	pop	{r4, r5, r6, r7, pc}
D:\CQ9008\sample_codes\Release_example_240606\puf_template\debug/../sdk/platform/drivers/src/lpuart_driver.c:1271
            return STATUS_BUSY;
    2c90:	2002      	movs	r0, #2
    2c92:	e7f7      	b.n	2c84 <lpuart_set_baud_rate+0x138>
    2c94:	00006390 	.word	0x00006390
    2c98:	00006398 	.word	0x00006398
    2c9c:	2000030c 	.word	0x2000030c
    2ca0:	e0ffffff 	.word	0xe0ffffff
    2ca4:	00001ffe 	.word	0x00001ffe

00002ca8 <lpuart_init>:
lpuart_init():
D:\CQ9008\sample_codes\Release_example_240606\puf_template\debug/../sdk/platform/drivers/src/lpuart_driver.c:522
{
    2ca8:	b5f0      	push	{r4, r5, r6, r7, lr}
    2caa:	b083      	sub	sp, #12
    2cac:	0006      	movs	r6, r0
    2cae:	000c      	movs	r4, r1
    2cb0:	0015      	movs	r5, r2
DevAssert():
D:\CQ9008\sample_codes\Release_example_240606\puf_template\debug/../sdk/platform/devices/devassert.h:31
    if (x)
    2cb2:	2801      	cmp	r0, #1
    2cb4:	d901      	bls.n	2cba <lpuart_init+0x12>
D:\CQ9008\sample_codes\Release_example_240606\puf_template\debug/../sdk/platform/devices/devassert.h:36
        BKPT_ASM;
    2cb6:	be00      	bkpt	0x0000
D:\CQ9008\sample_codes\Release_example_240606\puf_template\debug/../sdk/platform/devices/devassert.h:37
        for (;;)
    2cb8:	e7fe      	b.n	2cb8 <lpuart_init+0x10>
D:\CQ9008\sample_codes\Release_example_240606\puf_template\debug/../sdk/platform/devices/devassert.h:31
    if (x)
    2cba:	2900      	cmp	r1, #0
    2cbc:	d101      	bne.n	2cc2 <lpuart_init+0x1a>
D:\CQ9008\sample_codes\Release_example_240606\puf_template\debug/../sdk/platform/devices/devassert.h:36
        BKPT_ASM;
    2cbe:	be00      	bkpt	0x0000
D:\CQ9008\sample_codes\Release_example_240606\puf_template\debug/../sdk/platform/devices/devassert.h:37
        for (;;)
    2cc0:	e7fe      	b.n	2cc0 <lpuart_init+0x18>
D:\CQ9008\sample_codes\Release_example_240606\puf_template\debug/../sdk/platform/devices/devassert.h:31
    if (x)
    2cc2:	2a00      	cmp	r2, #0
    2cc4:	d101      	bne.n	2cca <lpuart_init+0x22>
D:\CQ9008\sample_codes\Release_example_240606\puf_template\debug/../sdk/platform/devices/devassert.h:36
        BKPT_ASM;
    2cc6:	be00      	bkpt	0x0000
D:\CQ9008\sample_codes\Release_example_240606\puf_template\debug/../sdk/platform/devices/devassert.h:37
        for (;;)
    2cc8:	e7fe      	b.n	2cc8 <lpuart_init+0x20>
lpuart_init():
D:\CQ9008\sample_codes\Release_example_240606\puf_template\debug/../sdk/platform/drivers/src/lpuart_driver.c:529
    LPUART_t     *p_base = sp_lpuart_base[instance];
    2cca:	0083      	lsls	r3, r0, #2
    2ccc:	4a41      	ldr	r2, [pc, #260]	; (2dd4 <lpuart_init+0x12c>)
    2cce:	589f      	ldr	r7, [r3, r2]
D:\CQ9008\sample_codes\Release_example_240606\puf_template\debug/../sdk/platform/drivers/src/lpuart_driver.c:532
    clock_names_t instance_clk_name = s_lpuart_clk_names[instance];
    2cd0:	4b41      	ldr	r3, [pc, #260]	; (2dd8 <lpuart_init+0x130>)
    2cd2:	5c18      	ldrb	r0, [r3, r0]
D:\CQ9008\sample_codes\Release_example_240606\puf_template\debug/../sdk/platform/drivers/src/lpuart_driver.c:535
    (void)clock_get_freq(instance_clk_name, &lpuart_source_clock);
    2cd4:	a901      	add	r1, sp, #4
    2cd6:	f7fe fc98 	bl	160a <clock_get_freq>
DevAssert():
D:\CQ9008\sample_codes\Release_example_240606\puf_template\debug/../sdk/platform/devices/devassert.h:31
    if (x)
    2cda:	9b01      	ldr	r3, [sp, #4]
    2cdc:	2b00      	cmp	r3, #0
    2cde:	d101      	bne.n	2ce4 <lpuart_init+0x3c>
D:\CQ9008\sample_codes\Release_example_240606\puf_template\debug/../sdk/platform/devices/devassert.h:36
        BKPT_ASM;
    2ce0:	be00      	bkpt	0x0000
D:\CQ9008\sample_codes\Release_example_240606\puf_template\debug/../sdk/platform/devices/devassert.h:37
        for (;;)
    2ce2:	e7fe      	b.n	2ce2 <lpuart_init+0x3a>
lpuart_init():
D:\CQ9008\sample_codes\Release_example_240606\puf_template\debug/../sdk/platform/drivers/src/lpuart_driver.c:541
    DEV_ASSERT(sp_lpuart_state_ptr[instance] == NULL);
    2ce4:	00b3      	lsls	r3, r6, #2
    2ce6:	4a3d      	ldr	r2, [pc, #244]	; (2ddc <lpuart_init+0x134>)
    2ce8:	589b      	ldr	r3, [r3, r2]
DevAssert():
D:\CQ9008\sample_codes\Release_example_240606\puf_template\debug/../sdk/platform/devices/devassert.h:31
    if (x)
    2cea:	2b00      	cmp	r3, #0
    2cec:	d001      	beq.n	2cf2 <lpuart_init+0x4a>
D:\CQ9008\sample_codes\Release_example_240606\puf_template\debug/../sdk/platform/devices/devassert.h:36
        BKPT_ASM;
    2cee:	be00      	bkpt	0x0000
D:\CQ9008\sample_codes\Release_example_240606\puf_template\debug/../sdk/platform/devices/devassert.h:37
        for (;;)
    2cf0:	e7fe      	b.n	2cf0 <lpuart_init+0x48>
lpuart_init():
D:\CQ9008\sample_codes\Release_example_240606\puf_template\debug/../sdk/platform/drivers/src/lpuart_driver.c:544
    DEV_ASSERT((p_lpuart_user_config->transfer_type != LPUART_USING_DMA) ||
    2cf2:	79eb      	ldrb	r3, [r5, #7]
    2cf4:	2b00      	cmp	r3, #0
    2cf6:	d104      	bne.n	2d02 <lpuart_init+0x5a>
D:\CQ9008\sample_codes\Release_example_240606\puf_template\debug/../sdk/platform/drivers/src/lpuart_driver.c:544 (discriminator 2)
    2cf8:	79ab      	ldrb	r3, [r5, #6]
    2cfa:	2b00      	cmp	r3, #0
    2cfc:	d106      	bne.n	2d0c <lpuart_init+0x64>
D:\CQ9008\sample_codes\Release_example_240606\puf_template\debug/../sdk/platform/drivers/src/lpuart_driver.c:544
    2cfe:	3301      	adds	r3, #1
    2d00:	e000      	b.n	2d04 <lpuart_init+0x5c>
    2d02:	2301      	movs	r3, #1
DevAssert():
D:\CQ9008\sample_codes\Release_example_240606\puf_template\debug/../sdk/platform/devices/devassert.h:31 (discriminator 6)
    if (x)
    2d04:	2b00      	cmp	r3, #0
    2d06:	d103      	bne.n	2d10 <lpuart_init+0x68>
D:\CQ9008\sample_codes\Release_example_240606\puf_template\debug/../sdk/platform/devices/devassert.h:36
        BKPT_ASM;
    2d08:	be00      	bkpt	0x0000
D:\CQ9008\sample_codes\Release_example_240606\puf_template\debug/../sdk/platform/devices/devassert.h:37
        for (;;)
    2d0a:	e7fe      	b.n	2d0a <lpuart_init+0x62>
lpuart_init():
D:\CQ9008\sample_codes\Release_example_240606\puf_template\debug/../sdk/platform/drivers/src/lpuart_driver.c:544
    2d0c:	2300      	movs	r3, #0
    2d0e:	e7f9      	b.n	2d04 <lpuart_init+0x5c>
D:\CQ9008\sample_codes\Release_example_240606\puf_template\debug/../sdk/platform/drivers/src/lpuart_driver.c:548 (discriminator 6)
    DEV_ASSERT((p_lpuart_user_config->bit_count_per_char != LPUART_10_BITS_PER_CHAR) ||
    2d10:	79ab      	ldrb	r3, [r5, #6]
    2d12:	2b02      	cmp	r3, #2
    2d14:	d004      	beq.n	2d20 <lpuart_init+0x78>
D:\CQ9008\sample_codes\Release_example_240606\puf_template\debug/../sdk/platform/drivers/src/lpuart_driver.c:548
    2d16:	2301      	movs	r3, #1
DevAssert():
D:\CQ9008\sample_codes\Release_example_240606\puf_template\debug/../sdk/platform/devices/devassert.h:31 (discriminator 6)
    if (x)
    2d18:	2b00      	cmp	r3, #0
    2d1a:	d151      	bne.n	2dc0 <lpuart_init+0x118>
D:\CQ9008\sample_codes\Release_example_240606\puf_template\debug/../sdk/platform/devices/devassert.h:36
        BKPT_ASM;
    2d1c:	be00      	bkpt	0x0000
D:\CQ9008\sample_codes\Release_example_240606\puf_template\debug/../sdk/platform/devices/devassert.h:37
        for (;;)
    2d1e:	e7fe      	b.n	2d1e <lpuart_init+0x76>
lpuart_init():
D:\CQ9008\sample_codes\Release_example_240606\puf_template\debug/../sdk/platform/drivers/src/lpuart_driver.c:548 (discriminator 2)
    2d20:	792b      	ldrb	r3, [r5, #4]
    2d22:	2b00      	cmp	r3, #0
    2d24:	d101      	bne.n	2d2a <lpuart_init+0x82>
D:\CQ9008\sample_codes\Release_example_240606\puf_template\debug/../sdk/platform/drivers/src/lpuart_driver.c:548
    2d26:	3301      	adds	r3, #1
    2d28:	e7f6      	b.n	2d18 <lpuart_init+0x70>
    2d2a:	2300      	movs	r3, #0
    2d2c:	e7f4      	b.n	2d18 <lpuart_init+0x70>
D:\CQ9008\sample_codes\Release_example_240606\puf_template\debug/../sdk/platform/drivers/src/lpuart_driver.c:555 (discriminator 3)
        p_clear_struct_ptr[idx] = 0;
    2d2e:	18e2      	adds	r2, r4, r3
    2d30:	2100      	movs	r1, #0
    2d32:	7011      	strb	r1, [r2, #0]
D:\CQ9008\sample_codes\Release_example_240606\puf_template\debug/../sdk/platform/drivers/src/lpuart_driver.c:553 (discriminator 3)
    for (idx = 0; idx < sizeof(lpuart_state_t); idx++)
    2d34:	3301      	adds	r3, #1
D:\CQ9008\sample_codes\Release_example_240606\puf_template\debug/../sdk/platform/drivers/src/lpuart_driver.c:553 (discriminator 1)
    2d36:	2b3f      	cmp	r3, #63	; 0x3f
    2d38:	d9f9      	bls.n	2d2e <lpuart_init+0x86>
D:\CQ9008\sample_codes\Release_example_240606\puf_template\debug/../sdk/platform/drivers/src/lpuart_driver.c:559
    sp_lpuart_state_ptr[instance] = p_lpuart_state_ptr;
    2d3a:	00b3      	lsls	r3, r6, #2
    2d3c:	4a27      	ldr	r2, [pc, #156]	; (2ddc <lpuart_init+0x134>)
    2d3e:	509c      	str	r4, [r3, r2]
D:\CQ9008\sample_codes\Release_example_240606\puf_template\debug/../sdk/platform/drivers/src/lpuart_driver.c:562
    p_lpuart_state_ptr->transfer_type      = p_lpuart_user_config->transfer_type;
    2d40:	79ea      	ldrb	r2, [r5, #7]
    2d42:	2334      	movs	r3, #52	; 0x34
    2d44:	54e2      	strb	r2, [r4, r3]
D:\CQ9008\sample_codes\Release_example_240606\puf_template\debug/../sdk/platform/drivers/src/lpuart_driver.c:563
    p_lpuart_state_ptr->bit_count_per_char = p_lpuart_user_config->bit_count_per_char;
    2d46:	79aa      	ldrb	r2, [r5, #6]
    2d48:	3b14      	subs	r3, #20
    2d4a:	54e2      	strb	r2, [r4, r3]
D:\CQ9008\sample_codes\Release_example_240606\puf_template\debug/../sdk/platform/drivers/src/lpuart_driver.c:564
    p_lpuart_state_ptr->rx_dma_channel     = p_lpuart_user_config->rx_dma_channel;
    2d4c:	7a2a      	ldrb	r2, [r5, #8]
    2d4e:	3315      	adds	r3, #21
    2d50:	54e2      	strb	r2, [r4, r3]
D:\CQ9008\sample_codes\Release_example_240606\puf_template\debug/../sdk/platform/drivers/src/lpuart_driver.c:565
    p_lpuart_state_ptr->tx_dma_channel     = p_lpuart_user_config->tx_dma_channel;
    2d52:	7a6a      	ldrb	r2, [r5, #9]
    2d54:	3301      	adds	r3, #1
    2d56:	54e2      	strb	r2, [r4, r3]
D:\CQ9008\sample_codes\Release_example_240606\puf_template\debug/../sdk/platform/drivers/src/lpuart_driver.c:568
    lpuart_init_set(p_base);
    2d58:	0038      	movs	r0, r7
    2d5a:	f7ff f979 	bl	2050 <lpuart_init_set>
D:\CQ9008\sample_codes\Release_example_240606\puf_template\debug/../sdk/platform/drivers/src/lpuart_driver.c:572
    (void)lpuart_set_baud_rate(instance, p_lpuart_user_config->baud_rate);
    2d5e:	6829      	ldr	r1, [r5, #0]
    2d60:	0030      	movs	r0, r6
    2d62:	f7ff fef3 	bl	2b4c <lpuart_set_baud_rate>
D:\CQ9008\sample_codes\Release_example_240606\puf_template\debug/../sdk/platform/drivers/src/lpuart_driver.c:574
    if (p_lpuart_user_config->parity_mode != LPUART_PARITY_DISABLED)
    2d66:	792b      	ldrb	r3, [r5, #4]
    2d68:	2b00      	cmp	r3, #0
    2d6a:	d02b      	beq.n	2dc4 <lpuart_init+0x11c>
D:\CQ9008\sample_codes\Release_example_240606\puf_template\debug/../sdk/platform/drivers/src/lpuart_driver.c:576
        lpuart_set_bit_count_per_char(p_base, p_lpuart_user_config->bit_count_per_char, true);
    2d6c:	79a9      	ldrb	r1, [r5, #6]
    2d6e:	2201      	movs	r2, #1
    2d70:	0038      	movs	r0, r7
    2d72:	f7ff f97d 	bl	2070 <lpuart_set_bit_count_per_char>
D:\CQ9008\sample_codes\Release_example_240606\puf_template\debug/../sdk/platform/drivers/src/lpuart_driver.c:582
    lpuart_set_parity_mode(p_base, p_lpuart_user_config->parity_mode);
    2d76:	7929      	ldrb	r1, [r5, #4]
    2d78:	0038      	movs	r0, r7
    2d7a:	f7ff f993 	bl	20a4 <lpuart_set_parity_mode>
D:\CQ9008\sample_codes\Release_example_240606\puf_template\debug/../sdk/platform/drivers/src/lpuart_driver.c:583
    lpuart_set_stop_bit_count(p_base, p_lpuart_user_config->stop_bit_count);
    2d7e:	796a      	ldrb	r2, [r5, #5]
lpuart_set_stop_bit_count():
D:\CQ9008\sample_codes\Release_example_240606\puf_template\debug/../sdk/platform/drivers/inc/lpuart_access.h:181
    p_base->BAUD = (p_base->BAUD & ~LPUART_BAUD_SBNS_MASK) |
    2d80:	693b      	ldr	r3, [r7, #16]
    2d82:	4917      	ldr	r1, [pc, #92]	; (2de0 <lpuart_init+0x138>)
    2d84:	400b      	ands	r3, r1
D:\CQ9008\sample_codes\Release_example_240606\puf_template\debug/../sdk/platform/drivers/inc/lpuart_access.h:182
                   ((uint32_t)stop_bit_count << LPUART_BAUD_SBNS_SHIFT);
    2d86:	0352      	lsls	r2, r2, #13
D:\CQ9008\sample_codes\Release_example_240606\puf_template\debug/../sdk/platform/drivers/inc/lpuart_access.h:181
    p_base->BAUD = (p_base->BAUD & ~LPUART_BAUD_SBNS_MASK) |
    2d88:	4313      	orrs	r3, r2
    2d8a:	613b      	str	r3, [r7, #16]
lpuart_init():
D:\CQ9008\sample_codes\Release_example_240606\puf_template\debug/../sdk/platform/drivers/src/lpuart_driver.c:586
    p_lpuart_state_ptr->transmit_status = STATUS_SUCCESS;
    2d8c:	2300      	movs	r3, #0
    2d8e:	8763      	strh	r3, [r4, #58]	; 0x3a
D:\CQ9008\sample_codes\Release_example_240606\puf_template\debug/../sdk/platform/drivers/src/lpuart_driver.c:587
    p_lpuart_state_ptr->receive_status  = STATUS_SUCCESS;
    2d90:	87a3      	strh	r3, [r4, #60]	; 0x3c
D:\CQ9008\sample_codes\Release_example_240606\puf_template\debug/../sdk/platform/drivers/src/lpuart_driver.c:590
    os_status_rx_sem = osif_sema_create(&p_lpuart_state_ptr->rx_complete, 0);
    2d92:	0020      	movs	r0, r4
    2d94:	3037      	adds	r0, #55	; 0x37
    2d96:	2100      	movs	r1, #0
    2d98:	f000 f906 	bl	2fa8 <osif_sema_create>
    2d9c:	0005      	movs	r5, r0
D:\CQ9008\sample_codes\Release_example_240606\puf_template\debug/../sdk/platform/drivers/src/lpuart_driver.c:591
    os_status_tx_sem = osif_sema_create(&p_lpuart_state_ptr->tx_complete, 0);
    2d9e:	0020      	movs	r0, r4
    2da0:	3038      	adds	r0, #56	; 0x38
    2da2:	2100      	movs	r1, #0
    2da4:	f000 f900 	bl	2fa8 <osif_sema_create>
D:\CQ9008\sample_codes\Release_example_240606\puf_template\debug/../sdk/platform/drivers/src/lpuart_driver.c:592
    if ((os_status_rx_sem == STATUS_ERROR) || (os_status_tx_sem == STATUS_ERROR))
    2da8:	2d01      	cmp	r5, #1
    2daa:	d006      	beq.n	2dba <lpuart_init+0x112>
D:\CQ9008\sample_codes\Release_example_240606\puf_template\debug/../sdk/platform/drivers/src/lpuart_driver.c:592 (discriminator 1)
    2dac:	2801      	cmp	r0, #1
    2dae:	d00f      	beq.n	2dd0 <lpuart_init+0x128>
D:\CQ9008\sample_codes\Release_example_240606\puf_template\debug/../sdk/platform/drivers/src/lpuart_driver.c:598
    int_enable_irq(s_lpuart_irq_id[instance]);
    2db0:	4b0c      	ldr	r3, [pc, #48]	; (2de4 <lpuart_init+0x13c>)
    2db2:	5798      	ldrsb	r0, [r3, r6]
    2db4:	f7ff f80c 	bl	1dd0 <int_enable_irq>
D:\CQ9008\sample_codes\Release_example_240606\puf_template\debug/../sdk/platform/drivers/src/lpuart_driver.c:600
    return STATUS_SUCCESS;
    2db8:	2500      	movs	r5, #0
D:\CQ9008\sample_codes\Release_example_240606\puf_template\debug/../sdk/platform/drivers/src/lpuart_driver.c:601
}
    2dba:	0028      	movs	r0, r5
    2dbc:	b003      	add	sp, #12
    2dbe:	bdf0      	pop	{r4, r5, r6, r7, pc}
D:\CQ9008\sample_codes\Release_example_240606\puf_template\debug/../sdk/platform/drivers/src/lpuart_driver.c:553
    for (idx = 0; idx < sizeof(lpuart_state_t); idx++)
    2dc0:	2300      	movs	r3, #0
    2dc2:	e7b8      	b.n	2d36 <lpuart_init+0x8e>
D:\CQ9008\sample_codes\Release_example_240606\puf_template\debug/../sdk/platform/drivers/src/lpuart_driver.c:580
        lpuart_set_bit_count_per_char(p_base, p_lpuart_user_config->bit_count_per_char, false);
    2dc4:	79a9      	ldrb	r1, [r5, #6]
    2dc6:	2200      	movs	r2, #0
    2dc8:	0038      	movs	r0, r7
    2dca:	f7ff f951 	bl	2070 <lpuart_set_bit_count_per_char>
    2dce:	e7d2      	b.n	2d76 <lpuart_init+0xce>
D:\CQ9008\sample_codes\Release_example_240606\puf_template\debug/../sdk/platform/drivers/src/lpuart_driver.c:594
        return STATUS_ERROR;
    2dd0:	0005      	movs	r5, r0
    2dd2:	e7f2      	b.n	2dba <lpuart_init+0x112>
    2dd4:	00006398 	.word	0x00006398
    2dd8:	00006390 	.word	0x00006390
    2ddc:	2000030c 	.word	0x2000030c
    2de0:	ffffdfff 	.word	0xffffdfff
    2de4:	00006394 	.word	0x00006394

00002de8 <lpuart_set_rx_buffer>:
DevAssert():
D:\CQ9008\sample_codes\Release_example_240606\puf_template\debug/../sdk/platform/devices/devassert.h:31
    if (x)
    2de8:	2801      	cmp	r0, #1
    2dea:	d901      	bls.n	2df0 <lpuart_set_rx_buffer+0x8>
D:\CQ9008\sample_codes\Release_example_240606\puf_template\debug/../sdk/platform/devices/devassert.h:36
        BKPT_ASM;
    2dec:	be00      	bkpt	0x0000
D:\CQ9008\sample_codes\Release_example_240606\puf_template\debug/../sdk/platform/devices/devassert.h:37
        for (;;)
    2dee:	e7fe      	b.n	2dee <lpuart_set_rx_buffer+0x6>
D:\CQ9008\sample_codes\Release_example_240606\puf_template\debug/../sdk/platform/devices/devassert.h:31
    if (x)
    2df0:	2900      	cmp	r1, #0
    2df2:	d101      	bne.n	2df8 <lpuart_set_rx_buffer+0x10>
D:\CQ9008\sample_codes\Release_example_240606\puf_template\debug/../sdk/platform/devices/devassert.h:36
        BKPT_ASM;
    2df4:	be00      	bkpt	0x0000
D:\CQ9008\sample_codes\Release_example_240606\puf_template\debug/../sdk/platform/devices/devassert.h:37
        for (;;)
    2df6:	e7fe      	b.n	2df6 <lpuart_set_rx_buffer+0xe>
D:\CQ9008\sample_codes\Release_example_240606\puf_template\debug/../sdk/platform/devices/devassert.h:31
    if (x)
    2df8:	2a00      	cmp	r2, #0
    2dfa:	d101      	bne.n	2e00 <lpuart_set_rx_buffer+0x18>
D:\CQ9008\sample_codes\Release_example_240606\puf_template\debug/../sdk/platform/devices/devassert.h:36
        BKPT_ASM;
    2dfc:	be00      	bkpt	0x0000
D:\CQ9008\sample_codes\Release_example_240606\puf_template\debug/../sdk/platform/devices/devassert.h:37
        for (;;)
    2dfe:	e7fe      	b.n	2dfe <lpuart_set_rx_buffer+0x16>
lpuart_set_rx_buffer():
D:\CQ9008\sample_codes\Release_example_240606\puf_template\debug/../sdk/platform/drivers/src/lpuart_driver.c:1417
    lpuart_state_t *p_lpuart_state = (lpuart_state_t *)sp_lpuart_state_ptr[instance];
    2e00:	0080      	lsls	r0, r0, #2
    2e02:	4b03      	ldr	r3, [pc, #12]	; (2e10 <lpuart_set_rx_buffer+0x28>)
    2e04:	58c3      	ldr	r3, [r0, r3]
D:\CQ9008\sample_codes\Release_example_240606\puf_template\debug/../sdk/platform/drivers/src/lpuart_driver.c:1418
    p_lpuart_state->rxBuff         = p_rx_buff;
    2e06:	6119      	str	r1, [r3, #16]
D:\CQ9008\sample_codes\Release_example_240606\puf_template\debug/../sdk/platform/drivers/src/lpuart_driver.c:1419
    p_lpuart_state->rx_size        = rx_size;
    2e08:	619a      	str	r2, [r3, #24]
D:\CQ9008\sample_codes\Release_example_240606\puf_template\debug/../sdk/platform/drivers/src/lpuart_driver.c:1422
}
    2e0a:	2000      	movs	r0, #0
    2e0c:	4770      	bx	lr
    2e0e:	46c0      	nop			; (mov r8, r8)
    2e10:	2000030c 	.word	0x2000030c

00002e14 <lpuart_irq_handler>:
lpuart_irq_handler():
D:\CQ9008\sample_codes\Release_example_240606\puf_template\debug/../sdk/platform/drivers/src/lpuart_driver.c:1435
{
    2e14:	b570      	push	{r4, r5, r6, lr}
    2e16:	0004      	movs	r4, r0
DevAssert():
D:\CQ9008\sample_codes\Release_example_240606\puf_template\debug/../sdk/platform/devices/devassert.h:31
    if (x)
    2e18:	2801      	cmp	r0, #1
    2e1a:	d901      	bls.n	2e20 <lpuart_irq_handler+0xc>
D:\CQ9008\sample_codes\Release_example_240606\puf_template\debug/../sdk/platform/devices/devassert.h:36
        BKPT_ASM;
    2e1c:	be00      	bkpt	0x0000
D:\CQ9008\sample_codes\Release_example_240606\puf_template\debug/../sdk/platform/devices/devassert.h:37
        for (;;)
    2e1e:	e7fe      	b.n	2e1e <lpuart_irq_handler+0xa>
lpuart_irq_handler():
D:\CQ9008\sample_codes\Release_example_240606\puf_template\debug/../sdk/platform/drivers/src/lpuart_driver.c:1438
    const LPUART_t *p_base = sp_lpuart_base[instance];
    2e20:	0083      	lsls	r3, r0, #2
    2e22:	4a1a      	ldr	r2, [pc, #104]	; (2e8c <lpuart_irq_handler+0x78>)
    2e24:	589d      	ldr	r5, [r3, r2]
D:\CQ9008\sample_codes\Release_example_240606\puf_template\debug/../sdk/platform/drivers/src/lpuart_driver.c:1440
    lpuart_err_irq_handler(instance);
    2e26:	f7ff fd63 	bl	28f0 <lpuart_err_irq_handler>
D:\CQ9008\sample_codes\Release_example_240606\puf_template\debug/../sdk/platform/drivers/src/lpuart_driver.c:1443
    if (lpuart_get_int_mode(p_base, LPUART_INT_RX_DATA_REG_FULL))
    2e2a:	4919      	ldr	r1, [pc, #100]	; (2e90 <lpuart_irq_handler+0x7c>)
    2e2c:	0028      	movs	r0, r5
    2e2e:	f7ff fa83 	bl	2338 <lpuart_get_int_mode>
    2e32:	2800      	cmp	r0, #0
    2e34:	d10c      	bne.n	2e50 <lpuart_irq_handler+0x3c>
D:\CQ9008\sample_codes\Release_example_240606\puf_template\debug/../sdk/platform/drivers/src/lpuart_driver.c:1452
    if (lpuart_get_int_mode(p_base, LPUART_INT_TX_DATA_REG_EMPTY))
    2e36:	4917      	ldr	r1, [pc, #92]	; (2e94 <lpuart_irq_handler+0x80>)
    2e38:	0028      	movs	r0, r5
    2e3a:	f7ff fa7d 	bl	2338 <lpuart_get_int_mode>
    2e3e:	2800      	cmp	r0, #0
    2e40:	d110      	bne.n	2e64 <lpuart_irq_handler+0x50>
D:\CQ9008\sample_codes\Release_example_240606\puf_template\debug/../sdk/platform/drivers/src/lpuart_driver.c:1461
    if (lpuart_get_int_mode(p_base, LPUART_INT_TX_COMPLETE))
    2e42:	4915      	ldr	r1, [pc, #84]	; (2e98 <lpuart_irq_handler+0x84>)
    2e44:	0028      	movs	r0, r5
    2e46:	f7ff fa77 	bl	2338 <lpuart_get_int_mode>
    2e4a:	2800      	cmp	r0, #0
    2e4c:	d114      	bne.n	2e78 <lpuart_irq_handler+0x64>
D:\CQ9008\sample_codes\Release_example_240606\puf_template\debug/../sdk/platform/drivers/src/lpuart_driver.c:1468
}
    2e4e:	bd70      	pop	{r4, r5, r6, pc}
D:\CQ9008\sample_codes\Release_example_240606\puf_template\debug/../sdk/platform/drivers/src/lpuart_driver.c:1445
        if (lpuart_get_status_flag(p_base, LPUART_RX_DATA_REG_FULL))
    2e50:	4912      	ldr	r1, [pc, #72]	; (2e9c <lpuart_irq_handler+0x88>)
    2e52:	0028      	movs	r0, r5
    2e54:	f7ff fb68 	bl	2528 <lpuart_get_status_flag>
    2e58:	2800      	cmp	r0, #0
    2e5a:	d0ec      	beq.n	2e36 <lpuart_irq_handler+0x22>
D:\CQ9008\sample_codes\Release_example_240606\puf_template\debug/../sdk/platform/drivers/src/lpuart_driver.c:1447
            lpuart_rx_irq_handler(instance);
    2e5c:	0020      	movs	r0, r4
    2e5e:	f7ff fc8b 	bl	2778 <lpuart_rx_irq_handler>
    2e62:	e7e8      	b.n	2e36 <lpuart_irq_handler+0x22>
D:\CQ9008\sample_codes\Release_example_240606\puf_template\debug/../sdk/platform/drivers/src/lpuart_driver.c:1454
        if (lpuart_get_status_flag(p_base, LPUART_TX_DATA_REG_EMPTY))
    2e64:	490e      	ldr	r1, [pc, #56]	; (2ea0 <lpuart_irq_handler+0x8c>)
    2e66:	0028      	movs	r0, r5
    2e68:	f7ff fb5e 	bl	2528 <lpuart_get_status_flag>
    2e6c:	2800      	cmp	r0, #0
    2e6e:	d0e8      	beq.n	2e42 <lpuart_irq_handler+0x2e>
D:\CQ9008\sample_codes\Release_example_240606\puf_template\debug/../sdk/platform/drivers/src/lpuart_driver.c:1456
            lpuart_tx_empty_irq_handler(instance);
    2e70:	0020      	movs	r0, r4
    2e72:	f7ff fac7 	bl	2404 <lpuart_tx_empty_irq_handler>
    2e76:	e7e4      	b.n	2e42 <lpuart_irq_handler+0x2e>
D:\CQ9008\sample_codes\Release_example_240606\puf_template\debug/../sdk/platform/drivers/src/lpuart_driver.c:1463
        if (lpuart_get_status_flag(p_base, LPUART_TX_COMPLETE))
    2e78:	490a      	ldr	r1, [pc, #40]	; (2ea4 <lpuart_irq_handler+0x90>)
    2e7a:	0028      	movs	r0, r5
    2e7c:	f7ff fb54 	bl	2528 <lpuart_get_status_flag>
    2e80:	2800      	cmp	r0, #0
    2e82:	d0e4      	beq.n	2e4e <lpuart_irq_handler+0x3a>
D:\CQ9008\sample_codes\Release_example_240606\puf_template\debug/../sdk/platform/drivers/src/lpuart_driver.c:1465
            lpaurt_tx_complete_irq_handler(instance);
    2e84:	0020      	movs	r0, r4
    2e86:	f7ff fa03 	bl	2290 <lpaurt_tx_complete_irq_handler>
D:\CQ9008\sample_codes\Release_example_240606\puf_template\debug/../sdk/platform/drivers/src/lpuart_driver.c:1468
}
    2e8a:	e7e0      	b.n	2e4e <lpuart_irq_handler+0x3a>
    2e8c:	00006398 	.word	0x00006398
    2e90:	00030015 	.word	0x00030015
    2e94:	00030017 	.word	0x00030017
    2e98:	00030016 	.word	0x00030016
    2e9c:	00020015 	.word	0x00020015
    2ea0:	00020017 	.word	0x00020017
    2ea4:	00020016 	.word	0x00020016

00002ea8 <LPUART0_IRQHandler>:
LPUART0_IRQHandler():
D:\CQ9008\sample_codes\Release_example_240606\puf_template\debug/../sdk/platform/drivers/src/lpuart_driver.c:1475
{
    2ea8:	b510      	push	{r4, lr}
D:\CQ9008\sample_codes\Release_example_240606\puf_template\debug/../sdk/platform/drivers/src/lpuart_driver.c:1476
    lpuart_irq_handler(0);
    2eaa:	2000      	movs	r0, #0
    2eac:	f7ff ffb2 	bl	2e14 <lpuart_irq_handler>
D:\CQ9008\sample_codes\Release_example_240606\puf_template\debug/../sdk/platform/drivers/src/lpuart_driver.c:1477
}
    2eb0:	bd10      	pop	{r4, pc}

00002eb2 <LPUART1_IRQHandler>:
LPUART1_IRQHandler():
D:\CQ9008\sample_codes\Release_example_240606\puf_template\debug/../sdk/platform/drivers/src/lpuart_driver.c:1482
{
    2eb2:	b510      	push	{r4, lr}
D:\CQ9008\sample_codes\Release_example_240606\puf_template\debug/../sdk/platform/drivers/src/lpuart_driver.c:1483
    lpuart_irq_handler(1);
    2eb4:	2001      	movs	r0, #1
    2eb6:	f7ff ffad 	bl	2e14 <lpuart_irq_handler>
D:\CQ9008\sample_codes\Release_example_240606\puf_template\debug/../sdk/platform/drivers/src/lpuart_driver.c:1484
}
    2eba:	bd10      	pop	{r4, pc}

00002ebc <SysTick_Handler>:
osif_tick():
D:\CQ9008\sample_codes\Release_example_240606\puf_template\debug/../sdk/platform/drivers/src/osif_driver.c:315
#if defined(CUSTOM_SYSICK_IRQ)
#else
static inline void
osif_tick(void)
{
    s_osif_tick_cnt++;
    2ebc:	4a02      	ldr	r2, [pc, #8]	; (2ec8 <SysTick_Handler+0xc>)
    2ebe:	6813      	ldr	r3, [r2, #0]
    2ec0:	3301      	adds	r3, #1
    2ec2:	6013      	str	r3, [r2, #0]
SysTick_Handler():
D:\CQ9008\sample_codes\Release_example_240606\puf_template\debug/../sdk/platform/drivers/src/osif_driver.c:66
}
    2ec4:	4770      	bx	lr
    2ec6:	46c0      	nop			; (mov r8, r8)
    2ec8:	20000314 	.word	0x20000314

00002ecc <osif_sema_wait>:
osif_sema_wait():
D:\CQ9008\sample_codes\Release_example_240606\puf_template\debug/../sdk/platform/drivers/src/osif_driver.c:187
{
    2ecc:	b570      	push	{r4, r5, r6, lr}
    2ece:	b082      	sub	sp, #8
    2ed0:	0004      	movs	r4, r0
    2ed2:	000d      	movs	r5, r1
DevAssert():
D:\CQ9008\sample_codes\Release_example_240606\puf_template\debug/../sdk/platform/devices/devassert.h:31
    if (x)
    2ed4:	2800      	cmp	r0, #0
    2ed6:	d101      	bne.n	2edc <osif_sema_wait+0x10>
D:\CQ9008\sample_codes\Release_example_240606\puf_template\debug/../sdk/platform/devices/devassert.h:36
        BKPT_ASM;
    2ed8:	be00      	bkpt	0x0000
D:\CQ9008\sample_codes\Release_example_240606\puf_template\debug/../sdk/platform/devices/devassert.h:37
        for (;;)
    2eda:	e7fe      	b.n	2eda <osif_sema_wait+0xe>
osif_update_tick_config():
D:\CQ9008\sample_codes\Release_example_240606\puf_template\debug/../sdk/platform/drivers/src/osif_driver.c:327
}

static inline void
osif_update_tick_config(void)
{
    uint32_t    core_freq  = 0u;
    2edc:	2300      	movs	r3, #0
    2ede:	9301      	str	r3, [sp, #4]
D:\CQ9008\sample_codes\Release_example_240606\puf_template\debug/../sdk/platform/drivers/src/osif_driver.c:331
    static bool first_init = true;
    /* Get the correct name of the core clock */
    clock_names_t core_clk   = CORE_CLK;
    status_t      clk_status = clock_get_freq(core_clk, &core_freq);
    2ee0:	a901      	add	r1, sp, #4
    2ee2:	2000      	movs	r0, #0
    2ee4:	f7fe fb91 	bl	160a <clock_get_freq>
DevAssert():
D:\CQ9008\sample_codes\Release_example_240606\puf_template\debug/../sdk/platform/devices/devassert.h:31
    if (x)
    2ee8:	2800      	cmp	r0, #0
    2eea:	d001      	beq.n	2ef0 <osif_sema_wait+0x24>
D:\CQ9008\sample_codes\Release_example_240606\puf_template\debug/../sdk/platform/devices/devassert.h:36
        BKPT_ASM;
    2eec:	be00      	bkpt	0x0000
D:\CQ9008\sample_codes\Release_example_240606\puf_template\debug/../sdk/platform/devices/devassert.h:37
        for (;;)
    2eee:	e7fe      	b.n	2eee <osif_sema_wait+0x22>
D:\CQ9008\sample_codes\Release_example_240606\puf_template\debug/../sdk/platform/devices/devassert.h:31
    if (x)
    2ef0:	9b01      	ldr	r3, [sp, #4]
    2ef2:	2b00      	cmp	r3, #0
    2ef4:	d101      	bne.n	2efa <osif_sema_wait+0x2e>
D:\CQ9008\sample_codes\Release_example_240606\puf_template\debug/../sdk/platform/devices/devassert.h:36
        BKPT_ASM;
    2ef6:	be00      	bkpt	0x0000
D:\CQ9008\sample_codes\Release_example_240606\puf_template\debug/../sdk/platform/devices/devassert.h:37
        for (;;)
    2ef8:	e7fe      	b.n	2ef8 <osif_sema_wait+0x2c>
osif_update_tick_config():
D:\CQ9008\sample_codes\Release_example_240606\puf_template\debug/../sdk/platform/drivers/src/osif_driver.c:338
    DEV_ASSERT(core_freq > 0u);
    (void)clk_status;

    /* For Cortex-M0 devices the systick counter is initialized with an
     undefined value, so make sure to initialize it to 0 before starting */
    SysTick->CSR = SysTick_CSR_ENABLE(0u);
    2efa:	4e1d      	ldr	r6, [pc, #116]	; (2f70 <osif_sema_wait+0xa4>)
    2efc:	2300      	movs	r3, #0
    2efe:	6033      	str	r3, [r6, #0]
D:\CQ9008\sample_codes\Release_example_240606\puf_template\debug/../sdk/platform/drivers/src/osif_driver.c:339
    SysTick->RVR = SysTick_RVR_RELOAD(core_freq / 1000u);
    2f00:	21fa      	movs	r1, #250	; 0xfa
    2f02:	0089      	lsls	r1, r1, #2
    2f04:	9801      	ldr	r0, [sp, #4]
    2f06:	f7fd f915 	bl	134 <__udivsi3>
    2f0a:	0203      	lsls	r3, r0, #8
    2f0c:	0a1b      	lsrs	r3, r3, #8
    2f0e:	6073      	str	r3, [r6, #4]
D:\CQ9008\sample_codes\Release_example_240606\puf_template\debug/../sdk/platform/drivers/src/osif_driver.c:340
    if (first_init)
    2f10:	4b18      	ldr	r3, [pc, #96]	; (2f74 <osif_sema_wait+0xa8>)
    2f12:	781b      	ldrb	r3, [r3, #0]
    2f14:	2b00      	cmp	r3, #0
    2f16:	d003      	beq.n	2f20 <osif_sema_wait+0x54>
D:\CQ9008\sample_codes\Release_example_240606\puf_template\debug/../sdk/platform/drivers/src/osif_driver.c:343
    {
        /* only initialize CVR on the first entry, to not cause time drift */
        SysTick->CVR = SysTick_CVR_CURRENT(0U);
    2f18:	2300      	movs	r3, #0
    2f1a:	60b3      	str	r3, [r6, #8]
D:\CQ9008\sample_codes\Release_example_240606\puf_template\debug/../sdk/platform/drivers/src/osif_driver.c:344
        first_init   = false;
    2f1c:	4a15      	ldr	r2, [pc, #84]	; (2f74 <osif_sema_wait+0xa8>)
    2f1e:	7013      	strb	r3, [r2, #0]
D:\CQ9008\sample_codes\Release_example_240606\puf_template\debug/../sdk/platform/drivers/src/osif_driver.c:346
    }
    SysTick->CSR = SysTick_CSR_ENABLE(1u) | SysTick_CSR_TICKINT(1u) | SysTick_CSR_CLKSOURCE(1u);
    2f20:	4b13      	ldr	r3, [pc, #76]	; (2f70 <osif_sema_wait+0xa4>)
    2f22:	2207      	movs	r2, #7
    2f24:	601a      	str	r2, [r3, #0]
osif_sema_wait():
D:\CQ9008\sample_codes\Release_example_240606\puf_template\debug/../sdk/platform/drivers/src/osif_driver.c:193
    if ((timeout == 0u))
    2f26:	2d00      	cmp	r5, #0
    2f28:	d10d      	bne.n	2f46 <osif_sema_wait+0x7a>
D:\CQ9008\sample_codes\Release_example_240606\puf_template\debug/../sdk/platform/drivers/src/osif_driver.c:199
        if (*p_sem == 0u)
    2f2a:	7823      	ldrb	r3, [r4, #0]
    2f2c:	2b00      	cmp	r3, #0
    2f2e:	d01c      	beq.n	2f6a <osif_sema_wait+0x9e>
osif_disable_irq_global():
D:\CQ9008\sample_codes\Release_example_240606\puf_template\debug/../sdk/platform/drivers/src/osif_driver.c:352
}

static inline void
osif_disable_irq_global(void)
{
    int_disable_irq_global();
    2f30:	f7fe ff76 	bl	1e20 <int_disable_irq_global>
osif_sema_wait():
D:\CQ9008\sample_codes\Release_example_240606\puf_template\debug/../sdk/platform/drivers/src/osif_driver.c:236
        --(*p_sem);
    2f34:	7823      	ldrb	r3, [r4, #0]
    2f36:	3b01      	subs	r3, #1
    2f38:	b2db      	uxtb	r3, r3
    2f3a:	7023      	strb	r3, [r4, #0]
osif_enable_irq_global():
D:\CQ9008\sample_codes\Release_example_240606\puf_template\debug/../sdk/platform/drivers/src/osif_driver.c:358
}

static inline void
osif_enable_irq_global(void)
{
    int_enable_irq_global();
    2f3c:	f7fe ff62 	bl	1e04 <int_enable_irq_global>
osif_sema_wait():
D:\CQ9008\sample_codes\Release_example_240606\puf_template\debug/../sdk/platform/drivers/src/osif_driver.c:241
}
    2f40:	0028      	movs	r0, r5
    2f42:	b002      	add	sp, #8
    2f44:	bd70      	pop	{r4, r5, r6, pc}
osif_get_current_tick_count():
D:\CQ9008\sample_codes\Release_example_240606\puf_template\debug/../sdk/platform/drivers/src/osif_driver.c:321
    return s_osif_tick_cnt;
    2f46:	4b0c      	ldr	r3, [pc, #48]	; (2f78 <osif_sema_wait+0xac>)
    2f48:	681a      	ldr	r2, [r3, #0]
osif_sema_wait():
D:\CQ9008\sample_codes\Release_example_240606\puf_template\debug/../sdk/platform/drivers/src/osif_driver.c:220
        while (*p_sem == 0u)
    2f4a:	7823      	ldrb	r3, [r4, #0]
    2f4c:	2b00      	cmp	r3, #0
    2f4e:	d108      	bne.n	2f62 <osif_sema_wait+0x96>
osif_get_current_tick_count():
D:\CQ9008\sample_codes\Release_example_240606\puf_template\debug/../sdk/platform/drivers/src/osif_driver.c:321
    return s_osif_tick_cnt;
    2f50:	4b09      	ldr	r3, [pc, #36]	; (2f78 <osif_sema_wait+0xac>)
    2f52:	681b      	ldr	r3, [r3, #0]
osif_sema_wait():
D:\CQ9008\sample_codes\Release_example_240606\puf_template\debug/../sdk/platform/drivers/src/osif_driver.c:223
            uint32_t delta     = crt_ticks - start;
    2f54:	1a9b      	subs	r3, r3, r2
D:\CQ9008\sample_codes\Release_example_240606\puf_template\debug/../sdk/platform/drivers/src/osif_driver.c:224
            if ((timeout_ticks != OSIF_WAIT_FOREVER) && (delta > max))
    2f56:	1c69      	adds	r1, r5, #1
    2f58:	d0f7      	beq.n	2f4a <osif_sema_wait+0x7e>
D:\CQ9008\sample_codes\Release_example_240606\puf_template\debug/../sdk/platform/drivers/src/osif_driver.c:224 (discriminator 1)
    2f5a:	429d      	cmp	r5, r3
    2f5c:	d2f5      	bcs.n	2f4a <osif_sema_wait+0x7e>
D:\CQ9008\sample_codes\Release_example_240606\puf_template\debug/../sdk/platform/drivers/src/osif_driver.c:227
                osif_ret_code = STATUS_TIMEOUT;
    2f5e:	2503      	movs	r5, #3
    2f60:	e000      	b.n	2f64 <osif_sema_wait+0x98>
D:\CQ9008\sample_codes\Release_example_240606\puf_template\debug/../sdk/platform/drivers/src/osif_driver.c:190
    status_t osif_ret_code = STATUS_SUCCESS;
    2f62:	2500      	movs	r5, #0
D:\CQ9008\sample_codes\Release_example_240606\puf_template\debug/../sdk/platform/drivers/src/osif_driver.c:233
    if (osif_ret_code == STATUS_SUCCESS)
    2f64:	2d00      	cmp	r5, #0
    2f66:	d1eb      	bne.n	2f40 <osif_sema_wait+0x74>
    2f68:	e7e2      	b.n	2f30 <osif_sema_wait+0x64>
D:\CQ9008\sample_codes\Release_example_240606\puf_template\debug/../sdk/platform/drivers/src/osif_driver.c:201
            osif_ret_code = STATUS_TIMEOUT;
    2f6a:	2503      	movs	r5, #3
    2f6c:	e7e8      	b.n	2f40 <osif_sema_wait+0x74>
    2f6e:	46c0      	nop			; (mov r8, r8)
    2f70:	e000e010 	.word	0xe000e010
    2f74:	2000014d 	.word	0x2000014d
    2f78:	20000314 	.word	0x20000314

00002f7c <osif_sema_post>:
osif_sema_post():
D:\CQ9008\sample_codes\Release_example_240606\puf_template\debug/../sdk/platform/drivers/src/osif_driver.c:252
{
    2f7c:	b510      	push	{r4, lr}
    2f7e:	1e04      	subs	r4, r0, #0
DevAssert():
D:\CQ9008\sample_codes\Release_example_240606\puf_template\debug/../sdk/platform/devices/devassert.h:31
    if (x)
    2f80:	d101      	bne.n	2f86 <osif_sema_post+0xa>
D:\CQ9008\sample_codes\Release_example_240606\puf_template\debug/../sdk/platform/devices/devassert.h:36
        BKPT_ASM;
    2f82:	be00      	bkpt	0x0000
D:\CQ9008\sample_codes\Release_example_240606\puf_template\debug/../sdk/platform/devices/devassert.h:37
        for (;;)
    2f84:	e7fe      	b.n	2f84 <osif_sema_post+0x8>
osif_disable_irq_global():
D:\CQ9008\sample_codes\Release_example_240606\puf_template\debug/../sdk/platform/drivers/src/osif_driver.c:352
    int_disable_irq_global();
    2f86:	f7fe ff4b 	bl	1e20 <int_disable_irq_global>
osif_sema_post():
D:\CQ9008\sample_codes\Release_example_240606\puf_template\debug/../sdk/platform/drivers/src/osif_driver.c:257
    if (*p_sem != 255u)
    2f8a:	7823      	ldrb	r3, [r4, #0]
    2f8c:	b2db      	uxtb	r3, r3
    2f8e:	2bff      	cmp	r3, #255	; 0xff
    2f90:	d008      	beq.n	2fa4 <osif_sema_post+0x28>
D:\CQ9008\sample_codes\Release_example_240606\puf_template\debug/../sdk/platform/drivers/src/osif_driver.c:259
        ++(*p_sem);
    2f92:	7823      	ldrb	r3, [r4, #0]
    2f94:	3301      	adds	r3, #1
    2f96:	b2db      	uxtb	r3, r3
    2f98:	7023      	strb	r3, [r4, #0]
D:\CQ9008\sample_codes\Release_example_240606\puf_template\debug/../sdk/platform/drivers/src/osif_driver.c:255
    status_t osif_ret_code = STATUS_SUCCESS;
    2f9a:	2400      	movs	r4, #0
osif_enable_irq_global():
D:\CQ9008\sample_codes\Release_example_240606\puf_template\debug/../sdk/platform/drivers/src/osif_driver.c:358
    int_enable_irq_global();
    2f9c:	f7fe ff32 	bl	1e04 <int_enable_irq_global>
osif_sema_post():
D:\CQ9008\sample_codes\Release_example_240606\puf_template\debug/../sdk/platform/drivers/src/osif_driver.c:269
}
    2fa0:	0020      	movs	r0, r4
    2fa2:	bd10      	pop	{r4, pc}
D:\CQ9008\sample_codes\Release_example_240606\puf_template\debug/../sdk/platform/drivers/src/osif_driver.c:263
        osif_ret_code = STATUS_ERROR;
    2fa4:	2401      	movs	r4, #1
    2fa6:	e7f9      	b.n	2f9c <osif_sema_post+0x20>

00002fa8 <osif_sema_create>:
osif_sema_create():
D:\CQ9008\sample_codes\Release_example_240606\puf_template\debug/../sdk/platform/drivers/src/osif_driver.c:280
{
    2fa8:	b570      	push	{r4, r5, r6, lr}
    2faa:	0004      	movs	r4, r0
    2fac:	000d      	movs	r5, r1
DevAssert():
D:\CQ9008\sample_codes\Release_example_240606\puf_template\debug/../sdk/platform/devices/devassert.h:31
    if (x)
    2fae:	2800      	cmp	r0, #0
    2fb0:	d101      	bne.n	2fb6 <osif_sema_create+0xe>
D:\CQ9008\sample_codes\Release_example_240606\puf_template\debug/../sdk/platform/devices/devassert.h:36
        BKPT_ASM;
    2fb2:	be00      	bkpt	0x0000
D:\CQ9008\sample_codes\Release_example_240606\puf_template\debug/../sdk/platform/devices/devassert.h:37
        for (;;)
    2fb4:	e7fe      	b.n	2fb4 <osif_sema_create+0xc>
osif_disable_irq_global():
D:\CQ9008\sample_codes\Release_example_240606\puf_template\debug/../sdk/platform/drivers/src/osif_driver.c:352
    int_disable_irq_global();
    2fb6:	f7fe ff33 	bl	1e20 <int_disable_irq_global>
osif_sema_create():
D:\CQ9008\sample_codes\Release_example_240606\puf_template\debug/../sdk/platform/drivers/src/osif_driver.c:283
    *p_sem = init_value;
    2fba:	7025      	strb	r5, [r4, #0]
osif_enable_irq_global():
D:\CQ9008\sample_codes\Release_example_240606\puf_template\debug/../sdk/platform/drivers/src/osif_driver.c:358
    int_enable_irq_global();
    2fbc:	f7fe ff22 	bl	1e04 <int_enable_irq_global>
osif_sema_create():
D:\CQ9008\sample_codes\Release_example_240606\puf_template\debug/../sdk/platform/drivers/src/osif_driver.c:287
}
    2fc0:	2000      	movs	r0, #0
    2fc2:	bd70      	pop	{r4, r5, r6, pc}

00002fc4 <pins_init_set>:
pins_init_set():
D:\CQ9008\sample_codes\Release_example_240606\puf_template\debug/../sdk/platform/drivers/src/pins_driver.c:438
 * in the provided structure.
 *
 *END**************************************************************************/
static void
pins_init_set(const pin_settings_config_t *p_config)
{
    2fc4:	b570      	push	{r4, r5, r6, lr}
D:\CQ9008\sample_codes\Release_example_240606\puf_template\debug/../sdk/platform/drivers/src/pins_driver.c:439
    DEV_ASSERT(p_config->p_base != NULL);
    2fc6:	6803      	ldr	r3, [r0, #0]
DevAssert():
D:\CQ9008\sample_codes\Release_example_240606\puf_template\debug/../sdk/platform/devices/devassert.h:31
    if (x)
    2fc8:	2b00      	cmp	r3, #0
    2fca:	d101      	bne.n	2fd0 <pins_init_set+0xc>
D:\CQ9008\sample_codes\Release_example_240606\puf_template\debug/../sdk/platform/devices/devassert.h:36
        BKPT_ASM;
    2fcc:	be00      	bkpt	0x0000
D:\CQ9008\sample_codes\Release_example_240606\puf_template\debug/../sdk/platform/devices/devassert.h:37
        for (;;)
    2fce:	e7fe      	b.n	2fce <pins_init_set+0xa>
pins_init_set():
D:\CQ9008\sample_codes\Release_example_240606\puf_template\debug/../sdk/platform/drivers/src/pins_driver.c:440
    DEV_ASSERT((PORT_MUX_AS_GPIO != p_config->mux) || (p_config->p_gpio_base != NULL));
    2fd0:	7a82      	ldrb	r2, [r0, #10]
    2fd2:	2a01      	cmp	r2, #1
    2fd4:	d004      	beq.n	2fe0 <pins_init_set+0x1c>
    2fd6:	2101      	movs	r1, #1
DevAssert():
D:\CQ9008\sample_codes\Release_example_240606\puf_template\debug/../sdk/platform/devices/devassert.h:31 (discriminator 6)
    if (x)
    2fd8:	2900      	cmp	r1, #0
    2fda:	d108      	bne.n	2fee <pins_init_set+0x2a>
D:\CQ9008\sample_codes\Release_example_240606\puf_template\debug/../sdk/platform/devices/devassert.h:36
        BKPT_ASM;
    2fdc:	be00      	bkpt	0x0000
D:\CQ9008\sample_codes\Release_example_240606\puf_template\debug/../sdk/platform/devices/devassert.h:37
        for (;;)
    2fde:	e7fe      	b.n	2fde <pins_init_set+0x1a>
pins_init_set():
D:\CQ9008\sample_codes\Release_example_240606\puf_template\debug/../sdk/platform/drivers/src/pins_driver.c:440 (discriminator 2)
    2fe0:	6901      	ldr	r1, [r0, #16]
    2fe2:	2900      	cmp	r1, #0
    2fe4:	d001      	beq.n	2fea <pins_init_set+0x26>
D:\CQ9008\sample_codes\Release_example_240606\puf_template\debug/../sdk/platform/drivers/src/pins_driver.c:440
    2fe6:	2101      	movs	r1, #1
    2fe8:	e7f6      	b.n	2fd8 <pins_init_set+0x14>
    2fea:	2100      	movs	r1, #0
    2fec:	e7f4      	b.n	2fd8 <pins_init_set+0x14>
D:\CQ9008\sample_codes\Release_example_240606\puf_template\debug/../sdk/platform/drivers/src/pins_driver.c:441 (discriminator 6)
    DEV_ASSERT(p_config->pin_port_idx < PORT_PCR_COUNT);
    2fee:	6841      	ldr	r1, [r0, #4]
DevAssert():
D:\CQ9008\sample_codes\Release_example_240606\puf_template\debug/../sdk/platform/devices/devassert.h:31 (discriminator 6)
    if (x)
    2ff0:	290f      	cmp	r1, #15
    2ff2:	d901      	bls.n	2ff8 <pins_init_set+0x34>
D:\CQ9008\sample_codes\Release_example_240606\puf_template\debug/../sdk/platform/devices/devassert.h:36
        BKPT_ASM;
    2ff4:	be00      	bkpt	0x0000
D:\CQ9008\sample_codes\Release_example_240606\puf_template\debug/../sdk/platform/devices/devassert.h:37
        for (;;)
    2ff6:	e7fe      	b.n	2ff6 <pins_init_set+0x32>
pins_init_set():
D:\CQ9008\sample_codes\Release_example_240606\puf_template\debug/../sdk/platform/drivers/src/pins_driver.c:442 (discriminator 6)
    uint32_t   reg_val = p_config->p_base->PCR[p_config->pin_port_idx];
    2ff8:	008c      	lsls	r4, r1, #2
    2ffa:	58e5      	ldr	r5, [r4, r3]
D:\CQ9008\sample_codes\Release_example_240606\puf_template\debug/../sdk/platform/drivers/src/pins_driver.c:447 (discriminator 6)
    uint32_t   directions;
    uint32_t   digital_filters;
    port_mux_t muxing;

    switch (p_config->pull_config)
    2ffc:	7a04      	ldrb	r4, [r0, #8]
    2ffe:	2c01      	cmp	r4, #1
    3000:	d03c      	beq.n	307c <pins_init_set+0xb8>
D:\CQ9008\sample_codes\Release_example_240606\puf_template\debug/../sdk/platform/drivers/src/pins_driver.c:447
    3002:	2c02      	cmp	r4, #2
    3004:	d03f      	beq.n	3086 <pins_init_set+0xc2>
    3006:	2c00      	cmp	r4, #0
    3008:	d001      	beq.n	300e <pins_init_set+0x4a>
DevAssert():
D:\CQ9008\sample_codes\Release_example_240606\puf_template\debug/../sdk/platform/devices/devassert.h:36
        BKPT_ASM;
    300a:	be00      	bkpt	0x0000
D:\CQ9008\sample_codes\Release_example_240606\puf_template\debug/../sdk/platform/devices/devassert.h:37
        for (;;)
    300c:	e7fe      	b.n	300c <pins_init_set+0x48>
pins_init_set():
D:\CQ9008\sample_codes\Release_example_240606\puf_template\debug/../sdk/platform/drivers/src/pins_driver.c:451
    {
        case PORT_INTERNAL_PULL_NOT_ENABLED:
        {
            reg_val &= ~(PORT_PCR_PE_MASK);
    300e:	3402      	adds	r4, #2
    3010:	43a5      	bics	r5, r4
D:\CQ9008\sample_codes\Release_example_240606\puf_template\debug/../sdk/platform/drivers/src/pins_driver.c:474
            DEV_ASSERT(false);
        }
        break;
    }

    reg_val &= ~(PORT_PCR_DSE_MASK);
    3012:	2440      	movs	r4, #64	; 0x40
    3014:	43a5      	bics	r5, r4
D:\CQ9008\sample_codes\Release_example_240606\puf_template\debug/../sdk/platform/drivers/src/pins_driver.c:475
    reg_val |= PORT_PCR_DSE(p_config->drive_select);
    3016:	7a46      	ldrb	r6, [r0, #9]
    3018:	01b6      	lsls	r6, r6, #6
    301a:	4034      	ands	r4, r6
    301c:	432c      	orrs	r4, r5
D:\CQ9008\sample_codes\Release_example_240606\puf_template\debug/../sdk/platform/drivers/src/pins_driver.c:477

    reg_val &= ~(PORT_PCR_MUX_MASK);
    301e:	4d2e      	ldr	r5, [pc, #184]	; (30d8 <pins_init_set+0x114>)
    3020:	402c      	ands	r4, r5
D:\CQ9008\sample_codes\Release_example_240606\puf_template\debug/../sdk/platform/drivers/src/pins_driver.c:479
    muxing = p_config->mux;
    reg_val |= PORT_PCR_MUX(muxing);
    3022:	0212      	lsls	r2, r2, #8
    3024:	25e0      	movs	r5, #224	; 0xe0
    3026:	00ed      	lsls	r5, r5, #3
    3028:	402a      	ands	r2, r5
    302a:	4322      	orrs	r2, r4
D:\CQ9008\sample_codes\Release_example_240606\puf_template\debug/../sdk/platform/drivers/src/pins_driver.c:481

    reg_val &= ~(PORT_PCR_LK_MASK);
    302c:	4c2b      	ldr	r4, [pc, #172]	; (30dc <pins_init_set+0x118>)
    302e:	4022      	ands	r2, r4
D:\CQ9008\sample_codes\Release_example_240606\puf_template\debug/../sdk/platform/drivers/src/pins_driver.c:482
    reg_val |= PORT_PCR_LK(p_config->b_pin_lock);
    3030:	7ac4      	ldrb	r4, [r0, #11]
    3032:	07e4      	lsls	r4, r4, #31
    3034:	0c24      	lsrs	r4, r4, #16
    3036:	4322      	orrs	r2, r4
D:\CQ9008\sample_codes\Release_example_240606\puf_template\debug/../sdk/platform/drivers/src/pins_driver.c:484

    reg_val &= ~(PORT_PCR_IRQC_MASK);
    3038:	4c29      	ldr	r4, [pc, #164]	; (30e0 <pins_init_set+0x11c>)
    303a:	4014      	ands	r4, r2
D:\CQ9008\sample_codes\Release_example_240606\puf_template\debug/../sdk/platform/drivers/src/pins_driver.c:485
    reg_val |= PORT_PCR_IRQC(p_config->int_config);
    303c:	7b02      	ldrb	r2, [r0, #12]
    303e:	0412      	lsls	r2, r2, #16
    3040:	25f0      	movs	r5, #240	; 0xf0
    3042:	032d      	lsls	r5, r5, #12
    3044:	402a      	ands	r2, r5
    3046:	4322      	orrs	r2, r4
D:\CQ9008\sample_codes\Release_example_240606\puf_template\debug/../sdk/platform/drivers/src/pins_driver.c:486
    if (p_config->b_clear_int_flag)
    3048:	7b44      	ldrb	r4, [r0, #13]
    304a:	2c00      	cmp	r4, #0
    304c:	d004      	beq.n	3058 <pins_init_set+0x94>
D:\CQ9008\sample_codes\Release_example_240606\puf_template\debug/../sdk/platform/drivers/src/pins_driver.c:488
    {
        reg_val &= ~(PORT_PCR_ISF_MASK);
    304e:	4c25      	ldr	r4, [pc, #148]	; (30e4 <pins_init_set+0x120>)
    3050:	4022      	ands	r2, r4
D:\CQ9008\sample_codes\Release_example_240606\puf_template\debug/../sdk/platform/drivers/src/pins_driver.c:489
        reg_val |= PORT_PCR_ISF(1U);
    3052:	2480      	movs	r4, #128	; 0x80
    3054:	0464      	lsls	r4, r4, #17
    3056:	4322      	orrs	r2, r4
D:\CQ9008\sample_codes\Release_example_240606\puf_template\debug/../sdk/platform/drivers/src/pins_driver.c:492
    }

    p_config->p_base->PCR[p_config->pin_port_idx] = reg_val;
    3058:	0089      	lsls	r1, r1, #2
    305a:	50ca      	str	r2, [r1, r3]
D:\CQ9008\sample_codes\Release_example_240606\puf_template\debug/../sdk/platform/drivers/src/pins_driver.c:495

    /* Read current digital filter of port */
    digital_filters = (uint32_t)(p_config->p_base->DFER);
    305c:	6801      	ldr	r1, [r0, #0]
    305e:	25c0      	movs	r5, #192	; 0xc0
    3060:	594b      	ldr	r3, [r1, r5]
D:\CQ9008\sample_codes\Release_example_240606\puf_template\debug/../sdk/platform/drivers/src/pins_driver.c:496
    digital_filters &= ~(1UL << (p_config->pin_port_idx));
    3062:	6844      	ldr	r4, [r0, #4]
    3064:	2201      	movs	r2, #1
    3066:	40a2      	lsls	r2, r4
    3068:	4393      	bics	r3, r2
    306a:	001a      	movs	r2, r3
D:\CQ9008\sample_codes\Release_example_240606\puf_template\debug/../sdk/platform/drivers/src/pins_driver.c:497
    digital_filters |= (((uint32_t)(p_config->b_digital_filter)) << (p_config->pin_port_idx));
    306c:	7b83      	ldrb	r3, [r0, #14]
    306e:	40a3      	lsls	r3, r4
    3070:	4313      	orrs	r3, r2
D:\CQ9008\sample_codes\Release_example_240606\puf_template\debug/../sdk/platform/drivers/src/pins_driver.c:499
    /* Write to digital filter enable register */
    p_config->p_base->DFER = digital_filters;
    3072:	514b      	str	r3, [r1, r5]
D:\CQ9008\sample_codes\Release_example_240606\puf_template\debug/../sdk/platform/drivers/src/pins_driver.c:502

    /* If p_gpio_base address not null setup the direction of pin */
    if (PORT_MUX_AS_GPIO == p_config->mux)
    3074:	7a83      	ldrb	r3, [r0, #10]
    3076:	2b01      	cmp	r3, #1
    3078:	d008      	beq.n	308c <pins_init_set+0xc8>
D:\CQ9008\sample_codes\Release_example_240606\puf_template\debug/../sdk/platform/drivers/src/pins_driver.c:537
        }

        /* Configure direction */
        p_config->p_gpio_base->PDDR = GPIO_PDDR_PDD(directions);
    }
}
    307a:	bd70      	pop	{r4, r5, r6, pc}
D:\CQ9008\sample_codes\Release_example_240606\puf_template\debug/../sdk/platform/drivers/src/pins_driver.c:456
            reg_val &= ~(PORT_PCR_PS_MASK);
    307c:	2401      	movs	r4, #1
    307e:	43a5      	bics	r5, r4
D:\CQ9008\sample_codes\Release_example_240606\puf_template\debug/../sdk/platform/drivers/src/pins_driver.c:457
            reg_val |= PORT_PCR_PE(1U);
    3080:	3401      	adds	r4, #1
    3082:	4325      	orrs	r5, r4
D:\CQ9008\sample_codes\Release_example_240606\puf_template\debug/../sdk/platform/drivers/src/pins_driver.c:459
        break;
    3084:	e7c5      	b.n	3012 <pins_init_set+0x4e>
D:\CQ9008\sample_codes\Release_example_240606\puf_template\debug/../sdk/platform/drivers/src/pins_driver.c:463
            reg_val |= PORT_PCR_PS(1U);
    3086:	2403      	movs	r4, #3
    3088:	4325      	orrs	r5, r4
D:\CQ9008\sample_codes\Release_example_240606\puf_template\debug/../sdk/platform/drivers/src/pins_driver.c:465
        break;
    308a:	e7c2      	b.n	3012 <pins_init_set+0x4e>
D:\CQ9008\sample_codes\Release_example_240606\puf_template\debug/../sdk/platform/drivers/src/pins_driver.c:505
        directions = (uint32_t)(p_config->p_gpio_base->PDDR);
    308c:	6901      	ldr	r1, [r0, #16]
    308e:	694b      	ldr	r3, [r1, #20]
D:\CQ9008\sample_codes\Release_example_240606\puf_template\debug/../sdk/platform/drivers/src/pins_driver.c:506
        switch (p_config->direction)
    3090:	7d02      	ldrb	r2, [r0, #20]
    3092:	2a00      	cmp	r2, #0
    3094:	d003      	beq.n	309e <pins_init_set+0xda>
    3096:	2a01      	cmp	r2, #1
    3098:	d00c      	beq.n	30b4 <pins_init_set+0xf0>
DevAssert():
D:\CQ9008\sample_codes\Release_example_240606\puf_template\debug/../sdk/platform/devices/devassert.h:36
        BKPT_ASM;
    309a:	be00      	bkpt	0x0000
D:\CQ9008\sample_codes\Release_example_240606\puf_template\debug/../sdk/platform/devices/devassert.h:37
        for (;;)
    309c:	e7fe      	b.n	309c <pins_init_set+0xd8>
pins_init_set():
D:\CQ9008\sample_codes\Release_example_240606\puf_template\debug/../sdk/platform/drivers/src/pins_driver.c:510
                directions &= ~(1UL << p_config->pin_port_idx);
    309e:	2401      	movs	r4, #1
    30a0:	6845      	ldr	r5, [r0, #4]
    30a2:	40ac      	lsls	r4, r5
    30a4:	43a3      	bics	r3, r4
D:\CQ9008\sample_codes\Release_example_240606\puf_template\debug/../sdk/platform/drivers/src/pins_driver.c:528
        if (p_config->direction == GPIO_OUTPUT_DIRECTION)
    30a6:	2a01      	cmp	r2, #1
    30a8:	d009      	beq.n	30be <pins_init_set+0xfa>
D:\CQ9008\sample_codes\Release_example_240606\puf_template\debug/../sdk/platform/drivers/src/pins_driver.c:535
        p_config->p_gpio_base->PDDR = GPIO_PDDR_PDD(directions);
    30aa:	6902      	ldr	r2, [r0, #16]
    30ac:	041b      	lsls	r3, r3, #16
    30ae:	0c1b      	lsrs	r3, r3, #16
    30b0:	6153      	str	r3, [r2, #20]
D:\CQ9008\sample_codes\Release_example_240606\puf_template\debug/../sdk/platform/drivers/src/pins_driver.c:537
}
    30b2:	e7e2      	b.n	307a <pins_init_set+0xb6>
D:\CQ9008\sample_codes\Release_example_240606\puf_template\debug/../sdk/platform/drivers/src/pins_driver.c:515
                directions |= (1UL << p_config->pin_port_idx);
    30b4:	2401      	movs	r4, #1
    30b6:	6845      	ldr	r5, [r0, #4]
    30b8:	40ac      	lsls	r4, r5
    30ba:	4323      	orrs	r3, r4
D:\CQ9008\sample_codes\Release_example_240606\puf_template\debug/../sdk/platform/drivers/src/pins_driver.c:517
            break;
    30bc:	e7f3      	b.n	30a6 <pins_init_set+0xe2>
D:\CQ9008\sample_codes\Release_example_240606\puf_template\debug/../sdk/platform/drivers/src/pins_driver.c:530
            pins_gpio_write_pin(
    30be:	6846      	ldr	r6, [r0, #4]
    30c0:	7d44      	ldrb	r4, [r0, #21]
pins_gpio_write_pin():
D:\CQ9008\sample_codes\Release_example_240606\puf_template\debug/../sdk/platform/drivers/inc/pins_access.h:202
 *        - 1: corresponding pin is set to HIGH
 */
static inline void
pins_gpio_write_pin(GPIO_t *const p_base, pins_channel_type_t pin, pins_level_type_t value)
{
    pins_channel_type_t pin_value = (pins_channel_type_t)p_base->PDOR;
    30c2:	680a      	ldr	r2, [r1, #0]
D:\CQ9008\sample_codes\Release_example_240606\puf_template\debug/../sdk/platform/drivers/inc/pins_access.h:203
    pin_value &= (pins_channel_type_t)(~((pins_channel_type_t)1U << pin));
    30c4:	2501      	movs	r5, #1
    30c6:	40b5      	lsls	r5, r6
    30c8:	43aa      	bics	r2, r5
D:\CQ9008\sample_codes\Release_example_240606\puf_template\debug/../sdk/platform/drivers/inc/pins_access.h:204
    pin_value |= (pins_channel_type_t)((pins_channel_type_t)value << pin);
    30ca:	40b4      	lsls	r4, r6
    30cc:	4322      	orrs	r2, r4
D:\CQ9008\sample_codes\Release_example_240606\puf_template\debug/../sdk/platform/drivers/inc/pins_access.h:205
    p_base->PDOR = GPIO_PDOR_PDO(pin_value);
    30ce:	0412      	lsls	r2, r2, #16
    30d0:	0c12      	lsrs	r2, r2, #16
    30d2:	600a      	str	r2, [r1, #0]
D:\CQ9008\sample_codes\Release_example_240606\puf_template\debug/../sdk/platform/drivers/inc/pins_access.h:206
}
    30d4:	e7e9      	b.n	30aa <pins_init_set+0xe6>
    30d6:	46c0      	nop			; (mov r8, r8)
    30d8:	fffff8ff 	.word	0xfffff8ff
    30dc:	ffff7fff 	.word	0xffff7fff
    30e0:	fff0ffff 	.word	0xfff0ffff
    30e4:	feffffff 	.word	0xfeffffff

000030e8 <pins_chip_init>:
pins_chip_init():
D:\CQ9008\sample_codes\Release_example_240606\puf_template\debug/../sdk/platform/drivers/src/pins_driver.c:33
	for(idx=0; idx<16; idx++)
    30e8:	2300      	movs	r3, #0
    30ea:	e008      	b.n	30fe <pins_chip_init+0x16>
D:\CQ9008\sample_codes\Release_example_240606\puf_template\debug/../sdk/platform/drivers/src/pins_driver.c:39 (discriminator 2)
        PORTB->PCR[idx] = 0x00000002;
    30ec:	009a      	lsls	r2, r3, #2
    30ee:	2102      	movs	r1, #2
    30f0:	480a      	ldr	r0, [pc, #40]	; (311c <pins_chip_init+0x34>)
    30f2:	5011      	str	r1, [r2, r0]
D:\CQ9008\sample_codes\Release_example_240606\puf_template\debug/../sdk/platform/drivers/src/pins_driver.c:40 (discriminator 2)
		PORTD->PCR[idx] = 0x00000002;
    30f4:	480a      	ldr	r0, [pc, #40]	; (3120 <pins_chip_init+0x38>)
    30f6:	5011      	str	r1, [r2, r0]
D:\CQ9008\sample_codes\Release_example_240606\puf_template\debug/../sdk/platform/drivers/src/pins_driver.c:41 (discriminator 2)
		PORTE->PCR[idx] = 0x00000002;
    30f8:	480a      	ldr	r0, [pc, #40]	; (3124 <pins_chip_init+0x3c>)
    30fa:	5011      	str	r1, [r2, r0]
D:\CQ9008\sample_codes\Release_example_240606\puf_template\debug/../sdk/platform/drivers/src/pins_driver.c:33 (discriminator 2)
	for(idx=0; idx<16; idx++)
    30fc:	3301      	adds	r3, #1
D:\CQ9008\sample_codes\Release_example_240606\puf_template\debug/../sdk/platform/drivers/src/pins_driver.c:33 (discriminator 1)
    30fe:	2b0f      	cmp	r3, #15
    3100:	d80a      	bhi.n	3118 <pins_chip_init+0x30>
D:\CQ9008\sample_codes\Release_example_240606\puf_template\debug/../sdk/platform/drivers/src/pins_driver.c:35
	    if((pin >> idx) & 0x01){
    3102:	4a09      	ldr	r2, [pc, #36]	; (3128 <pins_chip_init+0x40>)
    3104:	40da      	lsrs	r2, r3
    3106:	07d2      	lsls	r2, r2, #31
    3108:	d5f0      	bpl.n	30ec <pins_chip_init+0x4>
D:\CQ9008\sample_codes\Release_example_240606\puf_template\debug/../sdk/platform/drivers/src/pins_driver.c:36
		    PORTA->PCR[idx] = 0x00000002;
    310a:	009a      	lsls	r2, r3, #2
    310c:	2102      	movs	r1, #2
    310e:	4807      	ldr	r0, [pc, #28]	; (312c <pins_chip_init+0x44>)
    3110:	5011      	str	r1, [r2, r0]
D:\CQ9008\sample_codes\Release_example_240606\puf_template\debug/../sdk/platform/drivers/src/pins_driver.c:37
		    PORTC->PCR[idx] = 0x00000002;
    3112:	4807      	ldr	r0, [pc, #28]	; (3130 <pins_chip_init+0x48>)
    3114:	5011      	str	r1, [r2, r0]
    3116:	e7e9      	b.n	30ec <pins_chip_init+0x4>
D:\CQ9008\sample_codes\Release_example_240606\puf_template\debug/../sdk/platform/drivers/src/pins_driver.c:43
}
    3118:	4770      	bx	lr
    311a:	46c0      	nop			; (mov r8, r8)
    311c:	4004a000 	.word	0x4004a000
    3120:	4004c000 	.word	0x4004c000
    3124:	4004d000 	.word	0x4004d000
    3128:	0000ffef 	.word	0x0000ffef
    312c:	40049000 	.word	0x40049000
    3130:	4004b000 	.word	0x4004b000

00003134 <pins_init>:
pins_init():
D:\CQ9008\sample_codes\Release_example_240606\puf_template\debug/../sdk/platform/drivers/src/pins_driver.c:55
{
    3134:	b570      	push	{r4, r5, r6, lr}
    3136:	0005      	movs	r5, r0
    3138:	000e      	movs	r6, r1
D:\CQ9008\sample_codes\Release_example_240606\puf_template\debug/../sdk/platform/drivers/src/pins_driver.c:57
    for (idx = 0U; idx < pin_count; idx++)
    313a:	2400      	movs	r4, #0
    313c:	e006      	b.n	314c <pins_init+0x18>
D:\CQ9008\sample_codes\Release_example_240606\puf_template\debug/../sdk/platform/drivers/src/pins_driver.c:59 (discriminator 3)
        pins_init_set(&config[idx]);
    313e:	0060      	lsls	r0, r4, #1
    3140:	1900      	adds	r0, r0, r4
    3142:	00c0      	lsls	r0, r0, #3
    3144:	1830      	adds	r0, r6, r0
    3146:	f7ff ff3d 	bl	2fc4 <pins_init_set>
D:\CQ9008\sample_codes\Release_example_240606\puf_template\debug/../sdk/platform/drivers/src/pins_driver.c:57 (discriminator 3)
    for (idx = 0U; idx < pin_count; idx++)
    314a:	3401      	adds	r4, #1
D:\CQ9008\sample_codes\Release_example_240606\puf_template\debug/../sdk/platform/drivers/src/pins_driver.c:57 (discriminator 1)
    314c:	42ac      	cmp	r4, r5
    314e:	d3f6      	bcc.n	313e <pins_init+0xa>
D:\CQ9008\sample_codes\Release_example_240606\puf_template\debug/../sdk/platform/drivers/src/pins_driver.c:62
}
    3150:	2000      	movs	r0, #0
    3152:	bd70      	pop	{r4, r5, r6, pc}

00003154 <pins_toggle_pins>:
pins_gpio_toggle_pins():
D:\CQ9008\sample_codes\Release_example_240606\puf_template\debug/../sdk/platform/drivers/inc/pins_access.h:298
 *        - 1: corresponding pin is toggled
 */
static inline void
pins_gpio_toggle_pins(GPIO_t *const p_base, pins_channel_type_t pins)
{
    p_base->PTOR = GPIO_PTOR_PTTO(pins);
    3154:	0409      	lsls	r1, r1, #16
    3156:	0c09      	lsrs	r1, r1, #16
    3158:	60c1      	str	r1, [r0, #12]
pins_toggle_pins():
D:\CQ9008\sample_codes\Release_example_240606\puf_template\debug/../sdk/platform/drivers/src/pins_driver.c:410
}
    315a:	4770      	bx	lr

0000315c <SystemInit>:
SystemInit():
D:\CQ9008\sample_codes\Release_example_240606\puf_template\debug/../sdk/platform/devices/tw9001/startup/system_tw9001.c:41
    /**************************************************************************/

#if (DISABLE_WDOG)
    /* Write of the WDOG unlock key to CNT register, must be done in order to
     * allow any modifications*/
    WDOG->CNT = (uint32_t)FEATURE_WDOG_UNLOCK_VALUE;
    315c:	4b04      	ldr	r3, [pc, #16]	; (3170 <SystemInit+0x14>)
    315e:	4a05      	ldr	r2, [pc, #20]	; (3174 <SystemInit+0x18>)
    3160:	605a      	str	r2, [r3, #4]
D:\CQ9008\sample_codes\Release_example_240606\puf_template\debug/../sdk/platform/devices/tw9001/startup/system_tw9001.c:44
    /* The dummy read is used in order to make sure that the WDOG registers will
     * be configured only after the write of the unlock value was completed. */
    (void)WDOG->CNT;
    3162:	685a      	ldr	r2, [r3, #4]
D:\CQ9008\sample_codes\Release_example_240606\puf_template\debug/../sdk/platform/devices/tw9001/startup/system_tw9001.c:49

    /* Initial write of WDOG configuration register:
     * enables support for 32-bit refresh/unlock command write words,
     * clock select from LPO, update enable, watchdog disabled */
    WDOG->CS = (uint32_t)((1UL << WDOG_CS_CMD32EN_SHIFT) |
    3164:	4a04      	ldr	r2, [pc, #16]	; (3178 <SystemInit+0x1c>)
    3166:	601a      	str	r2, [r3, #0]
D:\CQ9008\sample_codes\Release_example_240606\puf_template\debug/../sdk/platform/devices/tw9001/startup/system_tw9001.c:54
                          (FEATURE_WDOG_CLK_FROM_LPO << WDOG_CS_CLK_SHIFT) |
                          (0U << WDOG_CS_EN_SHIFT) | (1U << WDOG_CS_UPDATE_SHIFT));

    /* Configure timeout */
    WDOG->TOVAL = (uint32_t)0xFFFF;
    3168:	4a04      	ldr	r2, [pc, #16]	; (317c <SystemInit+0x20>)
    316a:	609a      	str	r2, [r3, #8]
D:\CQ9008\sample_codes\Release_example_240606\puf_template\debug/../sdk/platform/devices/tw9001/startup/system_tw9001.c:56
#endif /* (DISABLE_WDOG) */
}
    316c:	4770      	bx	lr
    316e:	46c0      	nop			; (mov r8, r8)
    3170:	40052000 	.word	0x40052000
    3174:	d928c520 	.word	0xd928c520
    3178:	00002120 	.word	0x00002120
    317c:	0000ffff 	.word	0x0000ffff

00003180 <init_data_bss>:
init_data_bss():
D:\CQ9008\sample_codes\Release_example_240606\puf_template\debug/../sdk/platform/devices/startup.c:69
    extern uint32_t __CUSTOM_ROM[];
    extern uint32_t __CUSTOM_END[];

    /* Data */
    data_ram     = (uint8_t *)__DATA_RAM;
    data_rom     = (uint8_t *)__DATA_ROM;
    3180:	4b13      	ldr	r3, [pc, #76]	; (31d0 <init_data_bss+0x50>)
D:\CQ9008\sample_codes\Release_example_240606\puf_template\debug/../sdk/platform/devices/startup.c:68
    data_ram     = (uint8_t *)__DATA_RAM;
    3182:	4a14      	ldr	r2, [pc, #80]	; (31d4 <init_data_bss+0x54>)
D:\CQ9008\sample_codes\Release_example_240606\puf_template\debug/../sdk/platform/devices/startup.c:85
    custom_ram     = CUSTOMSECTION_SECTION_START;
    custom_rom     = (uint8_t *)__CUSTOM_ROM;
    custom_rom_end = (uint8_t *)__CUSTOM_END;

    /* Copy initialized data from ROM to RAM */
    while (data_rom_end != data_rom)
    3184:	e003      	b.n	318e <init_data_bss+0xe>
D:\CQ9008\sample_codes\Release_example_240606\puf_template\debug/../sdk/platform/devices/startup.c:87
    {
        *data_ram = *data_rom;
    3186:	7819      	ldrb	r1, [r3, #0]
    3188:	7011      	strb	r1, [r2, #0]
D:\CQ9008\sample_codes\Release_example_240606\puf_template\debug/../sdk/platform/devices/startup.c:88
        data_ram++;
    318a:	3201      	adds	r2, #1
D:\CQ9008\sample_codes\Release_example_240606\puf_template\debug/../sdk/platform/devices/startup.c:89
        data_rom++;
    318c:	3301      	adds	r3, #1
D:\CQ9008\sample_codes\Release_example_240606\puf_template\debug/../sdk/platform/devices/startup.c:85
    while (data_rom_end != data_rom)
    318e:	4912      	ldr	r1, [pc, #72]	; (31d8 <init_data_bss+0x58>)
    3190:	428b      	cmp	r3, r1
    3192:	d1f8      	bne.n	3186 <init_data_bss+0x6>
D:\CQ9008\sample_codes\Release_example_240606\puf_template\debug/../sdk/platform/devices/startup.c:73
    code_rom     = (uint8_t *)__CODE_ROM;
    3194:	4b11      	ldr	r3, [pc, #68]	; (31dc <init_data_bss+0x5c>)
D:\CQ9008\sample_codes\Release_example_240606\puf_template\debug/../sdk/platform/devices/startup.c:72
    code_ram     = (uint8_t *)__CODE_RAM;
    3196:	4a12      	ldr	r2, [pc, #72]	; (31e0 <init_data_bss+0x60>)
    3198:	e003      	b.n	31a2 <init_data_bss+0x22>
D:\CQ9008\sample_codes\Release_example_240606\puf_template\debug/../sdk/platform/devices/startup.c:95
    }

    /* Copy functions from ROM to RAM */
    while (code_rom_end != code_rom)
    {
        *code_ram = *code_rom;
    319a:	7819      	ldrb	r1, [r3, #0]
    319c:	7011      	strb	r1, [r2, #0]
D:\CQ9008\sample_codes\Release_example_240606\puf_template\debug/../sdk/platform/devices/startup.c:96
        code_ram++;
    319e:	3201      	adds	r2, #1
D:\CQ9008\sample_codes\Release_example_240606\puf_template\debug/../sdk/platform/devices/startup.c:97
        code_rom++;
    31a0:	3301      	adds	r3, #1
D:\CQ9008\sample_codes\Release_example_240606\puf_template\debug/../sdk/platform/devices/startup.c:93
    while (code_rom_end != code_rom)
    31a2:	4910      	ldr	r1, [pc, #64]	; (31e4 <init_data_bss+0x64>)
    31a4:	428b      	cmp	r3, r1
    31a6:	d1f8      	bne.n	319a <init_data_bss+0x1a>
D:\CQ9008\sample_codes\Release_example_240606\puf_template\debug/../sdk/platform/devices/startup.c:76
    bss_start = (uint8_t *)__BSS_START;
    31a8:	4b0f      	ldr	r3, [pc, #60]	; (31e8 <init_data_bss+0x68>)
    31aa:	e002      	b.n	31b2 <init_data_bss+0x32>
D:\CQ9008\sample_codes\Release_example_240606\puf_template\debug/../sdk/platform/devices/startup.c:103
    }

    /* Clear the zero-initialized data section */
    while (bss_end != bss_start)
    {
        *bss_start = 0;
    31ac:	2200      	movs	r2, #0
    31ae:	701a      	strb	r2, [r3, #0]
D:\CQ9008\sample_codes\Release_example_240606\puf_template\debug/../sdk/platform/devices/startup.c:104
        bss_start++;
    31b0:	3301      	adds	r3, #1
D:\CQ9008\sample_codes\Release_example_240606\puf_template\debug/../sdk/platform/devices/startup.c:101
    while (bss_end != bss_start)
    31b2:	4a0e      	ldr	r2, [pc, #56]	; (31ec <init_data_bss+0x6c>)
    31b4:	4293      	cmp	r3, r2
    31b6:	d1f9      	bne.n	31ac <init_data_bss+0x2c>
D:\CQ9008\sample_codes\Release_example_240606\puf_template\debug/../sdk/platform/devices/startup.c:81
    custom_rom     = (uint8_t *)__CUSTOM_ROM;
    31b8:	4b0d      	ldr	r3, [pc, #52]	; (31f0 <init_data_bss+0x70>)
D:\CQ9008\sample_codes\Release_example_240606\puf_template\debug/../sdk/platform/devices/startup.c:80
    custom_ram     = CUSTOMSECTION_SECTION_START;
    31ba:	4a0e      	ldr	r2, [pc, #56]	; (31f4 <init_data_bss+0x74>)
    31bc:	e003      	b.n	31c6 <init_data_bss+0x46>
D:\CQ9008\sample_codes\Release_example_240606\puf_template\debug/../sdk/platform/devices/startup.c:110
    }

    /* Copy customsection rom to ram */
    while (custom_rom_end != custom_rom)
    {
        *custom_ram = *custom_rom;
    31be:	7819      	ldrb	r1, [r3, #0]
    31c0:	7011      	strb	r1, [r2, #0]
D:\CQ9008\sample_codes\Release_example_240606\puf_template\debug/../sdk/platform/devices/startup.c:111
        custom_rom++;
    31c2:	3301      	adds	r3, #1
D:\CQ9008\sample_codes\Release_example_240606\puf_template\debug/../sdk/platform/devices/startup.c:112
        custom_ram++;
    31c4:	3201      	adds	r2, #1
D:\CQ9008\sample_codes\Release_example_240606\puf_template\debug/../sdk/platform/devices/startup.c:108
    while (custom_rom_end != custom_rom)
    31c6:	490c      	ldr	r1, [pc, #48]	; (31f8 <init_data_bss+0x78>)
    31c8:	428b      	cmp	r3, r1
    31ca:	d1f8      	bne.n	31be <init_data_bss+0x3e>
D:\CQ9008\sample_codes\Release_example_240606\puf_template\debug/../sdk/platform/devices/startup.c:114
    }
}
    31cc:	4770      	bx	lr
    31ce:	46c0      	nop			; (mov r8, r8)
    31d0:	0000656c 	.word	0x0000656c
    31d4:	20000000 	.word	0x20000000
    31d8:	000066c4 	.word	0x000066c4
    31dc:	000066c4 	.word	0x000066c4
    31e0:	20000158 	.word	0x20000158
    31e4:	000066c4 	.word	0x000066c4
    31e8:	20000158 	.word	0x20000158
    31ec:	20000380 	.word	0x20000380
    31f0:	000066c4 	.word	0x000066c4
    31f4:	000066c4 	.word	0x000066c4
    31f8:	000066c4 	.word	0x000066c4

000031fc <pufs_module_init>:
pufs_module_init():
    31fc:	b570      	push	{r4, r5, r6, lr}
    31fe:	000c      	movs	r4, r1
    3200:	0005      	movs	r5, r0
    3202:	2000      	movs	r0, #0
    3204:	f000 ff1e 	bl	4044 <pufs_pal_init>
    3208:	4e09      	ldr	r6, [pc, #36]	; (3230 <pufs_module_init+0x34>)
    320a:	0022      	movs	r2, r4
    320c:	0029      	movs	r1, r5
    320e:	0030      	movs	r0, r6
    3210:	f000 ff19 	bl	4046 <pufs_pal_mmap>
    3214:	2800      	cmp	r0, #0
    3216:	da07      	bge.n	3228 <pufs_module_init+0x2c>
    3218:	002b      	movs	r3, r5
    321a:	4a06      	ldr	r2, [pc, #24]	; (3234 <pufs_module_init+0x38>)
    321c:	4906      	ldr	r1, [pc, #24]	; (3238 <pufs_module_init+0x3c>)
    321e:	4807      	ldr	r0, [pc, #28]	; (323c <pufs_module_init+0x40>)
    3220:	f001 f85c 	bl	42dc <iprintf>
    3224:	2007      	movs	r0, #7
    3226:	bd70      	pop	{r4, r5, r6, pc}
    3228:	2000      	movs	r0, #0
    322a:	6074      	str	r4, [r6, #4]
    322c:	e7fb      	b.n	3226 <pufs_module_init+0x2a>
    322e:	46c0      	nop			; (mov r8, r8)
    3230:	20000150 	.word	0x20000150
    3234:	000063c5 	.word	0x000063c5
    3238:	000063a0 	.word	0x000063a0
    323c:	000063a6 	.word	0x000063a6

00003240 <pufs_initialize>:
pufs_initialize():
    3240:	21a0      	movs	r1, #160	; 0xa0
    3242:	b510      	push	{r4, lr}
    3244:	4831      	ldr	r0, [pc, #196]	; (330c <pufs_initialize+0xcc>)
    3246:	01c9      	lsls	r1, r1, #7
    3248:	f7ff ffd8 	bl	31fc <pufs_module_init>
    324c:	2800      	cmp	r0, #0
    324e:	d15b      	bne.n	3308 <pufs_initialize+0xc8>
    3250:	f000 f942 	bl	34d8 <pufs_dma_module_init>
    3254:	2800      	cmp	r0, #0
    3256:	d157      	bne.n	3308 <pufs_initialize+0xc8>
    3258:	20c0      	movs	r0, #192	; 0xc0
    325a:	0180      	lsls	r0, r0, #6
    325c:	f000 fe78 	bl	3f50 <pufs_rt_module_init>
    3260:	2800      	cmp	r0, #0
    3262:	d151      	bne.n	3308 <pufs_initialize+0xc8>
    3264:	2080      	movs	r0, #128	; 0x80
    3266:	01c0      	lsls	r0, r0, #7
    3268:	f000 fe86 	bl	3f78 <pufs_rt_cde_init>
    326c:	2800      	cmp	r0, #0
    326e:	d14b      	bne.n	3308 <pufs_initialize+0xc8>
    3270:	20c0      	movs	r0, #192	; 0xc0
    3272:	0100      	lsls	r0, r0, #4
    3274:	f000 fd90 	bl	3d98 <pufs_ka_module_init>
    3278:	2800      	cmp	r0, #0
    327a:	d145      	bne.n	3308 <pufs_initialize+0xc8>
    327c:	20c0      	movs	r0, #192	; 0xc0
    327e:	0080      	lsls	r0, r0, #2
    3280:	f000 fd9c 	bl	3dbc <pufs_kwp_module_init>
    3284:	2800      	cmp	r0, #0
    3286:	d13f      	bne.n	3308 <pufs_initialize+0xc8>
    3288:	3001      	adds	r0, #1
    328a:	30ff      	adds	r0, #255	; 0xff
    328c:	f000 f884 	bl	3398 <pufs_crypto_module_init>
    3290:	2800      	cmp	r0, #0
    3292:	d139      	bne.n	3308 <pufs_initialize+0xc8>
    3294:	2080      	movs	r0, #128	; 0x80
    3296:	0100      	lsls	r0, r0, #4
    3298:	f000 fab8 	bl	380c <pufs_hmac_module_init>
    329c:	2800      	cmp	r0, #0
    329e:	d133      	bne.n	3308 <pufs_initialize+0xc8>
    32a0:	2088      	movs	r0, #136	; 0x88
    32a2:	0080      	lsls	r0, r0, #2
    32a4:	f000 fee8 	bl	4078 <pufs_cmac_module_init>
    32a8:	2800      	cmp	r0, #0
    32aa:	d12d      	bne.n	3308 <pufs_initialize+0xc8>
    32ac:	2090      	movs	r0, #144	; 0x90
    32ae:	0100      	lsls	r0, r0, #4
    32b0:	f000 fe18 	bl	3ee4 <pufs_kdf_module_init>
    32b4:	2800      	cmp	r0, #0
    32b6:	d127      	bne.n	3308 <pufs_initialize+0xc8>
    32b8:	2080      	movs	r0, #128	; 0x80
    32ba:	0080      	lsls	r0, r0, #2
    32bc:	f000 fe68 	bl	3f90 <pufs_sp38a_module_init>
    32c0:	2800      	cmp	r0, #0
    32c2:	d121      	bne.n	3308 <pufs_initialize+0xc8>
    32c4:	2090      	movs	r0, #144	; 0x90
    32c6:	0080      	lsls	r0, r0, #2
    32c8:	f000 fe74 	bl	3fb4 <pufs_sp38c_module_init>
    32cc:	2800      	cmp	r0, #0
    32ce:	d11b      	bne.n	3308 <pufs_initialize+0xc8>
    32d0:	2098      	movs	r0, #152	; 0x98
    32d2:	0080      	lsls	r0, r0, #2
    32d4:	f000 fe80 	bl	3fd8 <pufs_sp38d_module_init>
    32d8:	2800      	cmp	r0, #0
    32da:	d115      	bne.n	3308 <pufs_initialize+0xc8>
    32dc:	20a0      	movs	r0, #160	; 0xa0
    32de:	0080      	lsls	r0, r0, #2
    32e0:	f000 fe8c 	bl	3ffc <pufs_sp38e_module_init>
    32e4:	2800      	cmp	r0, #0
    32e6:	d10f      	bne.n	3308 <pufs_initialize+0xc8>
    32e8:	2080      	movs	r0, #128	; 0x80
    32ea:	0140      	lsls	r0, r0, #5
    32ec:	f000 f90e 	bl	350c <pufs_pkc_module_init>
    32f0:	2800      	cmp	r0, #0
    32f2:	d109      	bne.n	3308 <pufs_initialize+0xc8>
    32f4:	20b0      	movs	r0, #176	; 0xb0
    32f6:	0100      	lsls	r0, r0, #4
    32f8:	f000 fe92 	bl	4020 <pufs_drbg_module_init>
    32fc:	2800      	cmp	r0, #0
    32fe:	d103      	bne.n	3308 <pufs_initialize+0xc8>
    3300:	2080      	movs	r0, #128	; 0x80
    3302:	00c0      	lsls	r0, r0, #3
    3304:	f000 fea6 	bl	4054 <pufs_chacha_module_init>
    3308:	bd10      	pop	{r4, pc}
    330a:	46c0      	nop			; (mov r8, r8)
    330c:	43c00000 	.word	0x43c00000

00003310 <write_data>:
write_data():
    3310:	b5f0      	push	{r4, r5, r6, r7, lr}
    3312:	0014      	movs	r4, r2
    3314:	b091      	sub	sp, #68	; 0x44
    3316:	0005      	movs	r5, r0
    3318:	4668      	mov	r0, sp
    331a:	f000 fee1 	bl	40e0 <memcpy>
    331e:	2600      	movs	r6, #0
    3320:	08a4      	lsrs	r4, r4, #2
    3322:	00a4      	lsls	r4, r4, #2
    3324:	42a6      	cmp	r6, r4
    3326:	d101      	bne.n	332c <write_data+0x1c>
    3328:	b011      	add	sp, #68	; 0x44
    332a:	bdf0      	pop	{r4, r5, r6, r7, pc}
    332c:	466b      	mov	r3, sp
    332e:	5998      	ldr	r0, [r3, r6]
    3330:	f000 fdea 	bl	3f08 <be2le>
    3334:	19af      	adds	r7, r5, r6
    3336:	6038      	str	r0, [r7, #0]
    3338:	3604      	adds	r6, #4
    333a:	e7f3      	b.n	3324 <write_data+0x14>

0000333c <read_data>:
read_data():
    333c:	b5f0      	push	{r4, r5, r6, r7, lr}
    333e:	0014      	movs	r4, r2
    3340:	2500      	movs	r5, #0
    3342:	b095      	sub	sp, #84	; 0x54
    3344:	0896      	lsrs	r6, r2, #2
    3346:	9000      	str	r0, [sp, #0]
    3348:	9101      	str	r1, [sp, #4]
    334a:	00b6      	lsls	r6, r6, #2
    334c:	af04      	add	r7, sp, #16
    334e:	42b5      	cmp	r5, r6
    3350:	d119      	bne.n	3386 <read_data+0x4a>
    3352:	2603      	movs	r6, #3
    3354:	0025      	movs	r5, r4
    3356:	0039      	movs	r1, r7
    3358:	0027      	movs	r7, r4
    335a:	43b5      	bics	r5, r6
    335c:	002a      	movs	r2, r5
    335e:	9800      	ldr	r0, [sp, #0]
    3360:	f000 febe 	bl	40e0 <memcpy>
    3364:	4037      	ands	r7, r6
    3366:	4234      	tst	r4, r6
    3368:	d00b      	beq.n	3382 <read_data+0x46>
    336a:	9b01      	ldr	r3, [sp, #4]
    336c:	1959      	adds	r1, r3, r5
    336e:	6808      	ldr	r0, [r1, #0]
    3370:	f000 fdca 	bl	3f08 <be2le>
    3374:	9b00      	ldr	r3, [sp, #0]
    3376:	9003      	str	r0, [sp, #12]
    3378:	003a      	movs	r2, r7
    337a:	1958      	adds	r0, r3, r5
    337c:	a903      	add	r1, sp, #12
    337e:	f000 feaf 	bl	40e0 <memcpy>
    3382:	b015      	add	sp, #84	; 0x54
    3384:	bdf0      	pop	{r4, r5, r6, r7, pc}
    3386:	9b01      	ldr	r3, [sp, #4]
    3388:	195b      	adds	r3, r3, r5
    338a:	6818      	ldr	r0, [r3, #0]
    338c:	f000 fdbc 	bl	3f08 <be2le>
    3390:	5178      	str	r0, [r7, r5]
    3392:	3504      	adds	r5, #4
    3394:	e7da      	b.n	334c <read_data+0x10>
	...

00003398 <pufs_crypto_module_init>:
pufs_crypto_module_init():
    3398:	4b05      	ldr	r3, [pc, #20]	; (33b0 <pufs_crypto_module_init+0x18>)
    339a:	b510      	push	{r4, lr}
    339c:	681b      	ldr	r3, [r3, #0]
    339e:	18c0      	adds	r0, r0, r3
    33a0:	4b04      	ldr	r3, [pc, #16]	; (33b4 <pufs_crypto_module_init+0x1c>)
    33a2:	6801      	ldr	r1, [r0, #0]
    33a4:	6018      	str	r0, [r3, #0]
    33a6:	4804      	ldr	r0, [pc, #16]	; (33b8 <pufs_crypto_module_init+0x20>)
    33a8:	f000 fbbe 	bl	3b28 <version_check>
    33ac:	bd10      	pop	{r4, pc}
    33ae:	46c0      	nop			; (mov r8, r8)
    33b0:	20000150 	.word	0x20000150
    33b4:	20000318 	.word	0x20000318
    33b8:	5046a0a1 	.word	0x5046a0a1

000033bc <crypto_write_sw_key>:
crypto_write_sw_key():
    33bc:	b510      	push	{r4, lr}
    33be:	000a      	movs	r2, r1
    33c0:	0004      	movs	r4, r0
    33c2:	2004      	movs	r0, #4
    33c4:	2940      	cmp	r1, #64	; 0x40
    33c6:	d806      	bhi.n	33d6 <crypto_write_sw_key+0x1a>
    33c8:	4b03      	ldr	r3, [pc, #12]	; (33d8 <crypto_write_sw_key+0x1c>)
    33ca:	0021      	movs	r1, r4
    33cc:	6818      	ldr	r0, [r3, #0]
    33ce:	3040      	adds	r0, #64	; 0x40
    33d0:	f7ff ff9e 	bl	3310 <write_data>
    33d4:	2000      	movs	r0, #0
    33d6:	bd10      	pop	{r4, pc}
    33d8:	20000318 	.word	0x20000318

000033dc <crypto_write_dgst>:
crypto_write_dgst():
    33dc:	b510      	push	{r4, lr}
    33de:	000a      	movs	r2, r1
    33e0:	0004      	movs	r4, r0
    33e2:	2004      	movs	r0, #4
    33e4:	2940      	cmp	r1, #64	; 0x40
    33e6:	d806      	bhi.n	33f6 <crypto_write_dgst+0x1a>
    33e8:	4b03      	ldr	r3, [pc, #12]	; (33f8 <crypto_write_dgst+0x1c>)
    33ea:	0021      	movs	r1, r4
    33ec:	6818      	ldr	r0, [r3, #0]
    33ee:	3080      	adds	r0, #128	; 0x80
    33f0:	f7ff ff8e 	bl	3310 <write_data>
    33f4:	2000      	movs	r0, #0
    33f6:	bd10      	pop	{r4, pc}
    33f8:	20000318 	.word	0x20000318

000033fc <crypto_read_dgest>:
crypto_read_dgest():
    33fc:	000a      	movs	r2, r1
    33fe:	b510      	push	{r4, lr}
    3400:	2940      	cmp	r1, #64	; 0x40
    3402:	d900      	bls.n	3406 <crypto_read_dgest+0xa>
    3404:	2240      	movs	r2, #64	; 0x40
    3406:	4b03      	ldr	r3, [pc, #12]	; (3414 <crypto_read_dgest+0x18>)
    3408:	6819      	ldr	r1, [r3, #0]
    340a:	31c0      	adds	r1, #192	; 0xc0
    340c:	f7ff ff96 	bl	333c <read_data>
    3410:	bd10      	pop	{r4, pc}
    3412:	46c0      	nop			; (mov r8, r8)
    3414:	20000318 	.word	0x20000318

00003418 <dma_write_rwcfg>:
dma_write_rwcfg():
    3418:	b570      	push	{r4, r5, r6, lr}
    341a:	4d07      	ldr	r5, [pc, #28]	; (3438 <dma_write_rwcfg+0x20>)
    341c:	0004      	movs	r4, r0
    341e:	682e      	ldr	r6, [r5, #0]
    3420:	0008      	movs	r0, r1
    3422:	63f2      	str	r2, [r6, #60]	; 0x3c
    3424:	0011      	movs	r1, r2
    3426:	f000 fe12 	bl	404e <pufs_pal_dma_write_addr>
    342a:	6370      	str	r0, [r6, #52]	; 0x34
    342c:	0020      	movs	r0, r4
    342e:	682d      	ldr	r5, [r5, #0]
    3430:	f000 fe0e 	bl	4050 <pufs_pal_dma_read_addr>
    3434:	63a8      	str	r0, [r5, #56]	; 0x38
    3436:	bd70      	pop	{r4, r5, r6, pc}
    3438:	2000031c 	.word	0x2000031c

0000343c <dma_write_key_config_0>:
dma_write_key_config_0():
    343c:	0212      	lsls	r2, r2, #8
    343e:	4302      	orrs	r2, r0
    3440:	061b      	lsls	r3, r3, #24
    3442:	431a      	orrs	r2, r3
    3444:	4b02      	ldr	r3, [pc, #8]	; (3450 <dma_write_key_config_0+0x14>)
    3446:	0109      	lsls	r1, r1, #4
    3448:	681b      	ldr	r3, [r3, #0]
    344a:	430a      	orrs	r2, r1
    344c:	66da      	str	r2, [r3, #108]	; 0x6c
    344e:	4770      	bx	lr
    3450:	2000031c 	.word	0x2000031c

00003454 <dma_write_config_0>:
dma_write_config_0():
    3454:	2900      	cmp	r1, #0
    3456:	d001      	beq.n	345c <dma_write_config_0+0x8>
    3458:	2302      	movs	r3, #2
    345a:	4318      	orrs	r0, r3
    345c:	2a00      	cmp	r2, #0
    345e:	d001      	beq.n	3464 <dma_write_config_0+0x10>
    3460:	2304      	movs	r3, #4
    3462:	4318      	orrs	r0, r3
    3464:	4b01      	ldr	r3, [pc, #4]	; (346c <dma_write_config_0+0x18>)
    3466:	681b      	ldr	r3, [r3, #0]
    3468:	6258      	str	r0, [r3, #36]	; 0x24
    346a:	4770      	bx	lr
    346c:	2000031c 	.word	0x2000031c

00003470 <dma_write_data_block_config>:
dma_write_data_block_config():
    3470:	b510      	push	{r4, lr}
    3472:	4244      	negs	r4, r0
    3474:	4160      	adcs	r0, r4
    3476:	2480      	movs	r4, #128	; 0x80
    3478:	07c0      	lsls	r0, r0, #31
    347a:	0624      	lsls	r4, r4, #24
    347c:	1900      	adds	r0, r0, r4
    347e:	2900      	cmp	r1, #0
    3480:	d002      	beq.n	3488 <dma_write_data_block_config+0x18>
    3482:	2180      	movs	r1, #128	; 0x80
    3484:	05c9      	lsls	r1, r1, #23
    3486:	4308      	orrs	r0, r1
    3488:	2a00      	cmp	r2, #0
    348a:	d002      	beq.n	3492 <dma_write_data_block_config+0x22>
    348c:	2280      	movs	r2, #128	; 0x80
    348e:	0592      	lsls	r2, r2, #22
    3490:	4310      	orrs	r0, r2
    3492:	2b00      	cmp	r3, #0
    3494:	d002      	beq.n	349c <dma_write_data_block_config+0x2c>
    3496:	2380      	movs	r3, #128	; 0x80
    3498:	055b      	lsls	r3, r3, #21
    349a:	4318      	orrs	r0, r3
    349c:	9b02      	ldr	r3, [sp, #8]
    349e:	061b      	lsls	r3, r3, #24
    34a0:	4318      	orrs	r0, r3
    34a2:	4b02      	ldr	r3, [pc, #8]	; (34ac <dma_write_data_block_config+0x3c>)
    34a4:	681b      	ldr	r3, [r3, #0]
    34a6:	6458      	str	r0, [r3, #68]	; 0x44
    34a8:	bd10      	pop	{r4, pc}
    34aa:	46c0      	nop			; (mov r8, r8)
    34ac:	2000031c 	.word	0x2000031c

000034b0 <dma_write_start>:
dma_write_start():
    34b0:	2201      	movs	r2, #1
    34b2:	4b02      	ldr	r3, [pc, #8]	; (34bc <dma_write_start+0xc>)
    34b4:	681b      	ldr	r3, [r3, #0]
    34b6:	621a      	str	r2, [r3, #32]
    34b8:	4770      	bx	lr
    34ba:	46c0      	nop			; (mov r8, r8)
    34bc:	2000031c 	.word	0x2000031c

000034c0 <dma_check_busy_status>:
dma_check_busy_status():
    34c0:	0003      	movs	r3, r0
    34c2:	2001      	movs	r0, #1
    34c4:	4a03      	ldr	r2, [pc, #12]	; (34d4 <dma_check_busy_status+0x14>)
    34c6:	6812      	ldr	r2, [r2, #0]
    34c8:	6912      	ldr	r2, [r2, #16]
    34ca:	4010      	ands	r0, r2
    34cc:	2b00      	cmp	r3, #0
    34ce:	d000      	beq.n	34d2 <dma_check_busy_status+0x12>
    34d0:	601a      	str	r2, [r3, #0]
    34d2:	4770      	bx	lr
    34d4:	2000031c 	.word	0x2000031c

000034d8 <pufs_dma_module_init>:
pufs_dma_module_init():
    34d8:	4b09      	ldr	r3, [pc, #36]	; (3500 <pufs_dma_module_init+0x28>)
    34da:	b510      	push	{r4, lr}
    34dc:	681b      	ldr	r3, [r3, #0]
    34de:	18c0      	adds	r0, r0, r3
    34e0:	4b08      	ldr	r3, [pc, #32]	; (3504 <pufs_dma_module_init+0x2c>)
    34e2:	6801      	ldr	r1, [r0, #0]
    34e4:	6018      	str	r0, [r3, #0]
    34e6:	4808      	ldr	r0, [pc, #32]	; (3508 <pufs_dma_module_init+0x30>)
    34e8:	f000 fb1e 	bl	3b28 <version_check>
    34ec:	1e04      	subs	r4, r0, #0
    34ee:	d104      	bne.n	34fa <pufs_dma_module_init+0x22>
    34f0:	f000 fdab 	bl	404a <pufs_pal_config_dma>
    34f4:	2800      	cmp	r0, #0
    34f6:	da00      	bge.n	34fa <pufs_dma_module_init+0x22>
    34f8:	3407      	adds	r4, #7
    34fa:	0020      	movs	r0, r4
    34fc:	bd10      	pop	{r4, pc}
    34fe:	46c0      	nop			; (mov r8, r8)
    3500:	20000150 	.word	0x20000150
    3504:	2000031c 	.word	0x2000031c
    3508:	505000a2 	.word	0x505000a2

0000350c <pufs_pkc_module_init>:
pufs_pkc_module_init():
    350c:	4b05      	ldr	r3, [pc, #20]	; (3524 <pufs_pkc_module_init+0x18>)
    350e:	b510      	push	{r4, lr}
    3510:	681b      	ldr	r3, [r3, #0]
    3512:	18c0      	adds	r0, r0, r3
    3514:	4b04      	ldr	r3, [pc, #16]	; (3528 <pufs_pkc_module_init+0x1c>)
    3516:	6801      	ldr	r1, [r0, #0]
    3518:	6018      	str	r0, [r3, #0]
    351a:	4804      	ldr	r0, [pc, #16]	; (352c <pufs_pkc_module_init+0x20>)
    351c:	f000 fb04 	bl	3b28 <version_check>
    3520:	bd10      	pop	{r4, pc}
    3522:	46c0      	nop			; (mov r8, r8)
    3524:	20000150 	.word	0x20000150
    3528:	20000334 	.word	0x20000334
    352c:	ecf09303 	.word	0xecf09303

00003530 <hmac_set_dgst_length.isra.0>:
hmac_set_dgst_length.isra.0():
    3530:	3802      	subs	r0, #2
    3532:	2307      	movs	r3, #7
    3534:	b500      	push	{lr}
    3536:	2806      	cmp	r0, #6
    3538:	d808      	bhi.n	354c <hmac_set_dgst_length.isra.0+0x1c>
    353a:	f7fc fdf1 	bl	120 <__gnu_thumb1_case_uqi>
    353e:	0904      	.short	0x0904
    3540:	09040d0b 	.word	0x09040d0b
    3544:	09          	.byte	0x09
    3545:	00          	.byte	0x00
    3546:	231c      	movs	r3, #28
    3548:	600b      	str	r3, [r1, #0]
    354a:	2300      	movs	r3, #0
    354c:	0018      	movs	r0, r3
    354e:	bd00      	pop	{pc}
    3550:	2320      	movs	r3, #32
    3552:	e7f9      	b.n	3548 <hmac_set_dgst_length.isra.0+0x18>
    3554:	2330      	movs	r3, #48	; 0x30
    3556:	e7f7      	b.n	3548 <hmac_set_dgst_length.isra.0+0x18>
    3558:	2340      	movs	r3, #64	; 0x40
    355a:	e7f5      	b.n	3548 <hmac_set_dgst_length.isra.0+0x18>

0000355c <hmac_get_cfg.isra.0>:
hmac_get_cfg.isra.0():
    355c:	0003      	movs	r3, r0
    355e:	1e88      	subs	r0, r1, #2
    3560:	b500      	push	{lr}
    3562:	2806      	cmp	r0, #6
    3564:	d805      	bhi.n	3572 <hmac_get_cfg.isra.0+0x16>
    3566:	f7fc fddb 	bl	120 <__gnu_thumb1_case_uqi>
    356a:	1206      	.short	0x1206
    356c:	1a181614 	.word	0x1a181614
    3570:	1c          	.byte	0x1c
    3571:	00          	.byte	0x00
    3572:	2007      	movs	r0, #7
    3574:	bd00      	pop	{pc}
    3576:	2102      	movs	r1, #2
    3578:	2000      	movs	r0, #0
    357a:	6011      	str	r1, [r2, #0]
    357c:	2b01      	cmp	r3, #1
    357e:	d0f9      	beq.n	3574 <hmac_get_cfg.isra.0+0x18>
    3580:	2b02      	cmp	r3, #2
    3582:	d1f6      	bne.n	3572 <hmac_get_cfg.isra.0+0x16>
    3584:	6811      	ldr	r1, [r2, #0]
    3586:	33fe      	adds	r3, #254	; 0xfe
    3588:	430b      	orrs	r3, r1
    358a:	6013      	str	r3, [r2, #0]
    358c:	e7f2      	b.n	3574 <hmac_get_cfg.isra.0+0x18>
    358e:	2103      	movs	r1, #3
    3590:	e7f2      	b.n	3578 <hmac_get_cfg.isra.0+0x1c>
    3592:	2104      	movs	r1, #4
    3594:	e7f0      	b.n	3578 <hmac_get_cfg.isra.0+0x1c>
    3596:	2105      	movs	r1, #5
    3598:	e7ee      	b.n	3578 <hmac_get_cfg.isra.0+0x1c>
    359a:	2106      	movs	r1, #6
    359c:	e7ec      	b.n	3578 <hmac_get_cfg.isra.0+0x1c>
    359e:	2107      	movs	r1, #7
    35a0:	e7ea      	b.n	3578 <hmac_get_cfg.isra.0+0x1c>
    35a2:	2108      	movs	r1, #8
    35a4:	e7e8      	b.n	3578 <hmac_get_cfg.isra.0+0x1c>
	...

000035a8 <__hmac_ctx_update.part.0>:
__hmac_ctx_update.part.0():
    35a8:	b5f0      	push	{r4, r5, r6, r7, lr}
    35aa:	0016      	movs	r6, r2
    35ac:	2200      	movs	r2, #0
    35ae:	0005      	movs	r5, r0
    35b0:	b095      	sub	sp, #84	; 0x54
    35b2:	000f      	movs	r7, r1
    35b4:	0010      	movs	r0, r2
    35b6:	0011      	movs	r1, r2
    35b8:	9302      	str	r3, [sp, #8]
    35ba:	f7ff ff4b 	bl	3454 <dma_write_config_0>
    35be:	002b      	movs	r3, r5
    35c0:	2201      	movs	r2, #1
    35c2:	2400      	movs	r4, #0
    35c4:	339b      	adds	r3, #155	; 0x9b
    35c6:	9303      	str	r3, [sp, #12]
    35c8:	7818      	ldrb	r0, [r3, #0]
    35ca:	9902      	ldr	r1, [sp, #8]
    35cc:	0013      	movs	r3, r2
    35ce:	4050      	eors	r0, r2
    35d0:	9400      	str	r4, [sp, #0]
    35d2:	f7ff ff4d 	bl	3470 <dma_write_data_block_config>
    35d6:	0039      	movs	r1, r7
    35d8:	002f      	movs	r7, r5
    35da:	0032      	movs	r2, r6
    35dc:	0020      	movs	r0, r4
    35de:	f7ff ff1b 	bl	3418 <dma_write_rwcfg>
    35e2:	2380      	movs	r3, #128	; 0x80
    35e4:	3798      	adds	r7, #152	; 0x98
    35e6:	883a      	ldrh	r2, [r7, #0]
    35e8:	009b      	lsls	r3, r3, #2
    35ea:	429a      	cmp	r2, r3
    35ec:	d11b      	bne.n	3626 <__hmac_ctx_update.part.0+0x7e>
    35ee:	0028      	movs	r0, r5
    35f0:	2140      	movs	r1, #64	; 0x40
    35f2:	30ec      	adds	r0, #236	; 0xec
    35f4:	f7ff fee2 	bl	33bc <crypto_write_sw_key>
    35f8:	0029      	movs	r1, r5
    35fa:	312d      	adds	r1, #45	; 0x2d
    35fc:	2240      	movs	r2, #64	; 0x40
    35fe:	31ff      	adds	r1, #255	; 0xff
    3600:	a804      	add	r0, sp, #16
    3602:	f000 fd6d 	bl	40e0 <memcpy>
    3606:	2108      	movs	r1, #8
    3608:	4b33      	ldr	r3, [pc, #204]	; (36d8 <__hmac_ctx_update.part.0+0x130>)
    360a:	aa02      	add	r2, sp, #8
    360c:	681e      	ldr	r6, [r3, #0]
    360e:	1852      	adds	r2, r2, r1
    3610:	00a3      	lsls	r3, r4, #2
    3612:	58d0      	ldr	r0, [r2, r3]
    3614:	f000 fc78 	bl	3f08 <be2le>
    3618:	0023      	movs	r3, r4
    361a:	3310      	adds	r3, #16
    361c:	009b      	lsls	r3, r3, #2
    361e:	3401      	adds	r4, #1
    3620:	5198      	str	r0, [r3, r6]
    3622:	2c10      	cmp	r4, #16
    3624:	d1ef      	bne.n	3606 <__hmac_ctx_update.part.0+0x5e>
    3626:	002b      	movs	r3, r5
    3628:	3308      	adds	r3, #8
    362a:	6fdc      	ldr	r4, [r3, #124]	; 0x7c
    362c:	2380      	movs	r3, #128	; 0x80
    362e:	783e      	ldrb	r6, [r7, #0]
    3630:	009b      	lsls	r3, r3, #2
    3632:	429c      	cmp	r4, r3
    3634:	d900      	bls.n	3638 <__hmac_ctx_update.part.0+0x90>
    3636:	001c      	movs	r4, r3
    3638:	002b      	movs	r3, r5
    363a:	3390      	adds	r3, #144	; 0x90
    363c:	6819      	ldr	r1, [r3, #0]
    363e:	0030      	movs	r0, r6
    3640:	f000 fb76 	bl	3d30 <get_key_slot_idx>
    3644:	0022      	movs	r2, r4
    3646:	0003      	movs	r3, r0
    3648:	2101      	movs	r1, #1
    364a:	0030      	movs	r0, r6
    364c:	f7ff fef6 	bl	343c <dma_write_key_config_0>
    3650:	9b03      	ldr	r3, [sp, #12]
    3652:	781b      	ldrb	r3, [r3, #0]
    3654:	2b00      	cmp	r3, #0
    3656:	d004      	beq.n	3662 <__hmac_ctx_update.part.0+0xba>
    3658:	0028      	movs	r0, r5
    365a:	2140      	movs	r1, #64	; 0x40
    365c:	30ac      	adds	r0, #172	; 0xac
    365e:	f7ff febd 	bl	33dc <crypto_write_dgst>
    3662:	002b      	movs	r3, r5
    3664:	339a      	adds	r3, #154	; 0x9a
    3666:	7819      	ldrb	r1, [r3, #0]
    3668:	3b01      	subs	r3, #1
    366a:	7818      	ldrb	r0, [r3, #0]
    366c:	aa04      	add	r2, sp, #16
    366e:	f7ff ff75 	bl	355c <hmac_get_cfg.isra.0>
    3672:	1e04      	subs	r4, r0, #0
    3674:	d117      	bne.n	36a6 <__hmac_ctx_update.part.0+0xfe>
    3676:	002f      	movs	r7, r5
    3678:	4e17      	ldr	r6, [pc, #92]	; (36d8 <__hmac_ctx_update.part.0+0x130>)
    367a:	9a04      	ldr	r2, [sp, #16]
    367c:	6833      	ldr	r3, [r6, #0]
    367e:	378c      	adds	r7, #140	; 0x8c
    3680:	619a      	str	r2, [r3, #24]
    3682:	683a      	ldr	r2, [r7, #0]
    3684:	621a      	str	r2, [r3, #32]
    3686:	f7ff ff13 	bl	34b0 <dma_write_start>
    368a:	a804      	add	r0, sp, #16
    368c:	f7ff ff18 	bl	34c0 <dma_check_busy_status>
    3690:	2800      	cmp	r0, #0
    3692:	d1fa      	bne.n	368a <__hmac_ctx_update.part.0+0xe2>
    3694:	9b04      	ldr	r3, [sp, #16]
    3696:	2b00      	cmp	r3, #0
    3698:	d008      	beq.n	36ac <__hmac_ctx_update.part.0+0x104>
    369a:	4a10      	ldr	r2, [pc, #64]	; (36dc <__hmac_ctx_update.part.0+0x134>)
    369c:	4910      	ldr	r1, [pc, #64]	; (36e0 <__hmac_ctx_update.part.0+0x138>)
    369e:	4811      	ldr	r0, [pc, #68]	; (36e4 <__hmac_ctx_update.part.0+0x13c>)
    36a0:	f000 fe1c 	bl	42dc <iprintf>
    36a4:	240d      	movs	r4, #13
    36a6:	0020      	movs	r0, r4
    36a8:	b015      	add	sp, #84	; 0x54
    36aa:	bdf0      	pop	{r4, r5, r6, r7, pc}
    36ac:	6833      	ldr	r3, [r6, #0]
    36ae:	691b      	ldr	r3, [r3, #16]
    36b0:	9304      	str	r3, [sp, #16]
    36b2:	2b00      	cmp	r3, #0
    36b4:	d003      	beq.n	36be <__hmac_ctx_update.part.0+0x116>
    36b6:	4a09      	ldr	r2, [pc, #36]	; (36dc <__hmac_ctx_update.part.0+0x134>)
    36b8:	4909      	ldr	r1, [pc, #36]	; (36e0 <__hmac_ctx_update.part.0+0x138>)
    36ba:	480b      	ldr	r0, [pc, #44]	; (36e8 <__hmac_ctx_update.part.0+0x140>)
    36bc:	e7f0      	b.n	36a0 <__hmac_ctx_update.part.0+0xf8>
    36be:	9b02      	ldr	r3, [sp, #8]
    36c0:	2b00      	cmp	r3, #0
    36c2:	d1f0      	bne.n	36a6 <__hmac_ctx_update.part.0+0xfe>
    36c4:	0028      	movs	r0, r5
    36c6:	2140      	movs	r1, #64	; 0x40
    36c8:	30ac      	adds	r0, #172	; 0xac
    36ca:	f7ff fe97 	bl	33fc <crypto_read_dgest>
    36ce:	6833      	ldr	r3, [r6, #0]
    36d0:	6b1b      	ldr	r3, [r3, #48]	; 0x30
    36d2:	603b      	str	r3, [r7, #0]
    36d4:	e7e7      	b.n	36a6 <__hmac_ctx_update.part.0+0xfe>
    36d6:	46c0      	nop			; (mov r8, r8)
    36d8:	20000338 	.word	0x20000338
    36dc:	0000642b 	.word	0x0000642b
    36e0:	000063a0 	.word	0x000063a0
    36e4:	000063d6 	.word	0x000063d6
    36e8:	00006401 	.word	0x00006401

000036ec <hmac_ctx_update>:
hmac_ctx_update():
    36ec:	b5f0      	push	{r4, r5, r6, r7, lr}
    36ee:	000c      	movs	r4, r1
    36f0:	b093      	sub	sp, #76	; 0x4c
    36f2:	3199      	adds	r1, #153	; 0x99
    36f4:	9106      	str	r1, [sp, #24]
    36f6:	7809      	ldrb	r1, [r1, #0]
    36f8:	2606      	movs	r6, #6
    36fa:	4281      	cmp	r1, r0
    36fc:	d133      	bne.n	3766 <hmac_ctx_update+0x7a>
    36fe:	1e16      	subs	r6, r2, #0
    3700:	d031      	beq.n	3766 <hmac_ctx_update+0x7a>
    3702:	2600      	movs	r6, #0
    3704:	42b3      	cmp	r3, r6
    3706:	d02e      	beq.n	3766 <hmac_ctx_update+0x7a>
    3708:	0021      	movs	r1, r4
    370a:	3188      	adds	r1, #136	; 0x88
    370c:	6809      	ldr	r1, [r1, #0]
    370e:	1d25      	adds	r5, r4, #4
    3710:	9102      	str	r1, [sp, #8]
    3712:	0021      	movs	r1, r4
    3714:	3194      	adds	r1, #148	; 0x94
    3716:	6809      	ldr	r1, [r1, #0]
    3718:	9300      	str	r3, [sp, #0]
    371a:	9101      	str	r1, [sp, #4]
    371c:	0013      	movs	r3, r2
    371e:	0021      	movs	r1, r4
    3720:	6fea      	ldr	r2, [r5, #124]	; 0x7c
    3722:	a808      	add	r0, sp, #32
    3724:	f000 f98f 	bl	3a46 <segment>
    3728:	67ee      	str	r6, [r5, #124]	; 0x7c
    372a:	9605      	str	r6, [sp, #20]
    372c:	ad08      	add	r5, sp, #32
    372e:	9b08      	ldr	r3, [sp, #32]
    3730:	9307      	str	r3, [sp, #28]
    3732:	9a07      	ldr	r2, [sp, #28]
    3734:	9b05      	ldr	r3, [sp, #20]
    3736:	4293      	cmp	r3, r2
    3738:	d301      	bcc.n	373e <hmac_ctx_update+0x52>
    373a:	2600      	movs	r6, #0
    373c:	e013      	b.n	3766 <hmac_ctx_update+0x7a>
    373e:	792b      	ldrb	r3, [r5, #4]
    3740:	68af      	ldr	r7, [r5, #8]
    3742:	68ee      	ldr	r6, [r5, #12]
    3744:	2b00      	cmp	r3, #0
    3746:	d01f      	beq.n	3788 <hmac_ctx_update+0x9c>
    3748:	2000      	movs	r0, #0
    374a:	f7ff feb9 	bl	34c0 <dma_check_busy_status>
    374e:	1e03      	subs	r3, r0, #0
    3750:	d10c      	bne.n	376c <hmac_ctx_update+0x80>
    3752:	0032      	movs	r2, r6
    3754:	0039      	movs	r1, r7
    3756:	0020      	movs	r0, r4
    3758:	f7ff ff26 	bl	35a8 <__hmac_ctx_update.part.0>
    375c:	1e06      	subs	r6, r0, #0
    375e:	d007      	beq.n	3770 <hmac_ctx_update+0x84>
    3760:	2300      	movs	r3, #0
    3762:	9a06      	ldr	r2, [sp, #24]
    3764:	7013      	strb	r3, [r2, #0]
    3766:	0030      	movs	r0, r6
    3768:	b013      	add	sp, #76	; 0x4c
    376a:	bdf0      	pop	{r4, r5, r6, r7, pc}
    376c:	2605      	movs	r6, #5
    376e:	e7f7      	b.n	3760 <hmac_ctx_update+0x74>
    3770:	0023      	movs	r3, r4
    3772:	339b      	adds	r3, #155	; 0x9b
    3774:	781a      	ldrb	r2, [r3, #0]
    3776:	2a00      	cmp	r2, #0
    3778:	d101      	bne.n	377e <hmac_ctx_update+0x92>
    377a:	3201      	adds	r2, #1
    377c:	701a      	strb	r2, [r3, #0]
    377e:	9b05      	ldr	r3, [sp, #20]
    3780:	350c      	adds	r5, #12
    3782:	3301      	adds	r3, #1
    3784:	9305      	str	r3, [sp, #20]
    3786:	e7d2      	b.n	372e <hmac_ctx_update+0x42>
    3788:	1d23      	adds	r3, r4, #4
    378a:	6fd8      	ldr	r0, [r3, #124]	; 0x7c
    378c:	42bc      	cmp	r4, r7
    378e:	d103      	bne.n	3798 <hmac_ctx_update+0xac>
    3790:	2800      	cmp	r0, #0
    3792:	d101      	bne.n	3798 <hmac_ctx_update+0xac>
    3794:	67de      	str	r6, [r3, #124]	; 0x7c
    3796:	e7f2      	b.n	377e <hmac_ctx_update+0x92>
    3798:	0032      	movs	r2, r6
    379a:	0039      	movs	r1, r7
    379c:	1820      	adds	r0, r4, r0
    379e:	f000 fca8 	bl	40f2 <memmove>
    37a2:	1d23      	adds	r3, r4, #4
    37a4:	6fda      	ldr	r2, [r3, #124]	; 0x7c
    37a6:	1996      	adds	r6, r2, r6
    37a8:	e7f4      	b.n	3794 <hmac_ctx_update+0xa8>

000037aa <hmac_ctx_final>:
hmac_ctx_final():
    37aa:	b5f8      	push	{r3, r4, r5, r6, r7, lr}
    37ac:	000e      	movs	r6, r1
    37ae:	3699      	adds	r6, #153	; 0x99
    37b0:	0015      	movs	r5, r2
    37b2:	7832      	ldrb	r2, [r6, #0]
    37b4:	000c      	movs	r4, r1
    37b6:	2306      	movs	r3, #6
    37b8:	4282      	cmp	r2, r0
    37ba:	d125      	bne.n	3808 <hmac_ctx_final+0x5e>
    37bc:	1d0b      	adds	r3, r1, #4
    37be:	6fdf      	ldr	r7, [r3, #124]	; 0x7c
    37c0:	3397      	adds	r3, #151	; 0x97
    37c2:	781b      	ldrb	r3, [r3, #0]
    37c4:	2b00      	cmp	r3, #0
    37c6:	d002      	beq.n	37ce <hmac_ctx_final+0x24>
    37c8:	2304      	movs	r3, #4
    37ca:	2f00      	cmp	r7, #0
    37cc:	d01a      	beq.n	3804 <hmac_ctx_final+0x5a>
    37ce:	2304      	movs	r3, #4
    37d0:	2d00      	cmp	r5, #0
    37d2:	d017      	beq.n	3804 <hmac_ctx_final+0x5a>
    37d4:	2000      	movs	r0, #0
    37d6:	f7ff fe73 	bl	34c0 <dma_check_busy_status>
    37da:	2305      	movs	r3, #5
    37dc:	2800      	cmp	r0, #0
    37de:	d111      	bne.n	3804 <hmac_ctx_final+0x5a>
    37e0:	3b04      	subs	r3, #4
    37e2:	003a      	movs	r2, r7
    37e4:	0021      	movs	r1, r4
    37e6:	0020      	movs	r0, r4
    37e8:	f7ff fede 	bl	35a8 <__hmac_ctx_update.part.0>
    37ec:	1e03      	subs	r3, r0, #0
    37ee:	d109      	bne.n	3804 <hmac_ctx_final+0x5a>
    37f0:	2140      	movs	r1, #64	; 0x40
    37f2:	1d28      	adds	r0, r5, #4
    37f4:	349a      	adds	r4, #154	; 0x9a
    37f6:	f7ff fe01 	bl	33fc <crypto_read_dgest>
    37fa:	0029      	movs	r1, r5
    37fc:	7820      	ldrb	r0, [r4, #0]
    37fe:	f7ff fe97 	bl	3530 <hmac_set_dgst_length.isra.0>
    3802:	0003      	movs	r3, r0
    3804:	2200      	movs	r2, #0
    3806:	7032      	strb	r2, [r6, #0]
    3808:	0018      	movs	r0, r3
    380a:	bdf8      	pop	{r3, r4, r5, r6, r7, pc}

0000380c <pufs_hmac_module_init>:
pufs_hmac_module_init():
    380c:	4b05      	ldr	r3, [pc, #20]	; (3824 <pufs_hmac_module_init+0x18>)
    380e:	b510      	push	{r4, lr}
    3810:	681b      	ldr	r3, [r3, #0]
    3812:	18c0      	adds	r0, r0, r3
    3814:	4b04      	ldr	r3, [pc, #16]	; (3828 <pufs_hmac_module_init+0x1c>)
    3816:	6801      	ldr	r1, [r0, #0]
    3818:	6018      	str	r0, [r3, #0]
    381a:	4804      	ldr	r0, [pc, #16]	; (382c <pufs_hmac_module_init+0x20>)
    381c:	f000 f984 	bl	3b28 <version_check>
    3820:	bd10      	pop	{r4, pc}
    3822:	46c0      	nop			; (mov r8, r8)
    3824:	20000150 	.word	0x20000150
    3828:	20000338 	.word	0x20000338
    382c:	31393800 	.word	0x31393800

00003830 <pufs_hmac_ctx_new>:
pufs_hmac_ctx_new():
    3830:	20b6      	movs	r0, #182	; 0xb6
    3832:	b510      	push	{r4, lr}
    3834:	0040      	lsls	r0, r0, #1
    3836:	f000 fc31 	bl	409c <malloc>
    383a:	2800      	cmp	r0, #0
    383c:	d003      	beq.n	3846 <pufs_hmac_ctx_new+0x16>
    383e:	0003      	movs	r3, r0
    3840:	2200      	movs	r2, #0
    3842:	3399      	adds	r3, #153	; 0x99
    3844:	701a      	strb	r2, [r3, #0]
    3846:	bd10      	pop	{r4, pc}

00003848 <pufs_hmac_ctx_free>:
pufs_hmac_ctx_free():
    3848:	b510      	push	{r4, lr}
    384a:	f000 fc31 	bl	40b0 <free>
    384e:	bd10      	pop	{r4, pc}

00003850 <pufs_hash_update>:
pufs_hash_update():
    3850:	b510      	push	{r4, lr}
    3852:	0013      	movs	r3, r2
    3854:	000a      	movs	r2, r1
    3856:	0001      	movs	r1, r0
    3858:	2001      	movs	r0, #1
    385a:	f7ff ff47 	bl	36ec <hmac_ctx_update>
    385e:	bd10      	pop	{r4, pc}

00003860 <pufs_hash_final>:
pufs_hash_final():
    3860:	b510      	push	{r4, lr}
    3862:	000a      	movs	r2, r1
    3864:	0001      	movs	r1, r0
    3866:	2001      	movs	r0, #1
    3868:	f7ff ff9f 	bl	37aa <hmac_ctx_final>
    386c:	bd10      	pop	{r4, pc}

0000386e <pufs_hash>:
pufs_hash():
    386e:	b5f0      	push	{r4, r5, r6, r7, lr}
    3870:	0016      	movs	r6, r2
    3872:	22b6      	movs	r2, #182	; 0xb6
    3874:	001f      	movs	r7, r3
    3876:	b0dd      	sub	sp, #372	; 0x174
    3878:	0004      	movs	r4, r0
    387a:	000d      	movs	r5, r1
    387c:	0052      	lsls	r2, r2, #1
    387e:	2100      	movs	r1, #0
    3880:	a801      	add	r0, sp, #4
    3882:	f7fc fcff 	bl	284 <memset>
    3886:	0039      	movs	r1, r7
    3888:	a801      	add	r0, sp, #4
    388a:	f000 f893 	bl	39b4 <pufs_hash_init>
    388e:	2800      	cmp	r0, #0
    3890:	d10a      	bne.n	38a8 <pufs_hash+0x3a>
    3892:	0032      	movs	r2, r6
    3894:	0029      	movs	r1, r5
    3896:	a801      	add	r0, sp, #4
    3898:	f7ff ffda 	bl	3850 <pufs_hash_update>
    389c:	2800      	cmp	r0, #0
    389e:	d103      	bne.n	38a8 <pufs_hash+0x3a>
    38a0:	0021      	movs	r1, r4
    38a2:	a801      	add	r0, sp, #4
    38a4:	f7ff ffdc 	bl	3860 <pufs_hash_final>
    38a8:	b05d      	add	sp, #372	; 0x174
    38aa:	bdf0      	pop	{r4, r5, r6, r7, pc}

000038ac <hmac_ctx_init>:
hmac_ctx_init():
    38ac:	b5f0      	push	{r4, r5, r6, r7, lr}
    38ae:	001e      	movs	r6, r3
    38b0:	000b      	movs	r3, r1
    38b2:	b095      	sub	sp, #84	; 0x54
    38b4:	9001      	str	r0, [sp, #4]
    38b6:	3399      	adds	r3, #153	; 0x99
    38b8:	781b      	ldrb	r3, [r3, #0]
    38ba:	000c      	movs	r4, r1
    38bc:	0015      	movs	r5, r2
    38be:	2005      	movs	r0, #5
    38c0:	9f1a      	ldr	r7, [sp, #104]	; 0x68
    38c2:	2b00      	cmp	r3, #0
    38c4:	d118      	bne.n	38f8 <hmac_ctx_init+0x4c>
    38c6:	3801      	subs	r0, #1
    38c8:	2a0e      	cmp	r2, #14
    38ca:	d815      	bhi.n	38f8 <hmac_ctx_init+0x4c>
    38cc:	22fd      	movs	r2, #253	; 0xfd
    38ce:	1eb3      	subs	r3, r6, #2
    38d0:	3006      	adds	r0, #6
    38d2:	4213      	tst	r3, r2
    38d4:	d010      	beq.n	38f8 <hmac_ctx_init+0x4c>
    38d6:	4b36      	ldr	r3, [pc, #216]	; (39b0 <hmac_ctx_init+0x104>)
    38d8:	9a01      	ldr	r2, [sp, #4]
    38da:	681b      	ldr	r3, [r3, #0]
    38dc:	689b      	ldr	r3, [r3, #8]
    38de:	2a02      	cmp	r2, #2
    38e0:	d102      	bne.n	38e8 <hmac_ctx_init+0x3c>
    38e2:	3001      	adds	r0, #1
    38e4:	07da      	lsls	r2, r3, #31
    38e6:	d507      	bpl.n	38f8 <hmac_ctx_init+0x4c>
    38e8:	2d07      	cmp	r5, #7
    38ea:	d807      	bhi.n	38fc <hmac_ctx_init+0x50>
    38ec:	2d03      	cmp	r5, #3
    38ee:	d811      	bhi.n	3914 <hmac_ctx_init+0x68>
    38f0:	1eaa      	subs	r2, r5, #2
    38f2:	2004      	movs	r0, #4
    38f4:	2a01      	cmp	r2, #1
    38f6:	d908      	bls.n	390a <hmac_ctx_init+0x5e>
    38f8:	b015      	add	sp, #84	; 0x54
    38fa:	bdf0      	pop	{r4, r5, r6, r7, pc}
    38fc:	2004      	movs	r0, #4
    38fe:	2d08      	cmp	r5, #8
    3900:	d1fa      	bne.n	38f8 <hmac_ctx_init+0x4c>
    3902:	200b      	movs	r0, #11
    3904:	422b      	tst	r3, r5
    3906:	d103      	bne.n	3910 <hmac_ctx_init+0x64>
    3908:	e7f6      	b.n	38f8 <hmac_ctx_init+0x4c>
    390a:	200b      	movs	r0, #11
    390c:	079b      	lsls	r3, r3, #30
    390e:	d5f3      	bpl.n	38f8 <hmac_ctx_init+0x4c>
    3910:	2240      	movs	r2, #64	; 0x40
    3912:	e003      	b.n	391c <hmac_ctx_init+0x70>
    3914:	200b      	movs	r0, #11
    3916:	2280      	movs	r2, #128	; 0x80
    3918:	075b      	lsls	r3, r3, #29
    391a:	d5ed      	bpl.n	38f8 <hmac_ctx_init+0x4c>
    391c:	0023      	movs	r3, r4
    391e:	3394      	adds	r3, #148	; 0x94
    3920:	601a      	str	r2, [r3, #0]
    3922:	9b01      	ldr	r3, [sp, #4]
    3924:	2b02      	cmp	r3, #2
    3926:	d109      	bne.n	393c <hmac_ctx_init+0x90>
    3928:	2e00      	cmp	r6, #0
    392a:	d02b      	beq.n	3984 <hmac_ctx_init+0xd8>
    392c:	003a      	movs	r2, r7
    392e:	0031      	movs	r1, r6
    3930:	2001      	movs	r0, #1
    3932:	9b1b      	ldr	r3, [sp, #108]	; 0x6c
    3934:	f000 f9b2 	bl	3c9c <keyslot_check>
    3938:	2800      	cmp	r0, #0
    393a:	d1dd      	bne.n	38f8 <hmac_ctx_init+0x4c>
    393c:	2000      	movs	r0, #0
    393e:	9a1b      	ldr	r2, [sp, #108]	; 0x6c
    3940:	1d23      	adds	r3, r4, #4
    3942:	67d8      	str	r0, [r3, #124]	; 0x7c
    3944:	3304      	adds	r3, #4
    3946:	67da      	str	r2, [r3, #124]	; 0x7c
    3948:	2201      	movs	r2, #1
    394a:	3380      	adds	r3, #128	; 0x80
    394c:	601a      	str	r2, [r3, #0]
    394e:	9a01      	ldr	r2, [sp, #4]
    3950:	741e      	strb	r6, [r3, #16]
    3952:	6058      	str	r0, [r3, #4]
    3954:	3304      	adds	r3, #4
    3956:	735a      	strb	r2, [r3, #13]
    3958:	739d      	strb	r5, [r3, #14]
    395a:	73d8      	strb	r0, [r3, #15]
    395c:	4286      	cmp	r6, r0
    395e:	d002      	beq.n	3966 <hmac_ctx_init+0xba>
    3960:	3490      	adds	r4, #144	; 0x90
    3962:	6027      	str	r7, [r4, #0]
    3964:	e7c8      	b.n	38f8 <hmac_ctx_init+0x4c>
    3966:	34ec      	adds	r4, #236	; 0xec
    3968:	2280      	movs	r2, #128	; 0x80
    396a:	0031      	movs	r1, r6
    396c:	0020      	movs	r0, r4
    396e:	f7fc fc89 	bl	284 <memset>
    3972:	9b1b      	ldr	r3, [sp, #108]	; 0x6c
    3974:	0039      	movs	r1, r7
    3976:	1dda      	adds	r2, r3, #7
    3978:	0020      	movs	r0, r4
    397a:	08d2      	lsrs	r2, r2, #3
    397c:	f000 fbb0 	bl	40e0 <memcpy>
    3980:	0030      	movs	r0, r6
    3982:	e7b9      	b.n	38f8 <hmac_ctx_init+0x4c>
    3984:	0023      	movs	r3, r4
    3986:	3394      	adds	r3, #148	; 0x94
    3988:	681b      	ldr	r3, [r3, #0]
    398a:	9a1b      	ldr	r2, [sp, #108]	; 0x6c
    398c:	00db      	lsls	r3, r3, #3
    398e:	429a      	cmp	r2, r3
    3990:	d9d4      	bls.n	393c <hmac_ctx_init+0x90>
    3992:	9b1b      	ldr	r3, [sp, #108]	; 0x6c
    3994:	0039      	movs	r1, r7
    3996:	1dda      	adds	r2, r3, #7
    3998:	08d2      	lsrs	r2, r2, #3
    399a:	002b      	movs	r3, r5
    399c:	a803      	add	r0, sp, #12
    399e:	f7ff ff66 	bl	386e <pufs_hash>
    39a2:	2800      	cmp	r0, #0
    39a4:	d1a8      	bne.n	38f8 <hmac_ctx_init+0x4c>
    39a6:	9b03      	ldr	r3, [sp, #12]
    39a8:	af04      	add	r7, sp, #16
    39aa:	00db      	lsls	r3, r3, #3
    39ac:	931b      	str	r3, [sp, #108]	; 0x6c
    39ae:	e7c5      	b.n	393c <hmac_ctx_init+0x90>
    39b0:	20000338 	.word	0x20000338

000039b4 <pufs_hash_init>:
pufs_hash_init():
    39b4:	2300      	movs	r3, #0
    39b6:	b507      	push	{r0, r1, r2, lr}
    39b8:	000a      	movs	r2, r1
    39ba:	0001      	movs	r1, r0
    39bc:	9301      	str	r3, [sp, #4]
    39be:	2001      	movs	r0, #1
    39c0:	9300      	str	r3, [sp, #0]
    39c2:	f7ff ff73 	bl	38ac <hmac_ctx_init>
    39c6:	bd0e      	pop	{r1, r2, r3, pc}

000039c8 <_pufs_hmac_init>:
_pufs_hmac_init():
    39c8:	b513      	push	{r0, r1, r4, lr}
    39ca:	9c04      	ldr	r4, [sp, #16]
    39cc:	9300      	str	r3, [sp, #0]
    39ce:	9401      	str	r4, [sp, #4]
    39d0:	0013      	movs	r3, r2
    39d2:	000a      	movs	r2, r1
    39d4:	0001      	movs	r1, r0
    39d6:	2002      	movs	r0, #2
    39d8:	f7ff ff68 	bl	38ac <hmac_ctx_init>
    39dc:	bd16      	pop	{r1, r2, r4, pc}

000039de <pufs_hmac_update>:
pufs_hmac_update():
    39de:	b510      	push	{r4, lr}
    39e0:	0013      	movs	r3, r2
    39e2:	000a      	movs	r2, r1
    39e4:	0001      	movs	r1, r0
    39e6:	2002      	movs	r0, #2
    39e8:	f7ff fe80 	bl	36ec <hmac_ctx_update>
    39ec:	bd10      	pop	{r4, pc}

000039ee <pufs_hmac_final>:
pufs_hmac_final():
    39ee:	b510      	push	{r4, lr}
    39f0:	000a      	movs	r2, r1
    39f2:	0001      	movs	r1, r0
    39f4:	2002      	movs	r0, #2
    39f6:	f7ff fed8 	bl	37aa <hmac_ctx_final>
    39fa:	bd10      	pop	{r4, pc}

000039fc <_pufs_hmac>:
_pufs_hmac():
    39fc:	b5f0      	push	{r4, r5, r6, r7, lr}
    39fe:	0015      	movs	r5, r2
    3a00:	22b6      	movs	r2, #182	; 0xb6
    3a02:	001e      	movs	r6, r3
    3a04:	b0e1      	sub	sp, #388	; 0x184
    3a06:	ab66      	add	r3, sp, #408	; 0x198
    3a08:	9003      	str	r0, [sp, #12]
    3a0a:	0052      	lsls	r2, r2, #1
    3a0c:	000c      	movs	r4, r1
    3a0e:	a805      	add	r0, sp, #20
    3a10:	2100      	movs	r1, #0
    3a12:	781f      	ldrb	r7, [r3, #0]
    3a14:	f7fc fc36 	bl	284 <memset>
    3a18:	9b68      	ldr	r3, [sp, #416]	; 0x1a0
    3a1a:	003a      	movs	r2, r7
    3a1c:	9300      	str	r3, [sp, #0]
    3a1e:	0031      	movs	r1, r6
    3a20:	9b67      	ldr	r3, [sp, #412]	; 0x19c
    3a22:	a805      	add	r0, sp, #20
    3a24:	f7ff ffd0 	bl	39c8 <_pufs_hmac_init>
    3a28:	2800      	cmp	r0, #0
    3a2a:	d10a      	bne.n	3a42 <_pufs_hmac+0x46>
    3a2c:	002a      	movs	r2, r5
    3a2e:	0021      	movs	r1, r4
    3a30:	a805      	add	r0, sp, #20
    3a32:	f7ff ffd4 	bl	39de <pufs_hmac_update>
    3a36:	2800      	cmp	r0, #0
    3a38:	d103      	bne.n	3a42 <_pufs_hmac+0x46>
    3a3a:	9903      	ldr	r1, [sp, #12]
    3a3c:	a805      	add	r0, sp, #20
    3a3e:	f7ff ffd6 	bl	39ee <pufs_hmac_final>
    3a42:	b061      	add	sp, #388	; 0x184
    3a44:	bdf0      	pop	{r4, r5, r6, r7, pc}

00003a46 <segment>:
segment():
    3a46:	b5f0      	push	{r4, r5, r6, r7, lr}
    3a48:	0014      	movs	r4, r2
    3a4a:	b085      	sub	sp, #20
    3a4c:	9f0a      	ldr	r7, [sp, #40]	; 0x28
    3a4e:	2228      	movs	r2, #40	; 0x28
    3a50:	9101      	str	r1, [sp, #4]
    3a52:	2100      	movs	r1, #0
    3a54:	9e0c      	ldr	r6, [sp, #48]	; 0x30
    3a56:	9300      	str	r3, [sp, #0]
    3a58:	0005      	movs	r5, r0
    3a5a:	f7fc fc13 	bl	284 <memset>
    3a5e:	19e3      	adds	r3, r4, r7
    3a60:	9303      	str	r3, [sp, #12]
    3a62:	9b0b      	ldr	r3, [sp, #44]	; 0x2c
    3a64:	19e2      	adds	r2, r4, r7
    3a66:	18f3      	adds	r3, r6, r3
    3a68:	429a      	cmp	r2, r3
    3a6a:	d303      	bcc.n	3a74 <segment+0x2e>
    3a6c:	9b0b      	ldr	r3, [sp, #44]	; 0x2c
    3a6e:	1b90      	subs	r0, r2, r6
    3a70:	4298      	cmp	r0, r3
    3a72:	d20a      	bcs.n	3a8a <segment+0x44>
    3a74:	9b01      	ldr	r3, [sp, #4]
    3a76:	60ec      	str	r4, [r5, #12]
    3a78:	60ab      	str	r3, [r5, #8]
    3a7a:	9b00      	ldr	r3, [sp, #0]
    3a7c:	61af      	str	r7, [r5, #24]
    3a7e:	616b      	str	r3, [r5, #20]
    3a80:	2302      	movs	r3, #2
    3a82:	602b      	str	r3, [r5, #0]
    3a84:	0028      	movs	r0, r5
    3a86:	b005      	add	sp, #20
    3a88:	bdf0      	pop	{r4, r5, r6, r7, pc}
    3a8a:	990b      	ldr	r1, [sp, #44]	; 0x2c
    3a8c:	f7fc fb52 	bl	134 <__udivsi3>
    3a90:	0006      	movs	r6, r0
    3a92:	2c00      	cmp	r4, #0
    3a94:	d01b      	beq.n	3ace <segment+0x88>
    3a96:	9a0b      	ldr	r2, [sp, #44]	; 0x2c
    3a98:	4342      	muls	r2, r0
    3a9a:	4294      	cmp	r4, r2
    3a9c:	d829      	bhi.n	3af2 <segment+0xac>
    3a9e:	9f0b      	ldr	r7, [sp, #44]	; 0x2c
    3aa0:	3e01      	subs	r6, #1
    3aa2:	42a7      	cmp	r7, r4
    3aa4:	d321      	bcc.n	3aea <segment+0xa4>
    3aa6:	1b3b      	subs	r3, r7, r4
    3aa8:	9302      	str	r3, [sp, #8]
    3aaa:	9b01      	ldr	r3, [sp, #4]
    3aac:	9a02      	ldr	r2, [sp, #8]
    3aae:	1918      	adds	r0, r3, r4
    3ab0:	9900      	ldr	r1, [sp, #0]
    3ab2:	f000 fb15 	bl	40e0 <memcpy>
    3ab6:	9a02      	ldr	r2, [sp, #8]
    3ab8:	2401      	movs	r4, #1
    3aba:	4694      	mov	ip, r2
    3abc:	9b01      	ldr	r3, [sp, #4]
    3abe:	60ef      	str	r7, [r5, #12]
    3ac0:	60ab      	str	r3, [r5, #8]
    3ac2:	9b00      	ldr	r3, [sp, #0]
    3ac4:	712c      	strb	r4, [r5, #4]
    3ac6:	4463      	add	r3, ip
    3ac8:	9300      	str	r3, [sp, #0]
    3aca:	9b03      	ldr	r3, [sp, #12]
    3acc:	1bdf      	subs	r7, r3, r7
    3ace:	2e00      	cmp	r6, #0
    3ad0:	d01a      	beq.n	3b08 <segment+0xc2>
    3ad2:	230c      	movs	r3, #12
    3ad4:	2201      	movs	r2, #1
    3ad6:	4363      	muls	r3, r4
    3ad8:	18eb      	adds	r3, r5, r3
    3ada:	711a      	strb	r2, [r3, #4]
    3adc:	9a00      	ldr	r2, [sp, #0]
    3ade:	3401      	adds	r4, #1
    3ae0:	609a      	str	r2, [r3, #8]
    3ae2:	9a0b      	ldr	r2, [sp, #44]	; 0x2c
    3ae4:	4372      	muls	r2, r6
    3ae6:	60da      	str	r2, [r3, #12]
    3ae8:	e00e      	b.n	3b08 <segment+0xc2>
    3aea:	9b0b      	ldr	r3, [sp, #44]	; 0x2c
    3aec:	3e01      	subs	r6, #1
    3aee:	18ff      	adds	r7, r7, r3
    3af0:	e7d7      	b.n	3aa2 <segment+0x5c>
    3af2:	2301      	movs	r3, #1
    3af4:	712b      	strb	r3, [r5, #4]
    3af6:	9b01      	ldr	r3, [sp, #4]
    3af8:	60ea      	str	r2, [r5, #12]
    3afa:	1899      	adds	r1, r3, r2
    3afc:	2600      	movs	r6, #0
    3afe:	1aa2      	subs	r2, r4, r2
    3b00:	2402      	movs	r4, #2
    3b02:	60ab      	str	r3, [r5, #8]
    3b04:	6169      	str	r1, [r5, #20]
    3b06:	61aa      	str	r2, [r5, #24]
    3b08:	220c      	movs	r2, #12
    3b0a:	9b0b      	ldr	r3, [sp, #44]	; 0x2c
    3b0c:	4362      	muls	r2, r4
    3b0e:	435e      	muls	r6, r3
    3b10:	2300      	movs	r3, #0
    3b12:	18aa      	adds	r2, r5, r2
    3b14:	7113      	strb	r3, [r2, #4]
    3b16:	9b00      	ldr	r3, [sp, #0]
    3b18:	1bbf      	subs	r7, r7, r6
    3b1a:	199b      	adds	r3, r3, r6
    3b1c:	3401      	adds	r4, #1
    3b1e:	6093      	str	r3, [r2, #8]
    3b20:	60d7      	str	r7, [r2, #12]
    3b22:	602c      	str	r4, [r5, #0]
    3b24:	e7ae      	b.n	3a84 <segment+0x3e>
	...

00003b28 <version_check>:
version_check():
    3b28:	b507      	push	{r0, r1, r2, lr}
    3b2a:	000b      	movs	r3, r1
    3b2c:	0002      	movs	r2, r0
    3b2e:	2000      	movs	r0, #0
    3b30:	428a      	cmp	r2, r1
    3b32:	d006      	beq.n	3b42 <version_check+0x1a>
    3b34:	9200      	str	r2, [sp, #0]
    3b36:	4903      	ldr	r1, [pc, #12]	; (3b44 <version_check+0x1c>)
    3b38:	4a03      	ldr	r2, [pc, #12]	; (3b48 <version_check+0x20>)
    3b3a:	4804      	ldr	r0, [pc, #16]	; (3b4c <version_check+0x24>)
    3b3c:	f000 fbce 	bl	42dc <iprintf>
    3b40:	2008      	movs	r0, #8
    3b42:	bd0e      	pop	{r1, r2, r3, pc}
    3b44:	000063a0 	.word	0x000063a0
    3b48:	00006487 	.word	0x00006487
    3b4c:	0000643d 	.word	0x0000643d

00003b50 <ka_skslot_check>:
ka_skslot_check():
    3b50:	0003      	movs	r3, r0
    3b52:	b530      	push	{r4, r5, lr}
    3b54:	290b      	cmp	r1, #11
    3b56:	d80b      	bhi.n	3b70 <ka_skslot_check+0x20>
    3b58:	2907      	cmp	r1, #7
    3b5a:	d90f      	bls.n	3b7c <ka_skslot_check+0x2c>
    3b5c:	2480      	movs	r4, #128	; 0x80
    3b5e:	2002      	movs	r0, #2
    3b60:	0064      	lsls	r4, r4, #1
    3b62:	42a2      	cmp	r2, r4
    3b64:	d809      	bhi.n	3b7a <ka_skslot_check+0x2a>
    3b66:	1e54      	subs	r4, r2, #1
    3b68:	3001      	adds	r0, #1
    3b6a:	2c7f      	cmp	r4, #127	; 0x7f
    3b6c:	d809      	bhi.n	3b82 <ka_skslot_check+0x32>
    3b6e:	e004      	b.n	3b7a <ka_skslot_check+0x2a>
    3b70:	000c      	movs	r4, r1
    3b72:	3c0c      	subs	r4, #12
    3b74:	2004      	movs	r0, #4
    3b76:	2c01      	cmp	r4, #1
    3b78:	d924      	bls.n	3bc4 <ka_skslot_check+0x74>
    3b7a:	bd30      	pop	{r4, r5, pc}
    3b7c:	2002      	movs	r0, #2
    3b7e:	2a80      	cmp	r2, #128	; 0x80
    3b80:	d8fb      	bhi.n	3b7a <ka_skslot_check+0x2a>
    3b82:	2000      	movs	r0, #0
    3b84:	4283      	cmp	r3, r0
    3b86:	d0f8      	beq.n	3b7a <ka_skslot_check+0x2a>
    3b88:	290b      	cmp	r1, #11
    3b8a:	d825      	bhi.n	3bd8 <ka_skslot_check+0x88>
    3b8c:	4b2d      	ldr	r3, [pc, #180]	; (3c44 <ka_skslot_check+0xf4>)
    3b8e:	2907      	cmp	r1, #7
    3b90:	d943      	bls.n	3c1a <ka_skslot_check+0xca>
    3b92:	000c      	movs	r4, r1
    3b94:	681b      	ldr	r3, [r3, #0]
    3b96:	3c08      	subs	r4, #8
    3b98:	00e4      	lsls	r4, r4, #3
    3b9a:	191c      	adds	r4, r3, r4
    3b9c:	6a23      	ldr	r3, [r4, #32]
    3b9e:	2004      	movs	r0, #4
    3ba0:	07dd      	lsls	r5, r3, #31
    3ba2:	d5ea      	bpl.n	3b7a <ka_skslot_check+0x2a>
    3ba4:	045d      	lsls	r5, r3, #17
    3ba6:	0d6d      	lsrs	r5, r5, #21
    3ba8:	4295      	cmp	r5, r2
    3baa:	d1e6      	bne.n	3b7a <ka_skslot_check+0x2a>
    3bac:	0c1b      	lsrs	r3, r3, #16
    3bae:	3148      	adds	r1, #72	; 0x48
    3bb0:	b2db      	uxtb	r3, r3
    3bb2:	428b      	cmp	r3, r1
    3bb4:	d1e1      	bne.n	3b7a <ka_skslot_check+0x2a>
    3bb6:	6a60      	ldr	r0, [r4, #36]	; 0x24
    3bb8:	041b      	lsls	r3, r3, #16
    3bba:	1ac3      	subs	r3, r0, r3
    3bbc:	1e5a      	subs	r2, r3, #1
    3bbe:	4193      	sbcs	r3, r2
    3bc0:	0098      	lsls	r0, r3, #2
    3bc2:	e7da      	b.n	3b7a <ka_skslot_check+0x2a>
    3bc4:	2480      	movs	r4, #128	; 0x80
    3bc6:	2002      	movs	r0, #2
    3bc8:	00a4      	lsls	r4, r4, #2
    3bca:	42a2      	cmp	r2, r4
    3bcc:	d8d5      	bhi.n	3b7a <ka_skslot_check+0x2a>
    3bce:	1e54      	subs	r4, r2, #1
    3bd0:	3001      	adds	r0, #1
    3bd2:	2cff      	cmp	r4, #255	; 0xff
    3bd4:	d8d5      	bhi.n	3b82 <ka_skslot_check+0x32>
    3bd6:	e7d0      	b.n	3b7a <ka_skslot_check+0x2a>
    3bd8:	000c      	movs	r4, r1
    3bda:	3c0c      	subs	r4, #12
    3bdc:	b2e3      	uxtb	r3, r4
    3bde:	2004      	movs	r0, #4
    3be0:	2b01      	cmp	r3, #1
    3be2:	d8ca      	bhi.n	3b7a <ka_skslot_check+0x2a>
    3be4:	4b17      	ldr	r3, [pc, #92]	; (3c44 <ka_skslot_check+0xf4>)
    3be6:	0124      	lsls	r4, r4, #4
    3be8:	681b      	ldr	r3, [r3, #0]
    3bea:	2004      	movs	r0, #4
    3bec:	191c      	adds	r4, r3, r4
    3bee:	6a23      	ldr	r3, [r4, #32]
    3bf0:	07dd      	lsls	r5, r3, #31
    3bf2:	d5c2      	bpl.n	3b7a <ka_skslot_check+0x2a>
    3bf4:	045d      	lsls	r5, r3, #17
    3bf6:	0d6d      	lsrs	r5, r5, #21
    3bf8:	4295      	cmp	r5, r2
    3bfa:	d1be      	bne.n	3b7a <ka_skslot_check+0x2a>
    3bfc:	0c1b      	lsrs	r3, r3, #16
    3bfe:	3154      	adds	r1, #84	; 0x54
    3c00:	b2db      	uxtb	r3, r3
    3c02:	428b      	cmp	r3, r1
    3c04:	d1b9      	bne.n	3b7a <ka_skslot_check+0x2a>
    3c06:	6a62      	ldr	r2, [r4, #36]	; 0x24
    3c08:	041b      	lsls	r3, r3, #16
    3c0a:	429a      	cmp	r2, r3
    3c0c:	d1b5      	bne.n	3b7a <ka_skslot_check+0x2a>
    3c0e:	6aa3      	ldr	r3, [r4, #40]	; 0x28
    3c10:	429a      	cmp	r2, r3
    3c12:	d1b2      	bne.n	3b7a <ka_skslot_check+0x2a>
    3c14:	6ae0      	ldr	r0, [r4, #44]	; 0x2c
    3c16:	1a10      	subs	r0, r2, r0
    3c18:	e00f      	b.n	3c3a <ka_skslot_check+0xea>
    3c1a:	6818      	ldr	r0, [r3, #0]
    3c1c:	000b      	movs	r3, r1
    3c1e:	3308      	adds	r3, #8
    3c20:	009b      	lsls	r3, r3, #2
    3c22:	581b      	ldr	r3, [r3, r0]
    3c24:	2004      	movs	r0, #4
    3c26:	07dc      	lsls	r4, r3, #31
    3c28:	d5a7      	bpl.n	3b7a <ka_skslot_check+0x2a>
    3c2a:	045c      	lsls	r4, r3, #17
    3c2c:	0d64      	lsrs	r4, r4, #21
    3c2e:	4294      	cmp	r4, r2
    3c30:	d1a3      	bne.n	3b7a <ka_skslot_check+0x2a>
    3c32:	0c18      	lsrs	r0, r3, #16
    3c34:	b2c0      	uxtb	r0, r0
    3c36:	3130      	adds	r1, #48	; 0x30
    3c38:	1a40      	subs	r0, r0, r1
    3c3a:	1e43      	subs	r3, r0, #1
    3c3c:	4198      	sbcs	r0, r3
    3c3e:	0080      	lsls	r0, r0, #2
    3c40:	e79b      	b.n	3b7a <ka_skslot_check+0x2a>
    3c42:	46c0      	nop			; (mov r8, r8)
    3c44:	2000033c 	.word	0x2000033c

00003c48 <pufs_kwp_start>:
pufs_kwp_start():
    3c48:	2201      	movs	r2, #1
    3c4a:	4b10      	ldr	r3, [pc, #64]	; (3c8c <pufs_kwp_start+0x44>)
    3c4c:	b510      	push	{r4, lr}
    3c4e:	6819      	ldr	r1, [r3, #0]
    3c50:	614a      	str	r2, [r1, #20]
    3c52:	690b      	ldr	r3, [r1, #16]
    3c54:	4213      	tst	r3, r2
    3c56:	d1fc      	bne.n	3c52 <pufs_kwp_start+0xa>
    3c58:	200a      	movs	r0, #10
    3c5a:	075a      	lsls	r2, r3, #29
    3c5c:	d415      	bmi.n	3c8a <pufs_kwp_start+0x42>
    3c5e:	2108      	movs	r1, #8
    3c60:	3808      	subs	r0, #8
    3c62:	420b      	tst	r3, r1
    3c64:	d111      	bne.n	3c8a <pufs_kwp_start+0x42>
    3c66:	3001      	adds	r0, #1
    3c68:	06da      	lsls	r2, r3, #27
    3c6a:	d40e      	bmi.n	3c8a <pufs_kwp_start+0x42>
    3c6c:	2220      	movs	r2, #32
    3c6e:	001c      	movs	r4, r3
    3c70:	0008      	movs	r0, r1
    3c72:	4014      	ands	r4, r2
    3c74:	4213      	tst	r3, r2
    3c76:	d108      	bne.n	3c8a <pufs_kwp_start+0x42>
    3c78:	0020      	movs	r0, r4
    3c7a:	2b00      	cmp	r3, #0
    3c7c:	d005      	beq.n	3c8a <pufs_kwp_start+0x42>
    3c7e:	4a04      	ldr	r2, [pc, #16]	; (3c90 <pufs_kwp_start+0x48>)
    3c80:	4904      	ldr	r1, [pc, #16]	; (3c94 <pufs_kwp_start+0x4c>)
    3c82:	4805      	ldr	r0, [pc, #20]	; (3c98 <pufs_kwp_start+0x50>)
    3c84:	f000 fb2a 	bl	42dc <iprintf>
    3c88:	200d      	movs	r0, #13
    3c8a:	bd10      	pop	{r4, pc}
    3c8c:	20000340 	.word	0x20000340
    3c90:	000064b6 	.word	0x000064b6
    3c94:	000063a0 	.word	0x000063a0
    3c98:	00006495 	.word	0x00006495

00003c9c <keyslot_check>:
keyslot_check():
    3c9c:	b570      	push	{r4, r5, r6, lr}
    3c9e:	0006      	movs	r6, r0
    3ca0:	1e48      	subs	r0, r1, #1
    3ca2:	0015      	movs	r5, r2
    3ca4:	001a      	movs	r2, r3
    3ca6:	2805      	cmp	r0, #5
    3ca8:	d83e      	bhi.n	3d28 <keyslot_check+0x8c>
    3caa:	f7fc fa39 	bl	120 <__gnu_thumb1_case_uqi>
    3cae:	0903      	.short	0x0903
    3cb0:	1f1a150d 	.word	0x1f1a150d
    3cb4:	0019      	movs	r1, r3
    3cb6:	b2e8      	uxtb	r0, r5
    3cb8:	f000 f930 	bl	3f1c <otpkey_slot_check>
    3cbc:	0001      	movs	r1, r0
    3cbe:	e009      	b.n	3cd4 <keyslot_check+0x38>
    3cc0:	b2e8      	uxtb	r0, r5
    3cc2:	f000 f923 	bl	3f0c <puf_slot_check>
    3cc6:	e7f9      	b.n	3cbc <keyslot_check+0x20>
    3cc8:	2380      	movs	r3, #128	; 0x80
    3cca:	2400      	movs	r4, #0
    3ccc:	011b      	lsls	r3, r3, #4
    3cce:	429a      	cmp	r2, r3
    3cd0:	4164      	adcs	r4, r4
    3cd2:	00a1      	lsls	r1, r4, #2
    3cd4:	0008      	movs	r0, r1
    3cd6:	bd70      	pop	{r4, r5, r6, pc}
    3cd8:	b2ed      	uxtb	r5, r5
    3cda:	2d11      	cmp	r5, #17
    3cdc:	d1fa      	bne.n	3cd4 <keyslot_check+0x38>
    3cde:	2100      	movs	r1, #0
    3ce0:	e7f8      	b.n	3cd4 <keyslot_check+0x38>
    3ce2:	0030      	movs	r0, r6
    3ce4:	b2e9      	uxtb	r1, r5
    3ce6:	f7ff ff33 	bl	3b50 <ka_skslot_check>
    3cea:	e7e7      	b.n	3cbc <keyslot_check+0x20>
    3cec:	002b      	movs	r3, r5
    3cee:	3b0e      	subs	r3, #14
    3cf0:	b2db      	uxtb	r3, r3
    3cf2:	2104      	movs	r1, #4
    3cf4:	2b02      	cmp	r3, #2
    3cf6:	d8ed      	bhi.n	3cd4 <keyslot_check+0x38>
    3cf8:	2390      	movs	r3, #144	; 0x90
    3cfa:	3902      	subs	r1, #2
    3cfc:	009b      	lsls	r3, r3, #2
    3cfe:	429a      	cmp	r2, r3
    3d00:	d8e8      	bhi.n	3cd4 <keyslot_check+0x38>
    3d02:	2100      	movs	r1, #0
    3d04:	428e      	cmp	r6, r1
    3d06:	d0e5      	beq.n	3cd4 <keyslot_check+0x38>
    3d08:	4b08      	ldr	r3, [pc, #32]	; (3d2c <keyslot_check+0x90>)
    3d0a:	b2ed      	uxtb	r5, r5
    3d0c:	681b      	ldr	r3, [r3, #0]
    3d0e:	3502      	adds	r5, #2
    3d10:	00ad      	lsls	r5, r5, #2
    3d12:	58eb      	ldr	r3, [r5, r3]
    3d14:	3104      	adds	r1, #4
    3d16:	07d8      	lsls	r0, r3, #31
    3d18:	d5dc      	bpl.n	3cd4 <keyslot_check+0x38>
    3d1a:	045b      	lsls	r3, r3, #17
    3d1c:	0d5b      	lsrs	r3, r3, #21
    3d1e:	1ad2      	subs	r2, r2, r3
    3d20:	1e53      	subs	r3, r2, #1
    3d22:	419a      	sbcs	r2, r3
    3d24:	0091      	lsls	r1, r2, #2
    3d26:	e7d5      	b.n	3cd4 <keyslot_check+0x38>
    3d28:	2104      	movs	r1, #4
    3d2a:	e7d3      	b.n	3cd4 <keyslot_check+0x38>
    3d2c:	2000033c 	.word	0x2000033c

00003d30 <get_key_slot_idx>:
get_key_slot_idx():
    3d30:	b500      	push	{lr}
    3d32:	2806      	cmp	r0, #6
    3d34:	d80c      	bhi.n	3d50 <get_key_slot_idx+0x20>
    3d36:	f7fc f9f3 	bl	120 <__gnu_thumb1_case_uqi>
    3d3a:	0604      	.short	0x0604
    3d3c:	1914040e 	.word	0x1914040e
    3d40:	28          	.byte	0x28
    3d41:	00          	.byte	0x00
    3d42:	2000      	movs	r0, #0
    3d44:	bd00      	pop	{pc}
    3d46:	b2cb      	uxtb	r3, r1
    3d48:	3b04      	subs	r3, #4
    3d4a:	1f08      	subs	r0, r1, #4
    3d4c:	2b1f      	cmp	r3, #31
    3d4e:	d9f9      	bls.n	3d44 <get_key_slot_idx+0x14>
    3d50:	2001      	movs	r0, #1
    3d52:	4240      	negs	r0, r0
    3d54:	e7f6      	b.n	3d44 <get_key_slot_idx+0x14>
    3d56:	b2cb      	uxtb	r3, r1
    3d58:	3b01      	subs	r3, #1
    3d5a:	2b02      	cmp	r3, #2
    3d5c:	d8f8      	bhi.n	3d50 <get_key_slot_idx+0x20>
    3d5e:	0008      	movs	r0, r1
    3d60:	e7f0      	b.n	3d44 <get_key_slot_idx+0x14>
    3d62:	b2cb      	uxtb	r3, r1
    3d64:	3911      	subs	r1, #17
    3d66:	2b11      	cmp	r3, #17
    3d68:	d0f9      	beq.n	3d5e <get_key_slot_idx+0x2e>
    3d6a:	e7f1      	b.n	3d50 <get_key_slot_idx+0x20>
    3d6c:	b2cb      	uxtb	r3, r1
    3d6e:	2b0b      	cmp	r3, #11
    3d70:	d805      	bhi.n	3d7e <get_key_slot_idx+0x4e>
    3d72:	23f8      	movs	r3, #248	; 0xf8
    3d74:	4219      	tst	r1, r3
    3d76:	d0f2      	beq.n	3d5e <get_key_slot_idx+0x2e>
    3d78:	3908      	subs	r1, #8
    3d7a:	0048      	lsls	r0, r1, #1
    3d7c:	e7e2      	b.n	3d44 <get_key_slot_idx+0x14>
    3d7e:	3b0c      	subs	r3, #12
    3d80:	2b01      	cmp	r3, #1
    3d82:	d8e5      	bhi.n	3d50 <get_key_slot_idx+0x20>
    3d84:	390c      	subs	r1, #12
    3d86:	0088      	lsls	r0, r1, #2
    3d88:	e7dc      	b.n	3d44 <get_key_slot_idx+0x14>
    3d8a:	b2cb      	uxtb	r3, r1
    3d8c:	3b0e      	subs	r3, #14
    3d8e:	2b02      	cmp	r3, #2
    3d90:	d8de      	bhi.n	3d50 <get_key_slot_idx+0x20>
    3d92:	390e      	subs	r1, #14
    3d94:	e7e3      	b.n	3d5e <get_key_slot_idx+0x2e>
	...

00003d98 <pufs_ka_module_init>:
pufs_ka_module_init():
    3d98:	4b05      	ldr	r3, [pc, #20]	; (3db0 <pufs_ka_module_init+0x18>)
    3d9a:	b510      	push	{r4, lr}
    3d9c:	681b      	ldr	r3, [r3, #0]
    3d9e:	18c0      	adds	r0, r0, r3
    3da0:	4b04      	ldr	r3, [pc, #16]	; (3db4 <pufs_ka_module_init+0x1c>)
    3da2:	6801      	ldr	r1, [r0, #0]
    3da4:	6018      	str	r0, [r3, #0]
    3da6:	4804      	ldr	r0, [pc, #16]	; (3db8 <pufs_ka_module_init+0x20>)
    3da8:	f7ff febe 	bl	3b28 <version_check>
    3dac:	bd10      	pop	{r4, pc}
    3dae:	46c0      	nop			; (mov r8, r8)
    3db0:	20000150 	.word	0x20000150
    3db4:	2000033c 	.word	0x2000033c
    3db8:	505001a0 	.word	0x505001a0

00003dbc <pufs_kwp_module_init>:
pufs_kwp_module_init():
    3dbc:	4b05      	ldr	r3, [pc, #20]	; (3dd4 <pufs_kwp_module_init+0x18>)
    3dbe:	b510      	push	{r4, lr}
    3dc0:	681b      	ldr	r3, [r3, #0]
    3dc2:	18c0      	adds	r0, r0, r3
    3dc4:	4b04      	ldr	r3, [pc, #16]	; (3dd8 <pufs_kwp_module_init+0x1c>)
    3dc6:	6801      	ldr	r1, [r0, #0]
    3dc8:	6018      	str	r0, [r3, #0]
    3dca:	4804      	ldr	r0, [pc, #16]	; (3ddc <pufs_kwp_module_init+0x20>)
    3dcc:	f7ff feac 	bl	3b28 <version_check>
    3dd0:	bd10      	pop	{r4, pc}
    3dd2:	46c0      	nop			; (mov r8, r8)
    3dd4:	20000150 	.word	0x20000150
    3dd8:	20000340 	.word	0x20000340
    3ddc:	33384600 	.word	0x33384600

00003de0 <pufs_import_plaintext_key>:
pufs_import_plaintext_key():
    3de0:	b5f0      	push	{r4, r5, r6, r7, lr}
    3de2:	001d      	movs	r5, r3
    3de4:	b099      	sub	sp, #100	; 0x64
    3de6:	1f43      	subs	r3, r0, #5
    3de8:	0004      	movs	r4, r0
    3dea:	9102      	str	r1, [sp, #8]
    3dec:	2004      	movs	r0, #4
    3dee:	9203      	str	r2, [sp, #12]
    3df0:	2b01      	cmp	r3, #1
    3df2:	d839      	bhi.n	3e68 <pufs_import_plaintext_key+0x88>
    3df4:	000a      	movs	r2, r1
    3df6:	002b      	movs	r3, r5
    3df8:	0021      	movs	r1, r4
    3dfa:	2000      	movs	r0, #0
    3dfc:	f7ff ff4e 	bl	3c9c <keyslot_check>
    3e00:	2800      	cmp	r0, #0
    3e02:	d131      	bne.n	3e68 <pufs_import_plaintext_key+0x88>
    3e04:	4e19      	ldr	r6, [pc, #100]	; (3e6c <pufs_import_plaintext_key+0x8c>)
    3e06:	3005      	adds	r0, #5
    3e08:	6837      	ldr	r7, [r6, #0]
    3e0a:	693b      	ldr	r3, [r7, #16]
    3e0c:	07db      	lsls	r3, r3, #31
    3e0e:	d42b      	bmi.n	3e68 <pufs_import_plaintext_key+0x88>
    3e10:	022b      	lsls	r3, r5, #8
    3e12:	9301      	str	r3, [sp, #4]
    3e14:	2c06      	cmp	r4, #6
    3e16:	d104      	bne.n	3e22 <pufs_import_plaintext_key+0x42>
    3e18:	2380      	movs	r3, #128	; 0x80
    3e1a:	022a      	lsls	r2, r5, #8
    3e1c:	031b      	lsls	r3, r3, #12
    3e1e:	431a      	orrs	r2, r3
    3e20:	9201      	str	r2, [sp, #4]
    3e22:	9902      	ldr	r1, [sp, #8]
    3e24:	0020      	movs	r0, r4
    3e26:	f7ff ff83 	bl	3d30 <get_key_slot_idx>
    3e2a:	9b01      	ldr	r3, [sp, #4]
    3e2c:	0500      	lsls	r0, r0, #20
    3e2e:	4318      	orrs	r0, r3
    3e30:	2250      	movs	r2, #80	; 0x50
    3e32:	2100      	movs	r1, #0
    3e34:	61b8      	str	r0, [r7, #24]
    3e36:	a804      	add	r0, sp, #16
    3e38:	f7fc fa24 	bl	284 <memset>
    3e3c:	1dea      	adds	r2, r5, #7
    3e3e:	9903      	ldr	r1, [sp, #12]
    3e40:	08d2      	lsrs	r2, r2, #3
    3e42:	a804      	add	r0, sp, #16
    3e44:	f000 f94c 	bl	40e0 <memcpy>
    3e48:	2400      	movs	r4, #0
    3e4a:	00a3      	lsls	r3, r4, #2
    3e4c:	aa04      	add	r2, sp, #16
    3e4e:	58d0      	ldr	r0, [r2, r3]
    3e50:	6835      	ldr	r5, [r6, #0]
    3e52:	f000 f859 	bl	3f08 <be2le>
    3e56:	0023      	movs	r3, r4
    3e58:	3310      	adds	r3, #16
    3e5a:	009b      	lsls	r3, r3, #2
    3e5c:	3401      	adds	r4, #1
    3e5e:	5158      	str	r0, [r3, r5]
    3e60:	2c14      	cmp	r4, #20
    3e62:	d1f2      	bne.n	3e4a <pufs_import_plaintext_key+0x6a>
    3e64:	f7ff fef0 	bl	3c48 <pufs_kwp_start>
    3e68:	b019      	add	sp, #100	; 0x64
    3e6a:	bdf0      	pop	{r4, r5, r6, r7, pc}
    3e6c:	20000340 	.word	0x20000340

00003e70 <pufs_clear_key>:
pufs_clear_key():
    3e70:	0013      	movs	r3, r2
    3e72:	1f02      	subs	r2, r0, #4
    3e74:	b570      	push	{r4, r5, r6, lr}
    3e76:	000c      	movs	r4, r1
    3e78:	2504      	movs	r5, #4
    3e7a:	2a02      	cmp	r2, #2
    3e7c:	d819      	bhi.n	3eb2 <pufs_clear_key+0x42>
    3e7e:	000a      	movs	r2, r1
    3e80:	0001      	movs	r1, r0
    3e82:	2001      	movs	r0, #1
    3e84:	f7ff ff0a 	bl	3c9c <keyslot_check>
    3e88:	1e05      	subs	r5, r0, #0
    3e8a:	d112      	bne.n	3eb2 <pufs_clear_key+0x42>
    3e8c:	2c11      	cmp	r4, #17
    3e8e:	d824      	bhi.n	3eda <pufs_clear_key+0x6a>
    3e90:	0020      	movs	r0, r4
    3e92:	4b13      	ldr	r3, [pc, #76]	; (3ee0 <pufs_clear_key+0x70>)
    3e94:	f7fc f944 	bl	120 <__gnu_thumb1_case_uqi>
    3e98:	09090909 	.word	0x09090909
    3e9c:	09090909 	.word	0x09090909
    3ea0:	0f0f0f0f 	.word	0x0f0f0f0f
    3ea4:	17171313 	.word	0x17171313
    3ea8:	1d17      	.short	0x1d17
    3eaa:	2201      	movs	r2, #1
    3eac:	40a2      	lsls	r2, r4
    3eae:	681b      	ldr	r3, [r3, #0]
    3eb0:	611a      	str	r2, [r3, #16]
    3eb2:	0028      	movs	r0, r5
    3eb4:	bd70      	pop	{r4, r5, r6, pc}
    3eb6:	3c08      	subs	r4, #8
    3eb8:	2203      	movs	r2, #3
    3eba:	0064      	lsls	r4, r4, #1
    3ebc:	e7f6      	b.n	3eac <pufs_clear_key+0x3c>
    3ebe:	3c0c      	subs	r4, #12
    3ec0:	220f      	movs	r2, #15
    3ec2:	00a4      	lsls	r4, r4, #2
    3ec4:	e7f2      	b.n	3eac <pufs_clear_key+0x3c>
    3ec6:	2201      	movs	r2, #1
    3ec8:	3c0e      	subs	r4, #14
    3eca:	40a2      	lsls	r2, r4
    3ecc:	681b      	ldr	r3, [r3, #0]
    3ece:	615a      	str	r2, [r3, #20]
    3ed0:	e7ef      	b.n	3eb2 <pufs_clear_key+0x42>
    3ed2:	2201      	movs	r2, #1
    3ed4:	681b      	ldr	r3, [r3, #0]
    3ed6:	619a      	str	r2, [r3, #24]
    3ed8:	e7eb      	b.n	3eb2 <pufs_clear_key+0x42>
    3eda:	2504      	movs	r5, #4
    3edc:	e7e9      	b.n	3eb2 <pufs_clear_key+0x42>
    3ede:	46c0      	nop			; (mov r8, r8)
    3ee0:	2000033c 	.word	0x2000033c

00003ee4 <pufs_kdf_module_init>:
pufs_kdf_module_init():
    3ee4:	4b05      	ldr	r3, [pc, #20]	; (3efc <pufs_kdf_module_init+0x18>)
    3ee6:	b510      	push	{r4, lr}
    3ee8:	681b      	ldr	r3, [r3, #0]
    3eea:	18c0      	adds	r0, r0, r3
    3eec:	4b04      	ldr	r3, [pc, #16]	; (3f00 <pufs_kdf_module_init+0x1c>)
    3eee:	6801      	ldr	r1, [r0, #0]
    3ef0:	6018      	str	r0, [r3, #0]
    3ef2:	4804      	ldr	r0, [pc, #16]	; (3f04 <pufs_kdf_module_init+0x20>)
    3ef4:	f7ff fe18 	bl	3b28 <version_check>
    3ef8:	bd10      	pop	{r4, pc}
    3efa:	46c0      	nop			; (mov r8, r8)
    3efc:	20000150 	.word	0x20000150
    3f00:	20000344 	.word	0x20000344
    3f04:	484b4400 	.word	0x484b4400

00003f08 <be2le>:
be2le():
    3f08:	ba00      	rev	r0, r0
    3f0a:	4770      	bx	lr

00003f0c <puf_slot_check>:
puf_slot_check():
    3f0c:	3801      	subs	r0, #1
    3f0e:	b2c3      	uxtb	r3, r0
    3f10:	2002      	movs	r0, #2
    3f12:	4298      	cmp	r0, r3
    3f14:	4180      	sbcs	r0, r0
    3f16:	4240      	negs	r0, r0
    3f18:	0080      	lsls	r0, r0, #2
    3f1a:	4770      	bx	lr

00003f1c <otpkey_slot_check>:
otpkey_slot_check():
    3f1c:	3804      	subs	r0, #4
    3f1e:	000a      	movs	r2, r1
    3f20:	b2c1      	uxtb	r1, r0
    3f22:	2304      	movs	r3, #4
    3f24:	b510      	push	{r4, lr}
    3f26:	291f      	cmp	r1, #31
    3f28:	d80d      	bhi.n	3f46 <otpkey_slot_check+0x2a>
    3f2a:	2180      	movs	r1, #128	; 0x80
    3f2c:	3b02      	subs	r3, #2
    3f2e:	0109      	lsls	r1, r1, #4
    3f30:	428a      	cmp	r2, r1
    3f32:	d208      	bcs.n	3f46 <otpkey_slot_check+0x2a>
    3f34:	2101      	movs	r1, #1
    3f36:	33fe      	adds	r3, #254	; 0xfe
    3f38:	429a      	cmp	r2, r3
    3f3a:	d806      	bhi.n	3f4a <otpkey_slot_check+0x2e>
    3f3c:	f7fc f980 	bl	240 <__aeabi_uidivmod>
    3f40:	1e4b      	subs	r3, r1, #1
    3f42:	4199      	sbcs	r1, r3
    3f44:	b2cb      	uxtb	r3, r1
    3f46:	0018      	movs	r0, r3
    3f48:	bd10      	pop	{r4, pc}
    3f4a:	005b      	lsls	r3, r3, #1
    3f4c:	0049      	lsls	r1, r1, #1
    3f4e:	e7f3      	b.n	3f38 <otpkey_slot_check+0x1c>

00003f50 <pufs_rt_module_init>:
pufs_rt_module_init():
    3f50:	4b06      	ldr	r3, [pc, #24]	; (3f6c <pufs_rt_module_init+0x1c>)
    3f52:	b510      	push	{r4, lr}
    3f54:	681b      	ldr	r3, [r3, #0]
    3f56:	18c0      	adds	r0, r0, r3
    3f58:	4b05      	ldr	r3, [pc, #20]	; (3f70 <pufs_rt_module_init+0x20>)
    3f5a:	6018      	str	r0, [r3, #0]
    3f5c:	23b0      	movs	r3, #176	; 0xb0
    3f5e:	009b      	lsls	r3, r3, #2
    3f60:	58c1      	ldr	r1, [r0, r3]
    3f62:	4804      	ldr	r0, [pc, #16]	; (3f74 <pufs_rt_module_init+0x24>)
    3f64:	f7ff fde0 	bl	3b28 <version_check>
    3f68:	bd10      	pop	{r4, pc}
    3f6a:	46c0      	nop			; (mov r8, r8)
    3f6c:	20000150 	.word	0x20000150
    3f70:	20000348 	.word	0x20000348
    3f74:	504d30d6 	.word	0x504d30d6

00003f78 <pufs_rt_cde_init>:
pufs_rt_cde_init():
    3f78:	4b03      	ldr	r3, [pc, #12]	; (3f88 <pufs_rt_cde_init+0x10>)
    3f7a:	4a04      	ldr	r2, [pc, #16]	; (3f8c <pufs_rt_cde_init+0x14>)
    3f7c:	681b      	ldr	r3, [r3, #0]
    3f7e:	181b      	adds	r3, r3, r0
    3f80:	6013      	str	r3, [r2, #0]
    3f82:	2000      	movs	r0, #0
    3f84:	4770      	bx	lr
    3f86:	46c0      	nop			; (mov r8, r8)
    3f88:	20000150 	.word	0x20000150
    3f8c:	2000034c 	.word	0x2000034c

00003f90 <pufs_sp38a_module_init>:
pufs_sp38a_module_init():
    3f90:	4b05      	ldr	r3, [pc, #20]	; (3fa8 <pufs_sp38a_module_init+0x18>)
    3f92:	b510      	push	{r4, lr}
    3f94:	681b      	ldr	r3, [r3, #0]
    3f96:	18c0      	adds	r0, r0, r3
    3f98:	4b04      	ldr	r3, [pc, #16]	; (3fac <pufs_sp38a_module_init+0x1c>)
    3f9a:	6801      	ldr	r1, [r0, #0]
    3f9c:	6018      	str	r0, [r3, #0]
    3f9e:	4804      	ldr	r0, [pc, #16]	; (3fb0 <pufs_sp38a_module_init+0x20>)
    3fa0:	f7ff fdc2 	bl	3b28 <version_check>
    3fa4:	bd10      	pop	{r4, pc}
    3fa6:	46c0      	nop			; (mov r8, r8)
    3fa8:	20000150 	.word	0x20000150
    3fac:	20000350 	.word	0x20000350
    3fb0:	33384100 	.word	0x33384100

00003fb4 <pufs_sp38c_module_init>:
pufs_sp38c_module_init():
    3fb4:	4b05      	ldr	r3, [pc, #20]	; (3fcc <pufs_sp38c_module_init+0x18>)
    3fb6:	b510      	push	{r4, lr}
    3fb8:	681b      	ldr	r3, [r3, #0]
    3fba:	18c0      	adds	r0, r0, r3
    3fbc:	4b04      	ldr	r3, [pc, #16]	; (3fd0 <pufs_sp38c_module_init+0x1c>)
    3fbe:	6801      	ldr	r1, [r0, #0]
    3fc0:	6018      	str	r0, [r3, #0]
    3fc2:	4804      	ldr	r0, [pc, #16]	; (3fd4 <pufs_sp38c_module_init+0x20>)
    3fc4:	f7ff fdb0 	bl	3b28 <version_check>
    3fc8:	bd10      	pop	{r4, pc}
    3fca:	46c0      	nop			; (mov r8, r8)
    3fcc:	20000150 	.word	0x20000150
    3fd0:	20000354 	.word	0x20000354
    3fd4:	33384301 	.word	0x33384301

00003fd8 <pufs_sp38d_module_init>:
pufs_sp38d_module_init():
    3fd8:	4b05      	ldr	r3, [pc, #20]	; (3ff0 <pufs_sp38d_module_init+0x18>)
    3fda:	b510      	push	{r4, lr}
    3fdc:	681b      	ldr	r3, [r3, #0]
    3fde:	18c0      	adds	r0, r0, r3
    3fe0:	4b04      	ldr	r3, [pc, #16]	; (3ff4 <pufs_sp38d_module_init+0x1c>)
    3fe2:	6801      	ldr	r1, [r0, #0]
    3fe4:	6018      	str	r0, [r3, #0]
    3fe6:	4804      	ldr	r0, [pc, #16]	; (3ff8 <pufs_sp38d_module_init+0x20>)
    3fe8:	f7ff fd9e 	bl	3b28 <version_check>
    3fec:	bd10      	pop	{r4, pc}
    3fee:	46c0      	nop			; (mov r8, r8)
    3ff0:	20000150 	.word	0x20000150
    3ff4:	20000358 	.word	0x20000358
    3ff8:	33384401 	.word	0x33384401

00003ffc <pufs_sp38e_module_init>:
pufs_sp38e_module_init():
    3ffc:	4b05      	ldr	r3, [pc, #20]	; (4014 <pufs_sp38e_module_init+0x18>)
    3ffe:	b510      	push	{r4, lr}
    4000:	681b      	ldr	r3, [r3, #0]
    4002:	18c0      	adds	r0, r0, r3
    4004:	4b04      	ldr	r3, [pc, #16]	; (4018 <pufs_sp38e_module_init+0x1c>)
    4006:	6801      	ldr	r1, [r0, #0]
    4008:	6018      	str	r0, [r3, #0]
    400a:	4804      	ldr	r0, [pc, #16]	; (401c <pufs_sp38e_module_init+0x20>)
    400c:	f7ff fd8c 	bl	3b28 <version_check>
    4010:	bd10      	pop	{r4, pc}
    4012:	46c0      	nop			; (mov r8, r8)
    4014:	20000150 	.word	0x20000150
    4018:	2000035c 	.word	0x2000035c
    401c:	33384500 	.word	0x33384500

00004020 <pufs_drbg_module_init>:
pufs_drbg_module_init():
    4020:	4b05      	ldr	r3, [pc, #20]	; (4038 <pufs_drbg_module_init+0x18>)
    4022:	b510      	push	{r4, lr}
    4024:	681b      	ldr	r3, [r3, #0]
    4026:	18c0      	adds	r0, r0, r3
    4028:	4b04      	ldr	r3, [pc, #16]	; (403c <pufs_drbg_module_init+0x1c>)
    402a:	6801      	ldr	r1, [r0, #0]
    402c:	6018      	str	r0, [r3, #0]
    402e:	4804      	ldr	r0, [pc, #16]	; (4040 <pufs_drbg_module_init+0x20>)
    4030:	f7ff fd7a 	bl	3b28 <version_check>
    4034:	bd10      	pop	{r4, pc}
    4036:	46c0      	nop			; (mov r8, r8)
    4038:	20000150 	.word	0x20000150
    403c:	20000360 	.word	0x20000360
    4040:	39304100 	.word	0x39304100

00004044 <pufs_pal_init>:
pufs_pal_init():
    4044:	4770      	bx	lr

00004046 <pufs_pal_mmap>:
pufs_pal_mmap():
    4046:	2000      	movs	r0, #0
    4048:	4770      	bx	lr

0000404a <pufs_pal_config_dma>:
pufs_pal_config_dma():
    404a:	2000      	movs	r0, #0
    404c:	4770      	bx	lr

0000404e <pufs_pal_dma_write_addr>:
pufs_pal_dma_write_addr():
    404e:	4770      	bx	lr

00004050 <pufs_pal_dma_read_addr>:
pufs_pal_dma_read_addr():
    4050:	4770      	bx	lr
	...

00004054 <pufs_chacha_module_init>:
pufs_chacha_module_init():
    4054:	4b05      	ldr	r3, [pc, #20]	; (406c <pufs_chacha_module_init+0x18>)
    4056:	b510      	push	{r4, lr}
    4058:	681b      	ldr	r3, [r3, #0]
    405a:	18c0      	adds	r0, r0, r3
    405c:	4b04      	ldr	r3, [pc, #16]	; (4070 <pufs_chacha_module_init+0x1c>)
    405e:	6801      	ldr	r1, [r0, #0]
    4060:	6018      	str	r0, [r3, #0]
    4062:	4804      	ldr	r0, [pc, #16]	; (4074 <pufs_chacha_module_init+0x20>)
    4064:	f7ff fd60 	bl	3b28 <version_check>
    4068:	bd10      	pop	{r4, pc}
    406a:	46c0      	nop			; (mov r8, r8)
    406c:	20000150 	.word	0x20000150
    4070:	20000364 	.word	0x20000364
    4074:	84390002 	.word	0x84390002

00004078 <pufs_cmac_module_init>:
pufs_cmac_module_init():
    4078:	4b05      	ldr	r3, [pc, #20]	; (4090 <pufs_cmac_module_init+0x18>)
    407a:	b510      	push	{r4, lr}
    407c:	681b      	ldr	r3, [r3, #0]
    407e:	18c0      	adds	r0, r0, r3
    4080:	4b04      	ldr	r3, [pc, #16]	; (4094 <pufs_cmac_module_init+0x1c>)
    4082:	6801      	ldr	r1, [r0, #0]
    4084:	6018      	str	r0, [r3, #0]
    4086:	4804      	ldr	r0, [pc, #16]	; (4098 <pufs_cmac_module_init+0x20>)
    4088:	f7ff fd4e 	bl	3b28 <version_check>
    408c:	bd10      	pop	{r4, pc}
    408e:	46c0      	nop			; (mov r8, r8)
    4090:	20000150 	.word	0x20000150
    4094:	20000368 	.word	0x20000368
    4098:	33384200 	.word	0x33384200

0000409c <malloc>:
malloc():
    409c:	b510      	push	{r4, lr}
    409e:	4b03      	ldr	r3, [pc, #12]	; (40ac <malloc+0x10>)
    40a0:	0001      	movs	r1, r0
    40a2:	6818      	ldr	r0, [r3, #0]
    40a4:	f000 f8a4 	bl	41f0 <_malloc_r>
    40a8:	bd10      	pop	{r4, pc}
    40aa:	46c0      	nop			; (mov r8, r8)
    40ac:	20000000 	.word	0x20000000

000040b0 <free>:
free():
    40b0:	b510      	push	{r4, lr}
    40b2:	4b03      	ldr	r3, [pc, #12]	; (40c0 <free+0x10>)
    40b4:	0001      	movs	r1, r0
    40b6:	6818      	ldr	r0, [r3, #0]
    40b8:	f000 f82e 	bl	4118 <_free_r>
    40bc:	bd10      	pop	{r4, pc}
    40be:	46c0      	nop			; (mov r8, r8)
    40c0:	20000000 	.word	0x20000000

000040c4 <memcmp>:
memcmp():
    40c4:	b530      	push	{r4, r5, lr}
    40c6:	2400      	movs	r4, #0
    40c8:	3901      	subs	r1, #1
    40ca:	42a2      	cmp	r2, r4
    40cc:	d101      	bne.n	40d2 <memcmp+0xe>
    40ce:	2000      	movs	r0, #0
    40d0:	e005      	b.n	40de <memcmp+0x1a>
    40d2:	5d03      	ldrb	r3, [r0, r4]
    40d4:	3401      	adds	r4, #1
    40d6:	5d0d      	ldrb	r5, [r1, r4]
    40d8:	42ab      	cmp	r3, r5
    40da:	d0f6      	beq.n	40ca <memcmp+0x6>
    40dc:	1b58      	subs	r0, r3, r5
    40de:	bd30      	pop	{r4, r5, pc}

000040e0 <memcpy>:
memcpy():
    40e0:	2300      	movs	r3, #0
    40e2:	b510      	push	{r4, lr}
    40e4:	429a      	cmp	r2, r3
    40e6:	d100      	bne.n	40ea <memcpy+0xa>
    40e8:	bd10      	pop	{r4, pc}
    40ea:	5ccc      	ldrb	r4, [r1, r3]
    40ec:	54c4      	strb	r4, [r0, r3]
    40ee:	3301      	adds	r3, #1
    40f0:	e7f8      	b.n	40e4 <memcpy+0x4>

000040f2 <memmove>:
memmove():
    40f2:	b510      	push	{r4, lr}
    40f4:	4288      	cmp	r0, r1
    40f6:	d902      	bls.n	40fe <memmove+0xc>
    40f8:	188b      	adds	r3, r1, r2
    40fa:	4298      	cmp	r0, r3
    40fc:	d303      	bcc.n	4106 <memmove+0x14>
    40fe:	2300      	movs	r3, #0
    4100:	e007      	b.n	4112 <memmove+0x20>
    4102:	5c8b      	ldrb	r3, [r1, r2]
    4104:	5483      	strb	r3, [r0, r2]
    4106:	3a01      	subs	r2, #1
    4108:	d2fb      	bcs.n	4102 <memmove+0x10>
    410a:	bd10      	pop	{r4, pc}
    410c:	5ccc      	ldrb	r4, [r1, r3]
    410e:	54c4      	strb	r4, [r0, r3]
    4110:	3301      	adds	r3, #1
    4112:	429a      	cmp	r2, r3
    4114:	d1fa      	bne.n	410c <memmove+0x1a>
    4116:	e7f8      	b.n	410a <memmove+0x18>

00004118 <_free_r>:
_free_r():
    4118:	b570      	push	{r4, r5, r6, lr}
    411a:	0005      	movs	r5, r0
    411c:	2900      	cmp	r1, #0
    411e:	d010      	beq.n	4142 <_free_r+0x2a>
    4120:	1f0c      	subs	r4, r1, #4
    4122:	6823      	ldr	r3, [r4, #0]
    4124:	2b00      	cmp	r3, #0
    4126:	da00      	bge.n	412a <_free_r+0x12>
    4128:	18e4      	adds	r4, r4, r3
    412a:	0028      	movs	r0, r5
    412c:	f000 fc2e 	bl	498c <__malloc_lock>
    4130:	4a1d      	ldr	r2, [pc, #116]	; (41a8 <_free_r+0x90>)
    4132:	6813      	ldr	r3, [r2, #0]
    4134:	2b00      	cmp	r3, #0
    4136:	d105      	bne.n	4144 <_free_r+0x2c>
    4138:	6063      	str	r3, [r4, #4]
    413a:	6014      	str	r4, [r2, #0]
    413c:	0028      	movs	r0, r5
    413e:	f000 fc2d 	bl	499c <__malloc_unlock>
    4142:	bd70      	pop	{r4, r5, r6, pc}
    4144:	42a3      	cmp	r3, r4
    4146:	d908      	bls.n	415a <_free_r+0x42>
    4148:	6821      	ldr	r1, [r4, #0]
    414a:	1860      	adds	r0, r4, r1
    414c:	4283      	cmp	r3, r0
    414e:	d1f3      	bne.n	4138 <_free_r+0x20>
    4150:	6818      	ldr	r0, [r3, #0]
    4152:	685b      	ldr	r3, [r3, #4]
    4154:	1841      	adds	r1, r0, r1
    4156:	6021      	str	r1, [r4, #0]
    4158:	e7ee      	b.n	4138 <_free_r+0x20>
    415a:	001a      	movs	r2, r3
    415c:	685b      	ldr	r3, [r3, #4]
    415e:	2b00      	cmp	r3, #0
    4160:	d001      	beq.n	4166 <_free_r+0x4e>
    4162:	42a3      	cmp	r3, r4
    4164:	d9f9      	bls.n	415a <_free_r+0x42>
    4166:	6811      	ldr	r1, [r2, #0]
    4168:	1850      	adds	r0, r2, r1
    416a:	42a0      	cmp	r0, r4
    416c:	d10b      	bne.n	4186 <_free_r+0x6e>
    416e:	6820      	ldr	r0, [r4, #0]
    4170:	1809      	adds	r1, r1, r0
    4172:	1850      	adds	r0, r2, r1
    4174:	6011      	str	r1, [r2, #0]
    4176:	4283      	cmp	r3, r0
    4178:	d1e0      	bne.n	413c <_free_r+0x24>
    417a:	6818      	ldr	r0, [r3, #0]
    417c:	685b      	ldr	r3, [r3, #4]
    417e:	1841      	adds	r1, r0, r1
    4180:	6011      	str	r1, [r2, #0]
    4182:	6053      	str	r3, [r2, #4]
    4184:	e7da      	b.n	413c <_free_r+0x24>
    4186:	42a0      	cmp	r0, r4
    4188:	d902      	bls.n	4190 <_free_r+0x78>
    418a:	230c      	movs	r3, #12
    418c:	602b      	str	r3, [r5, #0]
    418e:	e7d5      	b.n	413c <_free_r+0x24>
    4190:	6821      	ldr	r1, [r4, #0]
    4192:	1860      	adds	r0, r4, r1
    4194:	4283      	cmp	r3, r0
    4196:	d103      	bne.n	41a0 <_free_r+0x88>
    4198:	6818      	ldr	r0, [r3, #0]
    419a:	685b      	ldr	r3, [r3, #4]
    419c:	1841      	adds	r1, r0, r1
    419e:	6021      	str	r1, [r4, #0]
    41a0:	6063      	str	r3, [r4, #4]
    41a2:	6054      	str	r4, [r2, #4]
    41a4:	e7ca      	b.n	413c <_free_r+0x24>
    41a6:	46c0      	nop			; (mov r8, r8)
    41a8:	2000036c 	.word	0x2000036c

000041ac <sbrk_aligned>:
sbrk_aligned():
    41ac:	b570      	push	{r4, r5, r6, lr}
    41ae:	4e0f      	ldr	r6, [pc, #60]	; (41ec <sbrk_aligned+0x40>)
    41b0:	000d      	movs	r5, r1
    41b2:	6831      	ldr	r1, [r6, #0]
    41b4:	0004      	movs	r4, r0
    41b6:	2900      	cmp	r1, #0
    41b8:	d102      	bne.n	41c0 <sbrk_aligned+0x14>
    41ba:	f000 f8a9 	bl	4310 <_sbrk_r>
    41be:	6030      	str	r0, [r6, #0]
    41c0:	0029      	movs	r1, r5
    41c2:	0020      	movs	r0, r4
    41c4:	f000 f8a4 	bl	4310 <_sbrk_r>
    41c8:	1c43      	adds	r3, r0, #1
    41ca:	d00a      	beq.n	41e2 <sbrk_aligned+0x36>
    41cc:	2303      	movs	r3, #3
    41ce:	1cc5      	adds	r5, r0, #3
    41d0:	439d      	bics	r5, r3
    41d2:	42a8      	cmp	r0, r5
    41d4:	d007      	beq.n	41e6 <sbrk_aligned+0x3a>
    41d6:	1a29      	subs	r1, r5, r0
    41d8:	0020      	movs	r0, r4
    41da:	f000 f899 	bl	4310 <_sbrk_r>
    41de:	1c43      	adds	r3, r0, #1
    41e0:	d101      	bne.n	41e6 <sbrk_aligned+0x3a>
    41e2:	2501      	movs	r5, #1
    41e4:	426d      	negs	r5, r5
    41e6:	0028      	movs	r0, r5
    41e8:	bd70      	pop	{r4, r5, r6, pc}
    41ea:	46c0      	nop			; (mov r8, r8)
    41ec:	20000370 	.word	0x20000370

000041f0 <_malloc_r>:
_malloc_r():
    41f0:	b5f7      	push	{r0, r1, r2, r4, r5, r6, r7, lr}
    41f2:	2203      	movs	r2, #3
    41f4:	1ccb      	adds	r3, r1, #3
    41f6:	4393      	bics	r3, r2
    41f8:	3308      	adds	r3, #8
    41fa:	0006      	movs	r6, r0
    41fc:	001f      	movs	r7, r3
    41fe:	2b0c      	cmp	r3, #12
    4200:	d232      	bcs.n	4268 <_malloc_r+0x78>
    4202:	270c      	movs	r7, #12
    4204:	42b9      	cmp	r1, r7
    4206:	d831      	bhi.n	426c <_malloc_r+0x7c>
    4208:	0030      	movs	r0, r6
    420a:	f000 fbbf 	bl	498c <__malloc_lock>
    420e:	4d32      	ldr	r5, [pc, #200]	; (42d8 <_malloc_r+0xe8>)
    4210:	682b      	ldr	r3, [r5, #0]
    4212:	001c      	movs	r4, r3
    4214:	2c00      	cmp	r4, #0
    4216:	d12e      	bne.n	4276 <_malloc_r+0x86>
    4218:	0039      	movs	r1, r7
    421a:	0030      	movs	r0, r6
    421c:	f7ff ffc6 	bl	41ac <sbrk_aligned>
    4220:	0004      	movs	r4, r0
    4222:	1c43      	adds	r3, r0, #1
    4224:	d11e      	bne.n	4264 <_malloc_r+0x74>
    4226:	682c      	ldr	r4, [r5, #0]
    4228:	0025      	movs	r5, r4
    422a:	2d00      	cmp	r5, #0
    422c:	d14a      	bne.n	42c4 <_malloc_r+0xd4>
    422e:	6823      	ldr	r3, [r4, #0]
    4230:	0029      	movs	r1, r5
    4232:	18e3      	adds	r3, r4, r3
    4234:	0030      	movs	r0, r6
    4236:	9301      	str	r3, [sp, #4]
    4238:	f000 f86a 	bl	4310 <_sbrk_r>
    423c:	9b01      	ldr	r3, [sp, #4]
    423e:	4283      	cmp	r3, r0
    4240:	d143      	bne.n	42ca <_malloc_r+0xda>
    4242:	6823      	ldr	r3, [r4, #0]
    4244:	3703      	adds	r7, #3
    4246:	1aff      	subs	r7, r7, r3
    4248:	2303      	movs	r3, #3
    424a:	439f      	bics	r7, r3
    424c:	3708      	adds	r7, #8
    424e:	2f0c      	cmp	r7, #12
    4250:	d200      	bcs.n	4254 <_malloc_r+0x64>
    4252:	270c      	movs	r7, #12
    4254:	0039      	movs	r1, r7
    4256:	0030      	movs	r0, r6
    4258:	f7ff ffa8 	bl	41ac <sbrk_aligned>
    425c:	1c43      	adds	r3, r0, #1
    425e:	d034      	beq.n	42ca <_malloc_r+0xda>
    4260:	6823      	ldr	r3, [r4, #0]
    4262:	19df      	adds	r7, r3, r7
    4264:	6027      	str	r7, [r4, #0]
    4266:	e013      	b.n	4290 <_malloc_r+0xa0>
    4268:	2b00      	cmp	r3, #0
    426a:	dacb      	bge.n	4204 <_malloc_r+0x14>
    426c:	230c      	movs	r3, #12
    426e:	2500      	movs	r5, #0
    4270:	6033      	str	r3, [r6, #0]
    4272:	0028      	movs	r0, r5
    4274:	bdfe      	pop	{r1, r2, r3, r4, r5, r6, r7, pc}
    4276:	6822      	ldr	r2, [r4, #0]
    4278:	1bd1      	subs	r1, r2, r7
    427a:	d420      	bmi.n	42be <_malloc_r+0xce>
    427c:	290b      	cmp	r1, #11
    427e:	d917      	bls.n	42b0 <_malloc_r+0xc0>
    4280:	19e2      	adds	r2, r4, r7
    4282:	6027      	str	r7, [r4, #0]
    4284:	42a3      	cmp	r3, r4
    4286:	d111      	bne.n	42ac <_malloc_r+0xbc>
    4288:	602a      	str	r2, [r5, #0]
    428a:	6863      	ldr	r3, [r4, #4]
    428c:	6011      	str	r1, [r2, #0]
    428e:	6053      	str	r3, [r2, #4]
    4290:	0030      	movs	r0, r6
    4292:	0025      	movs	r5, r4
    4294:	f000 fb82 	bl	499c <__malloc_unlock>
    4298:	2207      	movs	r2, #7
    429a:	350b      	adds	r5, #11
    429c:	1d23      	adds	r3, r4, #4
    429e:	4395      	bics	r5, r2
    42a0:	1aea      	subs	r2, r5, r3
    42a2:	429d      	cmp	r5, r3
    42a4:	d0e5      	beq.n	4272 <_malloc_r+0x82>
    42a6:	1b5b      	subs	r3, r3, r5
    42a8:	50a3      	str	r3, [r4, r2]
    42aa:	e7e2      	b.n	4272 <_malloc_r+0x82>
    42ac:	605a      	str	r2, [r3, #4]
    42ae:	e7ec      	b.n	428a <_malloc_r+0x9a>
    42b0:	6862      	ldr	r2, [r4, #4]
    42b2:	42a3      	cmp	r3, r4
    42b4:	d101      	bne.n	42ba <_malloc_r+0xca>
    42b6:	602a      	str	r2, [r5, #0]
    42b8:	e7ea      	b.n	4290 <_malloc_r+0xa0>
    42ba:	605a      	str	r2, [r3, #4]
    42bc:	e7e8      	b.n	4290 <_malloc_r+0xa0>
    42be:	0023      	movs	r3, r4
    42c0:	6864      	ldr	r4, [r4, #4]
    42c2:	e7a7      	b.n	4214 <_malloc_r+0x24>
    42c4:	002c      	movs	r4, r5
    42c6:	686d      	ldr	r5, [r5, #4]
    42c8:	e7af      	b.n	422a <_malloc_r+0x3a>
    42ca:	230c      	movs	r3, #12
    42cc:	0030      	movs	r0, r6
    42ce:	6033      	str	r3, [r6, #0]
    42d0:	f000 fb64 	bl	499c <__malloc_unlock>
    42d4:	e7cd      	b.n	4272 <_malloc_r+0x82>
    42d6:	46c0      	nop			; (mov r8, r8)
    42d8:	2000036c 	.word	0x2000036c

000042dc <iprintf>:
printf():
    42dc:	b40f      	push	{r0, r1, r2, r3}
    42de:	4b0b      	ldr	r3, [pc, #44]	; (430c <iprintf+0x30>)
    42e0:	b513      	push	{r0, r1, r4, lr}
    42e2:	681c      	ldr	r4, [r3, #0]
    42e4:	2c00      	cmp	r4, #0
    42e6:	d005      	beq.n	42f4 <iprintf+0x18>
    42e8:	69a3      	ldr	r3, [r4, #24]
    42ea:	2b00      	cmp	r3, #0
    42ec:	d102      	bne.n	42f4 <iprintf+0x18>
    42ee:	0020      	movs	r0, r4
    42f0:	f000 fa3c 	bl	476c <__sinit>
    42f4:	ab05      	add	r3, sp, #20
    42f6:	0020      	movs	r0, r4
    42f8:	9a04      	ldr	r2, [sp, #16]
    42fa:	68a1      	ldr	r1, [r4, #8]
    42fc:	9301      	str	r3, [sp, #4]
    42fe:	f000 fe61 	bl	4fc4 <_vfiprintf_r>
    4302:	bc16      	pop	{r1, r2, r4}
    4304:	bc08      	pop	{r3}
    4306:	b004      	add	sp, #16
    4308:	4718      	bx	r3
    430a:	46c0      	nop			; (mov r8, r8)
    430c:	20000000 	.word	0x20000000

00004310 <_sbrk_r>:
_sbrk_r():
    4310:	2300      	movs	r3, #0
    4312:	b570      	push	{r4, r5, r6, lr}
    4314:	4d06      	ldr	r5, [pc, #24]	; (4330 <_sbrk_r+0x20>)
    4316:	0004      	movs	r4, r0
    4318:	0008      	movs	r0, r1
    431a:	602b      	str	r3, [r5, #0]
    431c:	f001 f8b4 	bl	5488 <_sbrk>
    4320:	1c43      	adds	r3, r0, #1
    4322:	d103      	bne.n	432c <_sbrk_r+0x1c>
    4324:	682b      	ldr	r3, [r5, #0]
    4326:	2b00      	cmp	r3, #0
    4328:	d000      	beq.n	432c <_sbrk_r+0x1c>
    432a:	6023      	str	r3, [r4, #0]
    432c:	bd70      	pop	{r4, r5, r6, pc}
    432e:	46c0      	nop			; (mov r8, r8)
    4330:	20000378 	.word	0x20000378

00004334 <siprintf>:
sprintf():
    4334:	b40e      	push	{r1, r2, r3}
    4336:	b500      	push	{lr}
    4338:	490b      	ldr	r1, [pc, #44]	; (4368 <siprintf+0x34>)
    433a:	b09c      	sub	sp, #112	; 0x70
    433c:	ab1d      	add	r3, sp, #116	; 0x74
    433e:	9002      	str	r0, [sp, #8]
    4340:	9006      	str	r0, [sp, #24]
    4342:	9107      	str	r1, [sp, #28]
    4344:	9104      	str	r1, [sp, #16]
    4346:	4809      	ldr	r0, [pc, #36]	; (436c <siprintf+0x38>)
    4348:	4909      	ldr	r1, [pc, #36]	; (4370 <siprintf+0x3c>)
    434a:	cb04      	ldmia	r3!, {r2}
    434c:	9105      	str	r1, [sp, #20]
    434e:	6800      	ldr	r0, [r0, #0]
    4350:	a902      	add	r1, sp, #8
    4352:	9301      	str	r3, [sp, #4]
    4354:	f000 fb8c 	bl	4a70 <_svfiprintf_r>
    4358:	2300      	movs	r3, #0
    435a:	9a02      	ldr	r2, [sp, #8]
    435c:	7013      	strb	r3, [r2, #0]
    435e:	b01c      	add	sp, #112	; 0x70
    4360:	bc08      	pop	{r3}
    4362:	b003      	add	sp, #12
    4364:	4718      	bx	r3
    4366:	46c0      	nop			; (mov r8, r8)
    4368:	7fffffff 	.word	0x7fffffff
    436c:	20000000 	.word	0x20000000
    4370:	ffff0208 	.word	0xffff0208

00004374 <__swbuf_r>:
__swbuf_r():
    4374:	b5f8      	push	{r3, r4, r5, r6, r7, lr}
    4376:	0005      	movs	r5, r0
    4378:	000e      	movs	r6, r1
    437a:	0014      	movs	r4, r2
    437c:	2800      	cmp	r0, #0
    437e:	d004      	beq.n	438a <__swbuf_r+0x16>
    4380:	6983      	ldr	r3, [r0, #24]
    4382:	2b00      	cmp	r3, #0
    4384:	d101      	bne.n	438a <__swbuf_r+0x16>
    4386:	f000 f9f1 	bl	476c <__sinit>
    438a:	4b22      	ldr	r3, [pc, #136]	; (4414 <__swbuf_r+0xa0>)
    438c:	429c      	cmp	r4, r3
    438e:	d12e      	bne.n	43ee <__swbuf_r+0x7a>
    4390:	686c      	ldr	r4, [r5, #4]
    4392:	69a3      	ldr	r3, [r4, #24]
    4394:	60a3      	str	r3, [r4, #8]
    4396:	89a3      	ldrh	r3, [r4, #12]
    4398:	071b      	lsls	r3, r3, #28
    439a:	d532      	bpl.n	4402 <__swbuf_r+0x8e>
    439c:	6923      	ldr	r3, [r4, #16]
    439e:	2b00      	cmp	r3, #0
    43a0:	d02f      	beq.n	4402 <__swbuf_r+0x8e>
    43a2:	6823      	ldr	r3, [r4, #0]
    43a4:	6922      	ldr	r2, [r4, #16]
    43a6:	b2f7      	uxtb	r7, r6
    43a8:	1a98      	subs	r0, r3, r2
    43aa:	6963      	ldr	r3, [r4, #20]
    43ac:	b2f6      	uxtb	r6, r6
    43ae:	4283      	cmp	r3, r0
    43b0:	dc05      	bgt.n	43be <__swbuf_r+0x4a>
    43b2:	0021      	movs	r1, r4
    43b4:	0028      	movs	r0, r5
    43b6:	f000 f937 	bl	4628 <_fflush_r>
    43ba:	2800      	cmp	r0, #0
    43bc:	d127      	bne.n	440e <__swbuf_r+0x9a>
    43be:	68a3      	ldr	r3, [r4, #8]
    43c0:	3001      	adds	r0, #1
    43c2:	3b01      	subs	r3, #1
    43c4:	60a3      	str	r3, [r4, #8]
    43c6:	6823      	ldr	r3, [r4, #0]
    43c8:	1c5a      	adds	r2, r3, #1
    43ca:	6022      	str	r2, [r4, #0]
    43cc:	701f      	strb	r7, [r3, #0]
    43ce:	6963      	ldr	r3, [r4, #20]
    43d0:	4283      	cmp	r3, r0
    43d2:	d004      	beq.n	43de <__swbuf_r+0x6a>
    43d4:	89a3      	ldrh	r3, [r4, #12]
    43d6:	07db      	lsls	r3, r3, #31
    43d8:	d507      	bpl.n	43ea <__swbuf_r+0x76>
    43da:	2e0a      	cmp	r6, #10
    43dc:	d105      	bne.n	43ea <__swbuf_r+0x76>
    43de:	0021      	movs	r1, r4
    43e0:	0028      	movs	r0, r5
    43e2:	f000 f921 	bl	4628 <_fflush_r>
    43e6:	2800      	cmp	r0, #0
    43e8:	d111      	bne.n	440e <__swbuf_r+0x9a>
    43ea:	0030      	movs	r0, r6
    43ec:	bdf8      	pop	{r3, r4, r5, r6, r7, pc}
    43ee:	4b0a      	ldr	r3, [pc, #40]	; (4418 <__swbuf_r+0xa4>)
    43f0:	429c      	cmp	r4, r3
    43f2:	d101      	bne.n	43f8 <__swbuf_r+0x84>
    43f4:	68ac      	ldr	r4, [r5, #8]
    43f6:	e7cc      	b.n	4392 <__swbuf_r+0x1e>
    43f8:	4b08      	ldr	r3, [pc, #32]	; (441c <__swbuf_r+0xa8>)
    43fa:	429c      	cmp	r4, r3
    43fc:	d1c9      	bne.n	4392 <__swbuf_r+0x1e>
    43fe:	68ec      	ldr	r4, [r5, #12]
    4400:	e7c7      	b.n	4392 <__swbuf_r+0x1e>
    4402:	0021      	movs	r1, r4
    4404:	0028      	movs	r0, r5
    4406:	f000 f80b 	bl	4420 <__swsetup_r>
    440a:	2800      	cmp	r0, #0
    440c:	d0c9      	beq.n	43a2 <__swbuf_r+0x2e>
    440e:	2601      	movs	r6, #1
    4410:	4276      	negs	r6, r6
    4412:	e7ea      	b.n	43ea <__swbuf_r+0x76>
    4414:	000064e8 	.word	0x000064e8
    4418:	00006508 	.word	0x00006508
    441c:	000064c8 	.word	0x000064c8

00004420 <__swsetup_r>:
__swsetup_r():
    4420:	4b37      	ldr	r3, [pc, #220]	; (4500 <__swsetup_r+0xe0>)
    4422:	b570      	push	{r4, r5, r6, lr}
    4424:	681d      	ldr	r5, [r3, #0]
    4426:	0006      	movs	r6, r0
    4428:	000c      	movs	r4, r1
    442a:	2d00      	cmp	r5, #0
    442c:	d005      	beq.n	443a <__swsetup_r+0x1a>
    442e:	69ab      	ldr	r3, [r5, #24]
    4430:	2b00      	cmp	r3, #0
    4432:	d102      	bne.n	443a <__swsetup_r+0x1a>
    4434:	0028      	movs	r0, r5
    4436:	f000 f999 	bl	476c <__sinit>
    443a:	4b32      	ldr	r3, [pc, #200]	; (4504 <__swsetup_r+0xe4>)
    443c:	429c      	cmp	r4, r3
    443e:	d10f      	bne.n	4460 <__swsetup_r+0x40>
    4440:	686c      	ldr	r4, [r5, #4]
    4442:	230c      	movs	r3, #12
    4444:	5ee2      	ldrsh	r2, [r4, r3]
    4446:	b293      	uxth	r3, r2
    4448:	0711      	lsls	r1, r2, #28
    444a:	d42d      	bmi.n	44a8 <__swsetup_r+0x88>
    444c:	06d9      	lsls	r1, r3, #27
    444e:	d411      	bmi.n	4474 <__swsetup_r+0x54>
    4450:	2309      	movs	r3, #9
    4452:	2001      	movs	r0, #1
    4454:	6033      	str	r3, [r6, #0]
    4456:	3337      	adds	r3, #55	; 0x37
    4458:	4313      	orrs	r3, r2
    445a:	81a3      	strh	r3, [r4, #12]
    445c:	4240      	negs	r0, r0
    445e:	bd70      	pop	{r4, r5, r6, pc}
    4460:	4b29      	ldr	r3, [pc, #164]	; (4508 <__swsetup_r+0xe8>)
    4462:	429c      	cmp	r4, r3
    4464:	d101      	bne.n	446a <__swsetup_r+0x4a>
    4466:	68ac      	ldr	r4, [r5, #8]
    4468:	e7eb      	b.n	4442 <__swsetup_r+0x22>
    446a:	4b28      	ldr	r3, [pc, #160]	; (450c <__swsetup_r+0xec>)
    446c:	429c      	cmp	r4, r3
    446e:	d1e8      	bne.n	4442 <__swsetup_r+0x22>
    4470:	68ec      	ldr	r4, [r5, #12]
    4472:	e7e6      	b.n	4442 <__swsetup_r+0x22>
    4474:	075b      	lsls	r3, r3, #29
    4476:	d513      	bpl.n	44a0 <__swsetup_r+0x80>
    4478:	6b61      	ldr	r1, [r4, #52]	; 0x34
    447a:	2900      	cmp	r1, #0
    447c:	d008      	beq.n	4490 <__swsetup_r+0x70>
    447e:	0023      	movs	r3, r4
    4480:	3344      	adds	r3, #68	; 0x44
    4482:	4299      	cmp	r1, r3
    4484:	d002      	beq.n	448c <__swsetup_r+0x6c>
    4486:	0030      	movs	r0, r6
    4488:	f7ff fe46 	bl	4118 <_free_r>
    448c:	2300      	movs	r3, #0
    448e:	6363      	str	r3, [r4, #52]	; 0x34
    4490:	2224      	movs	r2, #36	; 0x24
    4492:	89a3      	ldrh	r3, [r4, #12]
    4494:	4393      	bics	r3, r2
    4496:	81a3      	strh	r3, [r4, #12]
    4498:	2300      	movs	r3, #0
    449a:	6063      	str	r3, [r4, #4]
    449c:	6923      	ldr	r3, [r4, #16]
    449e:	6023      	str	r3, [r4, #0]
    44a0:	2308      	movs	r3, #8
    44a2:	89a2      	ldrh	r2, [r4, #12]
    44a4:	4313      	orrs	r3, r2
    44a6:	81a3      	strh	r3, [r4, #12]
    44a8:	6923      	ldr	r3, [r4, #16]
    44aa:	2b00      	cmp	r3, #0
    44ac:	d10b      	bne.n	44c6 <__swsetup_r+0xa6>
    44ae:	21a0      	movs	r1, #160	; 0xa0
    44b0:	2280      	movs	r2, #128	; 0x80
    44b2:	89a3      	ldrh	r3, [r4, #12]
    44b4:	0089      	lsls	r1, r1, #2
    44b6:	0092      	lsls	r2, r2, #2
    44b8:	400b      	ands	r3, r1
    44ba:	4293      	cmp	r3, r2
    44bc:	d003      	beq.n	44c6 <__swsetup_r+0xa6>
    44be:	0021      	movs	r1, r4
    44c0:	0030      	movs	r0, r6
    44c2:	f000 fa1f 	bl	4904 <__smakebuf_r>
    44c6:	220c      	movs	r2, #12
    44c8:	5ea3      	ldrsh	r3, [r4, r2]
    44ca:	2001      	movs	r0, #1
    44cc:	001a      	movs	r2, r3
    44ce:	b299      	uxth	r1, r3
    44d0:	4002      	ands	r2, r0
    44d2:	4203      	tst	r3, r0
    44d4:	d00f      	beq.n	44f6 <__swsetup_r+0xd6>
    44d6:	2200      	movs	r2, #0
    44d8:	60a2      	str	r2, [r4, #8]
    44da:	6962      	ldr	r2, [r4, #20]
    44dc:	4252      	negs	r2, r2
    44de:	61a2      	str	r2, [r4, #24]
    44e0:	2000      	movs	r0, #0
    44e2:	6922      	ldr	r2, [r4, #16]
    44e4:	4282      	cmp	r2, r0
    44e6:	d1ba      	bne.n	445e <__swsetup_r+0x3e>
    44e8:	060a      	lsls	r2, r1, #24
    44ea:	d5b8      	bpl.n	445e <__swsetup_r+0x3e>
    44ec:	2240      	movs	r2, #64	; 0x40
    44ee:	4313      	orrs	r3, r2
    44f0:	81a3      	strh	r3, [r4, #12]
    44f2:	3801      	subs	r0, #1
    44f4:	e7b3      	b.n	445e <__swsetup_r+0x3e>
    44f6:	0788      	lsls	r0, r1, #30
    44f8:	d400      	bmi.n	44fc <__swsetup_r+0xdc>
    44fa:	6962      	ldr	r2, [r4, #20]
    44fc:	60a2      	str	r2, [r4, #8]
    44fe:	e7ef      	b.n	44e0 <__swsetup_r+0xc0>
    4500:	20000000 	.word	0x20000000
    4504:	000064e8 	.word	0x000064e8
    4508:	00006508 	.word	0x00006508
    450c:	000064c8 	.word	0x000064c8

00004510 <__sflush_r>:
__sflush_r():
    4510:	b5f7      	push	{r0, r1, r2, r4, r5, r6, r7, lr}
    4512:	898b      	ldrh	r3, [r1, #12]
    4514:	0005      	movs	r5, r0
    4516:	000c      	movs	r4, r1
    4518:	071a      	lsls	r2, r3, #28
    451a:	d45f      	bmi.n	45dc <__sflush_r+0xcc>
    451c:	684a      	ldr	r2, [r1, #4]
    451e:	2a00      	cmp	r2, #0
    4520:	dc04      	bgt.n	452c <__sflush_r+0x1c>
    4522:	6c0a      	ldr	r2, [r1, #64]	; 0x40
    4524:	2a00      	cmp	r2, #0
    4526:	dc01      	bgt.n	452c <__sflush_r+0x1c>
    4528:	2000      	movs	r0, #0
    452a:	bdfe      	pop	{r1, r2, r3, r4, r5, r6, r7, pc}
    452c:	6ae7      	ldr	r7, [r4, #44]	; 0x2c
    452e:	2f00      	cmp	r7, #0
    4530:	d0fa      	beq.n	4528 <__sflush_r+0x18>
    4532:	2200      	movs	r2, #0
    4534:	2180      	movs	r1, #128	; 0x80
    4536:	682e      	ldr	r6, [r5, #0]
    4538:	602a      	str	r2, [r5, #0]
    453a:	001a      	movs	r2, r3
    453c:	0149      	lsls	r1, r1, #5
    453e:	400a      	ands	r2, r1
    4540:	420b      	tst	r3, r1
    4542:	d034      	beq.n	45ae <__sflush_r+0x9e>
    4544:	6d60      	ldr	r0, [r4, #84]	; 0x54
    4546:	89a3      	ldrh	r3, [r4, #12]
    4548:	075b      	lsls	r3, r3, #29
    454a:	d506      	bpl.n	455a <__sflush_r+0x4a>
    454c:	6863      	ldr	r3, [r4, #4]
    454e:	1ac0      	subs	r0, r0, r3
    4550:	6b63      	ldr	r3, [r4, #52]	; 0x34
    4552:	2b00      	cmp	r3, #0
    4554:	d001      	beq.n	455a <__sflush_r+0x4a>
    4556:	6c23      	ldr	r3, [r4, #64]	; 0x40
    4558:	1ac0      	subs	r0, r0, r3
    455a:	0002      	movs	r2, r0
    455c:	6a21      	ldr	r1, [r4, #32]
    455e:	2300      	movs	r3, #0
    4560:	0028      	movs	r0, r5
    4562:	6ae7      	ldr	r7, [r4, #44]	; 0x2c
    4564:	47b8      	blx	r7
    4566:	89a1      	ldrh	r1, [r4, #12]
    4568:	1c43      	adds	r3, r0, #1
    456a:	d106      	bne.n	457a <__sflush_r+0x6a>
    456c:	682b      	ldr	r3, [r5, #0]
    456e:	2b1d      	cmp	r3, #29
    4570:	d831      	bhi.n	45d6 <__sflush_r+0xc6>
    4572:	4a2c      	ldr	r2, [pc, #176]	; (4624 <__sflush_r+0x114>)
    4574:	40da      	lsrs	r2, r3
    4576:	07d3      	lsls	r3, r2, #31
    4578:	d52d      	bpl.n	45d6 <__sflush_r+0xc6>
    457a:	2300      	movs	r3, #0
    457c:	6063      	str	r3, [r4, #4]
    457e:	6923      	ldr	r3, [r4, #16]
    4580:	6023      	str	r3, [r4, #0]
    4582:	04cb      	lsls	r3, r1, #19
    4584:	d505      	bpl.n	4592 <__sflush_r+0x82>
    4586:	1c43      	adds	r3, r0, #1
    4588:	d102      	bne.n	4590 <__sflush_r+0x80>
    458a:	682b      	ldr	r3, [r5, #0]
    458c:	2b00      	cmp	r3, #0
    458e:	d100      	bne.n	4592 <__sflush_r+0x82>
    4590:	6560      	str	r0, [r4, #84]	; 0x54
    4592:	6b61      	ldr	r1, [r4, #52]	; 0x34
    4594:	602e      	str	r6, [r5, #0]
    4596:	2900      	cmp	r1, #0
    4598:	d0c6      	beq.n	4528 <__sflush_r+0x18>
    459a:	0023      	movs	r3, r4
    459c:	3344      	adds	r3, #68	; 0x44
    459e:	4299      	cmp	r1, r3
    45a0:	d002      	beq.n	45a8 <__sflush_r+0x98>
    45a2:	0028      	movs	r0, r5
    45a4:	f7ff fdb8 	bl	4118 <_free_r>
    45a8:	2000      	movs	r0, #0
    45aa:	6360      	str	r0, [r4, #52]	; 0x34
    45ac:	e7bd      	b.n	452a <__sflush_r+0x1a>
    45ae:	2301      	movs	r3, #1
    45b0:	0028      	movs	r0, r5
    45b2:	6a21      	ldr	r1, [r4, #32]
    45b4:	47b8      	blx	r7
    45b6:	1c43      	adds	r3, r0, #1
    45b8:	d1c5      	bne.n	4546 <__sflush_r+0x36>
    45ba:	682b      	ldr	r3, [r5, #0]
    45bc:	2b00      	cmp	r3, #0
    45be:	d0c2      	beq.n	4546 <__sflush_r+0x36>
    45c0:	2b1d      	cmp	r3, #29
    45c2:	d001      	beq.n	45c8 <__sflush_r+0xb8>
    45c4:	2b16      	cmp	r3, #22
    45c6:	d101      	bne.n	45cc <__sflush_r+0xbc>
    45c8:	602e      	str	r6, [r5, #0]
    45ca:	e7ad      	b.n	4528 <__sflush_r+0x18>
    45cc:	2340      	movs	r3, #64	; 0x40
    45ce:	89a2      	ldrh	r2, [r4, #12]
    45d0:	4313      	orrs	r3, r2
    45d2:	81a3      	strh	r3, [r4, #12]
    45d4:	e7a9      	b.n	452a <__sflush_r+0x1a>
    45d6:	2340      	movs	r3, #64	; 0x40
    45d8:	430b      	orrs	r3, r1
    45da:	e7fa      	b.n	45d2 <__sflush_r+0xc2>
    45dc:	690f      	ldr	r7, [r1, #16]
    45de:	2f00      	cmp	r7, #0
    45e0:	d0a2      	beq.n	4528 <__sflush_r+0x18>
    45e2:	680a      	ldr	r2, [r1, #0]
    45e4:	600f      	str	r7, [r1, #0]
    45e6:	1bd2      	subs	r2, r2, r7
    45e8:	9201      	str	r2, [sp, #4]
    45ea:	2200      	movs	r2, #0
    45ec:	079b      	lsls	r3, r3, #30
    45ee:	d100      	bne.n	45f2 <__sflush_r+0xe2>
    45f0:	694a      	ldr	r2, [r1, #20]
    45f2:	60a2      	str	r2, [r4, #8]
    45f4:	9b01      	ldr	r3, [sp, #4]
    45f6:	2b00      	cmp	r3, #0
    45f8:	dc00      	bgt.n	45fc <__sflush_r+0xec>
    45fa:	e795      	b.n	4528 <__sflush_r+0x18>
    45fc:	003a      	movs	r2, r7
    45fe:	0028      	movs	r0, r5
    4600:	9b01      	ldr	r3, [sp, #4]
    4602:	6a21      	ldr	r1, [r4, #32]
    4604:	6aa6      	ldr	r6, [r4, #40]	; 0x28
    4606:	47b0      	blx	r6
    4608:	2800      	cmp	r0, #0
    460a:	dc06      	bgt.n	461a <__sflush_r+0x10a>
    460c:	2340      	movs	r3, #64	; 0x40
    460e:	2001      	movs	r0, #1
    4610:	89a2      	ldrh	r2, [r4, #12]
    4612:	4240      	negs	r0, r0
    4614:	4313      	orrs	r3, r2
    4616:	81a3      	strh	r3, [r4, #12]
    4618:	e787      	b.n	452a <__sflush_r+0x1a>
    461a:	9b01      	ldr	r3, [sp, #4]
    461c:	183f      	adds	r7, r7, r0
    461e:	1a1b      	subs	r3, r3, r0
    4620:	9301      	str	r3, [sp, #4]
    4622:	e7e7      	b.n	45f4 <__sflush_r+0xe4>
    4624:	20400001 	.word	0x20400001

00004628 <_fflush_r>:
_fflush_r():
    4628:	690b      	ldr	r3, [r1, #16]
    462a:	b570      	push	{r4, r5, r6, lr}
    462c:	0005      	movs	r5, r0
    462e:	000c      	movs	r4, r1
    4630:	2b00      	cmp	r3, #0
    4632:	d102      	bne.n	463a <_fflush_r+0x12>
    4634:	2500      	movs	r5, #0
    4636:	0028      	movs	r0, r5
    4638:	bd70      	pop	{r4, r5, r6, pc}
    463a:	2800      	cmp	r0, #0
    463c:	d004      	beq.n	4648 <_fflush_r+0x20>
    463e:	6983      	ldr	r3, [r0, #24]
    4640:	2b00      	cmp	r3, #0
    4642:	d101      	bne.n	4648 <_fflush_r+0x20>
    4644:	f000 f892 	bl	476c <__sinit>
    4648:	4b14      	ldr	r3, [pc, #80]	; (469c <_fflush_r+0x74>)
    464a:	429c      	cmp	r4, r3
    464c:	d11b      	bne.n	4686 <_fflush_r+0x5e>
    464e:	686c      	ldr	r4, [r5, #4]
    4650:	220c      	movs	r2, #12
    4652:	5ea3      	ldrsh	r3, [r4, r2]
    4654:	2b00      	cmp	r3, #0
    4656:	d0ed      	beq.n	4634 <_fflush_r+0xc>
    4658:	6e62      	ldr	r2, [r4, #100]	; 0x64
    465a:	07d2      	lsls	r2, r2, #31
    465c:	d404      	bmi.n	4668 <_fflush_r+0x40>
    465e:	059b      	lsls	r3, r3, #22
    4660:	d402      	bmi.n	4668 <_fflush_r+0x40>
    4662:	6da0      	ldr	r0, [r4, #88]	; 0x58
    4664:	f000 f923 	bl	48ae <__retarget_lock_acquire_recursive>
    4668:	0028      	movs	r0, r5
    466a:	0021      	movs	r1, r4
    466c:	f7ff ff50 	bl	4510 <__sflush_r>
    4670:	6e63      	ldr	r3, [r4, #100]	; 0x64
    4672:	0005      	movs	r5, r0
    4674:	07db      	lsls	r3, r3, #31
    4676:	d4de      	bmi.n	4636 <_fflush_r+0xe>
    4678:	89a3      	ldrh	r3, [r4, #12]
    467a:	059b      	lsls	r3, r3, #22
    467c:	d4db      	bmi.n	4636 <_fflush_r+0xe>
    467e:	6da0      	ldr	r0, [r4, #88]	; 0x58
    4680:	f000 f916 	bl	48b0 <__retarget_lock_release_recursive>
    4684:	e7d7      	b.n	4636 <_fflush_r+0xe>
    4686:	4b06      	ldr	r3, [pc, #24]	; (46a0 <_fflush_r+0x78>)
    4688:	429c      	cmp	r4, r3
    468a:	d101      	bne.n	4690 <_fflush_r+0x68>
    468c:	68ac      	ldr	r4, [r5, #8]
    468e:	e7df      	b.n	4650 <_fflush_r+0x28>
    4690:	4b04      	ldr	r3, [pc, #16]	; (46a4 <_fflush_r+0x7c>)
    4692:	429c      	cmp	r4, r3
    4694:	d1dc      	bne.n	4650 <_fflush_r+0x28>
    4696:	68ec      	ldr	r4, [r5, #12]
    4698:	e7da      	b.n	4650 <_fflush_r+0x28>
    469a:	46c0      	nop			; (mov r8, r8)
    469c:	000064e8 	.word	0x000064e8
    46a0:	00006508 	.word	0x00006508
    46a4:	000064c8 	.word	0x000064c8

000046a8 <std>:
std():
    46a8:	2300      	movs	r3, #0
    46aa:	b510      	push	{r4, lr}
    46ac:	0004      	movs	r4, r0
    46ae:	6003      	str	r3, [r0, #0]
    46b0:	6043      	str	r3, [r0, #4]
    46b2:	6083      	str	r3, [r0, #8]
    46b4:	8181      	strh	r1, [r0, #12]
    46b6:	6643      	str	r3, [r0, #100]	; 0x64
    46b8:	0019      	movs	r1, r3
    46ba:	81c2      	strh	r2, [r0, #14]
    46bc:	6103      	str	r3, [r0, #16]
    46be:	6143      	str	r3, [r0, #20]
    46c0:	6183      	str	r3, [r0, #24]
    46c2:	2208      	movs	r2, #8
    46c4:	305c      	adds	r0, #92	; 0x5c
    46c6:	f7fb fddd 	bl	284 <memset>
    46ca:	4b05      	ldr	r3, [pc, #20]	; (46e0 <std+0x38>)
    46cc:	6224      	str	r4, [r4, #32]
    46ce:	6263      	str	r3, [r4, #36]	; 0x24
    46d0:	4b04      	ldr	r3, [pc, #16]	; (46e4 <std+0x3c>)
    46d2:	62a3      	str	r3, [r4, #40]	; 0x28
    46d4:	4b04      	ldr	r3, [pc, #16]	; (46e8 <std+0x40>)
    46d6:	62e3      	str	r3, [r4, #44]	; 0x2c
    46d8:	4b04      	ldr	r3, [pc, #16]	; (46ec <std+0x44>)
    46da:	6323      	str	r3, [r4, #48]	; 0x30
    46dc:	bd10      	pop	{r4, pc}
    46de:	46c0      	nop			; (mov r8, r8)
    46e0:	00005239 	.word	0x00005239
    46e4:	00005261 	.word	0x00005261
    46e8:	00005299 	.word	0x00005299
    46ec:	000052c5 	.word	0x000052c5

000046f0 <_cleanup_r>:
_cleanup_r():
    46f0:	b510      	push	{r4, lr}
    46f2:	4902      	ldr	r1, [pc, #8]	; (46fc <_cleanup_r+0xc>)
    46f4:	f000 f8ba 	bl	486c <_fwalk_reent>
    46f8:	bd10      	pop	{r4, pc}
    46fa:	46c0      	nop			; (mov r8, r8)
    46fc:	00004629 	.word	0x00004629

00004700 <__sfmoreglue>:
__sfmoreglue():
    4700:	b570      	push	{r4, r5, r6, lr}
    4702:	2568      	movs	r5, #104	; 0x68
    4704:	1e4a      	subs	r2, r1, #1
    4706:	4355      	muls	r5, r2
    4708:	000e      	movs	r6, r1
    470a:	0029      	movs	r1, r5
    470c:	3174      	adds	r1, #116	; 0x74
    470e:	f7ff fd6f 	bl	41f0 <_malloc_r>
    4712:	1e04      	subs	r4, r0, #0
    4714:	d008      	beq.n	4728 <__sfmoreglue+0x28>
    4716:	2100      	movs	r1, #0
    4718:	002a      	movs	r2, r5
    471a:	6001      	str	r1, [r0, #0]
    471c:	6046      	str	r6, [r0, #4]
    471e:	300c      	adds	r0, #12
    4720:	60a0      	str	r0, [r4, #8]
    4722:	3268      	adds	r2, #104	; 0x68
    4724:	f7fb fdae 	bl	284 <memset>
    4728:	0020      	movs	r0, r4
    472a:	bd70      	pop	{r4, r5, r6, pc}

0000472c <__sfp_lock_acquire>:
__sfp_lock_acquire():
    472c:	b510      	push	{r4, lr}
    472e:	4802      	ldr	r0, [pc, #8]	; (4738 <__sfp_lock_acquire+0xc>)
    4730:	f000 f8bd 	bl	48ae <__retarget_lock_acquire_recursive>
    4734:	bd10      	pop	{r4, pc}
    4736:	46c0      	nop			; (mov r8, r8)
    4738:	20000375 	.word	0x20000375

0000473c <__sfp_lock_release>:
__sfp_lock_release():
    473c:	b510      	push	{r4, lr}
    473e:	4802      	ldr	r0, [pc, #8]	; (4748 <__sfp_lock_release+0xc>)
    4740:	f000 f8b6 	bl	48b0 <__retarget_lock_release_recursive>
    4744:	bd10      	pop	{r4, pc}
    4746:	46c0      	nop			; (mov r8, r8)
    4748:	20000375 	.word	0x20000375

0000474c <__sinit_lock_acquire>:
__sinit_lock_acquire():
    474c:	b510      	push	{r4, lr}
    474e:	4802      	ldr	r0, [pc, #8]	; (4758 <__sinit_lock_acquire+0xc>)
    4750:	f000 f8ad 	bl	48ae <__retarget_lock_acquire_recursive>
    4754:	bd10      	pop	{r4, pc}
    4756:	46c0      	nop			; (mov r8, r8)
    4758:	20000376 	.word	0x20000376

0000475c <__sinit_lock_release>:
__sinit_lock_release():
    475c:	b510      	push	{r4, lr}
    475e:	4802      	ldr	r0, [pc, #8]	; (4768 <__sinit_lock_release+0xc>)
    4760:	f000 f8a6 	bl	48b0 <__retarget_lock_release_recursive>
    4764:	bd10      	pop	{r4, pc}
    4766:	46c0      	nop			; (mov r8, r8)
    4768:	20000376 	.word	0x20000376

0000476c <__sinit>:
__sinit():
    476c:	b513      	push	{r0, r1, r4, lr}
    476e:	0004      	movs	r4, r0
    4770:	f7ff ffec 	bl	474c <__sinit_lock_acquire>
    4774:	69a3      	ldr	r3, [r4, #24]
    4776:	2b00      	cmp	r3, #0
    4778:	d002      	beq.n	4780 <__sinit+0x14>
    477a:	f7ff ffef 	bl	475c <__sinit_lock_release>
    477e:	bd13      	pop	{r0, r1, r4, pc}
    4780:	64a3      	str	r3, [r4, #72]	; 0x48
    4782:	64e3      	str	r3, [r4, #76]	; 0x4c
    4784:	6523      	str	r3, [r4, #80]	; 0x50
    4786:	4b13      	ldr	r3, [pc, #76]	; (47d4 <__sinit+0x68>)
    4788:	4a13      	ldr	r2, [pc, #76]	; (47d8 <__sinit+0x6c>)
    478a:	681b      	ldr	r3, [r3, #0]
    478c:	62a2      	str	r2, [r4, #40]	; 0x28
    478e:	9301      	str	r3, [sp, #4]
    4790:	42a3      	cmp	r3, r4
    4792:	d101      	bne.n	4798 <__sinit+0x2c>
    4794:	2301      	movs	r3, #1
    4796:	61a3      	str	r3, [r4, #24]
    4798:	0020      	movs	r0, r4
    479a:	f000 f81f 	bl	47dc <__sfp>
    479e:	6060      	str	r0, [r4, #4]
    47a0:	0020      	movs	r0, r4
    47a2:	f000 f81b 	bl	47dc <__sfp>
    47a6:	60a0      	str	r0, [r4, #8]
    47a8:	0020      	movs	r0, r4
    47aa:	f000 f817 	bl	47dc <__sfp>
    47ae:	2200      	movs	r2, #0
    47b0:	2104      	movs	r1, #4
    47b2:	60e0      	str	r0, [r4, #12]
    47b4:	6860      	ldr	r0, [r4, #4]
    47b6:	f7ff ff77 	bl	46a8 <std>
    47ba:	2201      	movs	r2, #1
    47bc:	2109      	movs	r1, #9
    47be:	68a0      	ldr	r0, [r4, #8]
    47c0:	f7ff ff72 	bl	46a8 <std>
    47c4:	2202      	movs	r2, #2
    47c6:	2112      	movs	r1, #18
    47c8:	68e0      	ldr	r0, [r4, #12]
    47ca:	f7ff ff6d 	bl	46a8 <std>
    47ce:	2301      	movs	r3, #1
    47d0:	61a3      	str	r3, [r4, #24]
    47d2:	e7d2      	b.n	477a <__sinit+0xe>
    47d4:	00005950 	.word	0x00005950
    47d8:	000046f1 	.word	0x000046f1

000047dc <__sfp>:
__sfp():
    47dc:	b5f8      	push	{r3, r4, r5, r6, r7, lr}
    47de:	0007      	movs	r7, r0
    47e0:	f7ff ffa4 	bl	472c <__sfp_lock_acquire>
    47e4:	4b1f      	ldr	r3, [pc, #124]	; (4864 <__sfp+0x88>)
    47e6:	681e      	ldr	r6, [r3, #0]
    47e8:	69b3      	ldr	r3, [r6, #24]
    47ea:	2b00      	cmp	r3, #0
    47ec:	d102      	bne.n	47f4 <__sfp+0x18>
    47ee:	0030      	movs	r0, r6
    47f0:	f7ff ffbc 	bl	476c <__sinit>
    47f4:	3648      	adds	r6, #72	; 0x48
    47f6:	68b4      	ldr	r4, [r6, #8]
    47f8:	6873      	ldr	r3, [r6, #4]
    47fa:	3b01      	subs	r3, #1
    47fc:	d504      	bpl.n	4808 <__sfp+0x2c>
    47fe:	6833      	ldr	r3, [r6, #0]
    4800:	2b00      	cmp	r3, #0
    4802:	d022      	beq.n	484a <__sfp+0x6e>
    4804:	6836      	ldr	r6, [r6, #0]
    4806:	e7f6      	b.n	47f6 <__sfp+0x1a>
    4808:	220c      	movs	r2, #12
    480a:	5ea5      	ldrsh	r5, [r4, r2]
    480c:	2d00      	cmp	r5, #0
    480e:	d11a      	bne.n	4846 <__sfp+0x6a>
    4810:	0020      	movs	r0, r4
    4812:	4b15      	ldr	r3, [pc, #84]	; (4868 <__sfp+0x8c>)
    4814:	3058      	adds	r0, #88	; 0x58
    4816:	60e3      	str	r3, [r4, #12]
    4818:	6665      	str	r5, [r4, #100]	; 0x64
    481a:	f000 f847 	bl	48ac <__retarget_lock_init_recursive>
    481e:	f7ff ff8d 	bl	473c <__sfp_lock_release>
    4822:	0020      	movs	r0, r4
    4824:	2208      	movs	r2, #8
    4826:	0029      	movs	r1, r5
    4828:	6025      	str	r5, [r4, #0]
    482a:	60a5      	str	r5, [r4, #8]
    482c:	6065      	str	r5, [r4, #4]
    482e:	6125      	str	r5, [r4, #16]
    4830:	6165      	str	r5, [r4, #20]
    4832:	61a5      	str	r5, [r4, #24]
    4834:	305c      	adds	r0, #92	; 0x5c
    4836:	f7fb fd25 	bl	284 <memset>
    483a:	6365      	str	r5, [r4, #52]	; 0x34
    483c:	63a5      	str	r5, [r4, #56]	; 0x38
    483e:	64a5      	str	r5, [r4, #72]	; 0x48
    4840:	64e5      	str	r5, [r4, #76]	; 0x4c
    4842:	0020      	movs	r0, r4
    4844:	bdf8      	pop	{r3, r4, r5, r6, r7, pc}
    4846:	3468      	adds	r4, #104	; 0x68
    4848:	e7d7      	b.n	47fa <__sfp+0x1e>
    484a:	2104      	movs	r1, #4
    484c:	0038      	movs	r0, r7
    484e:	f7ff ff57 	bl	4700 <__sfmoreglue>
    4852:	1e04      	subs	r4, r0, #0
    4854:	6030      	str	r0, [r6, #0]
    4856:	d1d5      	bne.n	4804 <__sfp+0x28>
    4858:	f7ff ff70 	bl	473c <__sfp_lock_release>
    485c:	230c      	movs	r3, #12
    485e:	603b      	str	r3, [r7, #0]
    4860:	e7ef      	b.n	4842 <__sfp+0x66>
    4862:	46c0      	nop			; (mov r8, r8)
    4864:	00005950 	.word	0x00005950
    4868:	ffff0001 	.word	0xffff0001

0000486c <_fwalk_reent>:
_fwalk_reent():
    486c:	b5f7      	push	{r0, r1, r2, r4, r5, r6, r7, lr}
    486e:	0004      	movs	r4, r0
    4870:	0006      	movs	r6, r0
    4872:	2700      	movs	r7, #0
    4874:	9101      	str	r1, [sp, #4]
    4876:	3448      	adds	r4, #72	; 0x48
    4878:	6863      	ldr	r3, [r4, #4]
    487a:	68a5      	ldr	r5, [r4, #8]
    487c:	9300      	str	r3, [sp, #0]
    487e:	9b00      	ldr	r3, [sp, #0]
    4880:	3b01      	subs	r3, #1
    4882:	9300      	str	r3, [sp, #0]
    4884:	d504      	bpl.n	4890 <_fwalk_reent+0x24>
    4886:	6824      	ldr	r4, [r4, #0]
    4888:	2c00      	cmp	r4, #0
    488a:	d1f5      	bne.n	4878 <_fwalk_reent+0xc>
    488c:	0038      	movs	r0, r7
    488e:	bdfe      	pop	{r1, r2, r3, r4, r5, r6, r7, pc}
    4890:	89ab      	ldrh	r3, [r5, #12]
    4892:	2b01      	cmp	r3, #1
    4894:	d908      	bls.n	48a8 <_fwalk_reent+0x3c>
    4896:	220e      	movs	r2, #14
    4898:	5eab      	ldrsh	r3, [r5, r2]
    489a:	3301      	adds	r3, #1
    489c:	d004      	beq.n	48a8 <_fwalk_reent+0x3c>
    489e:	0029      	movs	r1, r5
    48a0:	0030      	movs	r0, r6
    48a2:	9b01      	ldr	r3, [sp, #4]
    48a4:	4798      	blx	r3
    48a6:	4307      	orrs	r7, r0
    48a8:	3568      	adds	r5, #104	; 0x68
    48aa:	e7e8      	b.n	487e <_fwalk_reent+0x12>

000048ac <__retarget_lock_init_recursive>:
__retarget_lock_init_recursive():
    48ac:	4770      	bx	lr

000048ae <__retarget_lock_acquire_recursive>:
__retarget_lock_acquire_recursive():
    48ae:	4770      	bx	lr

000048b0 <__retarget_lock_release_recursive>:
__retarget_lock_release_recursive():
    48b0:	4770      	bx	lr
	...

000048b4 <__swhatbuf_r>:
__swhatbuf_r():
    48b4:	b570      	push	{r4, r5, r6, lr}
    48b6:	000e      	movs	r6, r1
    48b8:	001d      	movs	r5, r3
    48ba:	230e      	movs	r3, #14
    48bc:	5ec9      	ldrsh	r1, [r1, r3]
    48be:	0014      	movs	r4, r2
    48c0:	b096      	sub	sp, #88	; 0x58
    48c2:	2900      	cmp	r1, #0
    48c4:	da08      	bge.n	48d8 <__swhatbuf_r+0x24>
    48c6:	220c      	movs	r2, #12
    48c8:	5eb3      	ldrsh	r3, [r6, r2]
    48ca:	2200      	movs	r2, #0
    48cc:	602a      	str	r2, [r5, #0]
    48ce:	061b      	lsls	r3, r3, #24
    48d0:	d411      	bmi.n	48f6 <__swhatbuf_r+0x42>
    48d2:	2380      	movs	r3, #128	; 0x80
    48d4:	00db      	lsls	r3, r3, #3
    48d6:	e00f      	b.n	48f8 <__swhatbuf_r+0x44>
    48d8:	466a      	mov	r2, sp
    48da:	f000 fd1f 	bl	531c <_fstat_r>
    48de:	2800      	cmp	r0, #0
    48e0:	dbf1      	blt.n	48c6 <__swhatbuf_r+0x12>
    48e2:	23f0      	movs	r3, #240	; 0xf0
    48e4:	9901      	ldr	r1, [sp, #4]
    48e6:	021b      	lsls	r3, r3, #8
    48e8:	4019      	ands	r1, r3
    48ea:	4b05      	ldr	r3, [pc, #20]	; (4900 <__swhatbuf_r+0x4c>)
    48ec:	18c9      	adds	r1, r1, r3
    48ee:	424b      	negs	r3, r1
    48f0:	4159      	adcs	r1, r3
    48f2:	6029      	str	r1, [r5, #0]
    48f4:	e7ed      	b.n	48d2 <__swhatbuf_r+0x1e>
    48f6:	2340      	movs	r3, #64	; 0x40
    48f8:	2000      	movs	r0, #0
    48fa:	6023      	str	r3, [r4, #0]
    48fc:	b016      	add	sp, #88	; 0x58
    48fe:	bd70      	pop	{r4, r5, r6, pc}
    4900:	ffffe000 	.word	0xffffe000

00004904 <__smakebuf_r>:
__smakebuf_r():
    4904:	b5f7      	push	{r0, r1, r2, r4, r5, r6, r7, lr}
    4906:	2602      	movs	r6, #2
    4908:	898b      	ldrh	r3, [r1, #12]
    490a:	0005      	movs	r5, r0
    490c:	000c      	movs	r4, r1
    490e:	4233      	tst	r3, r6
    4910:	d006      	beq.n	4920 <__smakebuf_r+0x1c>
    4912:	0023      	movs	r3, r4
    4914:	3347      	adds	r3, #71	; 0x47
    4916:	6023      	str	r3, [r4, #0]
    4918:	6123      	str	r3, [r4, #16]
    491a:	2301      	movs	r3, #1
    491c:	6163      	str	r3, [r4, #20]
    491e:	bdf7      	pop	{r0, r1, r2, r4, r5, r6, r7, pc}
    4920:	466a      	mov	r2, sp
    4922:	ab01      	add	r3, sp, #4
    4924:	f7ff ffc6 	bl	48b4 <__swhatbuf_r>
    4928:	9900      	ldr	r1, [sp, #0]
    492a:	0007      	movs	r7, r0
    492c:	0028      	movs	r0, r5
    492e:	f7ff fc5f 	bl	41f0 <_malloc_r>
    4932:	2800      	cmp	r0, #0
    4934:	d108      	bne.n	4948 <__smakebuf_r+0x44>
    4936:	220c      	movs	r2, #12
    4938:	5ea3      	ldrsh	r3, [r4, r2]
    493a:	059a      	lsls	r2, r3, #22
    493c:	d4ef      	bmi.n	491e <__smakebuf_r+0x1a>
    493e:	2203      	movs	r2, #3
    4940:	4393      	bics	r3, r2
    4942:	431e      	orrs	r6, r3
    4944:	81a6      	strh	r6, [r4, #12]
    4946:	e7e4      	b.n	4912 <__smakebuf_r+0xe>
    4948:	4b0f      	ldr	r3, [pc, #60]	; (4988 <__smakebuf_r+0x84>)
    494a:	62ab      	str	r3, [r5, #40]	; 0x28
    494c:	2380      	movs	r3, #128	; 0x80
    494e:	89a2      	ldrh	r2, [r4, #12]
    4950:	6020      	str	r0, [r4, #0]
    4952:	4313      	orrs	r3, r2
    4954:	81a3      	strh	r3, [r4, #12]
    4956:	9b00      	ldr	r3, [sp, #0]
    4958:	6120      	str	r0, [r4, #16]
    495a:	6163      	str	r3, [r4, #20]
    495c:	9b01      	ldr	r3, [sp, #4]
    495e:	2b00      	cmp	r3, #0
    4960:	d00d      	beq.n	497e <__smakebuf_r+0x7a>
    4962:	0028      	movs	r0, r5
    4964:	230e      	movs	r3, #14
    4966:	5ee1      	ldrsh	r1, [r4, r3]
    4968:	f000 fcea 	bl	5340 <_isatty_r>
    496c:	2800      	cmp	r0, #0
    496e:	d006      	beq.n	497e <__smakebuf_r+0x7a>
    4970:	2203      	movs	r2, #3
    4972:	89a3      	ldrh	r3, [r4, #12]
    4974:	4393      	bics	r3, r2
    4976:	001a      	movs	r2, r3
    4978:	2301      	movs	r3, #1
    497a:	4313      	orrs	r3, r2
    497c:	81a3      	strh	r3, [r4, #12]
    497e:	89a0      	ldrh	r0, [r4, #12]
    4980:	4307      	orrs	r7, r0
    4982:	81a7      	strh	r7, [r4, #12]
    4984:	e7cb      	b.n	491e <__smakebuf_r+0x1a>
    4986:	46c0      	nop			; (mov r8, r8)
    4988:	000046f1 	.word	0x000046f1

0000498c <__malloc_lock>:
__malloc_lock():
    498c:	b510      	push	{r4, lr}
    498e:	4802      	ldr	r0, [pc, #8]	; (4998 <__malloc_lock+0xc>)
    4990:	f7ff ff8d 	bl	48ae <__retarget_lock_acquire_recursive>
    4994:	bd10      	pop	{r4, pc}
    4996:	46c0      	nop			; (mov r8, r8)
    4998:	20000374 	.word	0x20000374

0000499c <__malloc_unlock>:
__malloc_unlock():
    499c:	b510      	push	{r4, lr}
    499e:	4802      	ldr	r0, [pc, #8]	; (49a8 <__malloc_unlock+0xc>)
    49a0:	f7ff ff86 	bl	48b0 <__retarget_lock_release_recursive>
    49a4:	bd10      	pop	{r4, pc}
    49a6:	46c0      	nop			; (mov r8, r8)
    49a8:	20000374 	.word	0x20000374

000049ac <__ssputs_r>:
__ssputs_r():
    49ac:	b5f0      	push	{r4, r5, r6, r7, lr}
    49ae:	688e      	ldr	r6, [r1, #8]
    49b0:	b085      	sub	sp, #20
    49b2:	0007      	movs	r7, r0
    49b4:	000c      	movs	r4, r1
    49b6:	9203      	str	r2, [sp, #12]
    49b8:	9301      	str	r3, [sp, #4]
    49ba:	429e      	cmp	r6, r3
    49bc:	d83c      	bhi.n	4a38 <__ssputs_r+0x8c>
    49be:	2390      	movs	r3, #144	; 0x90
    49c0:	898a      	ldrh	r2, [r1, #12]
    49c2:	00db      	lsls	r3, r3, #3
    49c4:	421a      	tst	r2, r3
    49c6:	d034      	beq.n	4a32 <__ssputs_r+0x86>
    49c8:	6909      	ldr	r1, [r1, #16]
    49ca:	6823      	ldr	r3, [r4, #0]
    49cc:	6960      	ldr	r0, [r4, #20]
    49ce:	1a5b      	subs	r3, r3, r1
    49d0:	9302      	str	r3, [sp, #8]
    49d2:	2303      	movs	r3, #3
    49d4:	4343      	muls	r3, r0
    49d6:	0fdd      	lsrs	r5, r3, #31
    49d8:	18ed      	adds	r5, r5, r3
    49da:	9b01      	ldr	r3, [sp, #4]
    49dc:	9802      	ldr	r0, [sp, #8]
    49de:	3301      	adds	r3, #1
    49e0:	181b      	adds	r3, r3, r0
    49e2:	106d      	asrs	r5, r5, #1
    49e4:	42ab      	cmp	r3, r5
    49e6:	d900      	bls.n	49ea <__ssputs_r+0x3e>
    49e8:	001d      	movs	r5, r3
    49ea:	0553      	lsls	r3, r2, #21
    49ec:	d532      	bpl.n	4a54 <__ssputs_r+0xa8>
    49ee:	0029      	movs	r1, r5
    49f0:	0038      	movs	r0, r7
    49f2:	f7ff fbfd 	bl	41f0 <_malloc_r>
    49f6:	1e06      	subs	r6, r0, #0
    49f8:	d109      	bne.n	4a0e <__ssputs_r+0x62>
    49fa:	230c      	movs	r3, #12
    49fc:	603b      	str	r3, [r7, #0]
    49fe:	2340      	movs	r3, #64	; 0x40
    4a00:	2001      	movs	r0, #1
    4a02:	89a2      	ldrh	r2, [r4, #12]
    4a04:	4240      	negs	r0, r0
    4a06:	4313      	orrs	r3, r2
    4a08:	81a3      	strh	r3, [r4, #12]
    4a0a:	b005      	add	sp, #20
    4a0c:	bdf0      	pop	{r4, r5, r6, r7, pc}
    4a0e:	9a02      	ldr	r2, [sp, #8]
    4a10:	6921      	ldr	r1, [r4, #16]
    4a12:	f7ff fb65 	bl	40e0 <memcpy>
    4a16:	89a3      	ldrh	r3, [r4, #12]
    4a18:	4a14      	ldr	r2, [pc, #80]	; (4a6c <__ssputs_r+0xc0>)
    4a1a:	401a      	ands	r2, r3
    4a1c:	2380      	movs	r3, #128	; 0x80
    4a1e:	4313      	orrs	r3, r2
    4a20:	81a3      	strh	r3, [r4, #12]
    4a22:	9b02      	ldr	r3, [sp, #8]
    4a24:	6126      	str	r6, [r4, #16]
    4a26:	18f6      	adds	r6, r6, r3
    4a28:	6026      	str	r6, [r4, #0]
    4a2a:	6165      	str	r5, [r4, #20]
    4a2c:	9e01      	ldr	r6, [sp, #4]
    4a2e:	1aed      	subs	r5, r5, r3
    4a30:	60a5      	str	r5, [r4, #8]
    4a32:	9b01      	ldr	r3, [sp, #4]
    4a34:	429e      	cmp	r6, r3
    4a36:	d900      	bls.n	4a3a <__ssputs_r+0x8e>
    4a38:	9e01      	ldr	r6, [sp, #4]
    4a3a:	0032      	movs	r2, r6
    4a3c:	9903      	ldr	r1, [sp, #12]
    4a3e:	6820      	ldr	r0, [r4, #0]
    4a40:	f7ff fb57 	bl	40f2 <memmove>
    4a44:	68a3      	ldr	r3, [r4, #8]
    4a46:	2000      	movs	r0, #0
    4a48:	1b9b      	subs	r3, r3, r6
    4a4a:	60a3      	str	r3, [r4, #8]
    4a4c:	6823      	ldr	r3, [r4, #0]
    4a4e:	199e      	adds	r6, r3, r6
    4a50:	6026      	str	r6, [r4, #0]
    4a52:	e7da      	b.n	4a0a <__ssputs_r+0x5e>
    4a54:	002a      	movs	r2, r5
    4a56:	0038      	movs	r0, r7
    4a58:	f000 fca3 	bl	53a2 <_realloc_r>
    4a5c:	1e06      	subs	r6, r0, #0
    4a5e:	d1e0      	bne.n	4a22 <__ssputs_r+0x76>
    4a60:	0038      	movs	r0, r7
    4a62:	6921      	ldr	r1, [r4, #16]
    4a64:	f7ff fb58 	bl	4118 <_free_r>
    4a68:	e7c7      	b.n	49fa <__ssputs_r+0x4e>
    4a6a:	46c0      	nop			; (mov r8, r8)
    4a6c:	fffffb7f 	.word	0xfffffb7f

00004a70 <_svfiprintf_r>:
_svfprintf_r():
    4a70:	b5f0      	push	{r4, r5, r6, r7, lr}
    4a72:	b0a1      	sub	sp, #132	; 0x84
    4a74:	9003      	str	r0, [sp, #12]
    4a76:	001d      	movs	r5, r3
    4a78:	898b      	ldrh	r3, [r1, #12]
    4a7a:	000f      	movs	r7, r1
    4a7c:	0016      	movs	r6, r2
    4a7e:	061b      	lsls	r3, r3, #24
    4a80:	d511      	bpl.n	4aa6 <_svfiprintf_r+0x36>
    4a82:	690b      	ldr	r3, [r1, #16]
    4a84:	2b00      	cmp	r3, #0
    4a86:	d10e      	bne.n	4aa6 <_svfiprintf_r+0x36>
    4a88:	2140      	movs	r1, #64	; 0x40
    4a8a:	f7ff fbb1 	bl	41f0 <_malloc_r>
    4a8e:	6038      	str	r0, [r7, #0]
    4a90:	6138      	str	r0, [r7, #16]
    4a92:	2800      	cmp	r0, #0
    4a94:	d105      	bne.n	4aa2 <_svfiprintf_r+0x32>
    4a96:	230c      	movs	r3, #12
    4a98:	9a03      	ldr	r2, [sp, #12]
    4a9a:	3801      	subs	r0, #1
    4a9c:	6013      	str	r3, [r2, #0]
    4a9e:	b021      	add	sp, #132	; 0x84
    4aa0:	bdf0      	pop	{r4, r5, r6, r7, pc}
    4aa2:	2340      	movs	r3, #64	; 0x40
    4aa4:	617b      	str	r3, [r7, #20]
    4aa6:	2300      	movs	r3, #0
    4aa8:	ac08      	add	r4, sp, #32
    4aaa:	6163      	str	r3, [r4, #20]
    4aac:	3320      	adds	r3, #32
    4aae:	7663      	strb	r3, [r4, #25]
    4ab0:	3310      	adds	r3, #16
    4ab2:	76a3      	strb	r3, [r4, #26]
    4ab4:	9507      	str	r5, [sp, #28]
    4ab6:	0035      	movs	r5, r6
    4ab8:	782b      	ldrb	r3, [r5, #0]
    4aba:	2b00      	cmp	r3, #0
    4abc:	d001      	beq.n	4ac2 <_svfiprintf_r+0x52>
    4abe:	2b25      	cmp	r3, #37	; 0x25
    4ac0:	d147      	bne.n	4b52 <_svfiprintf_r+0xe2>
    4ac2:	1bab      	subs	r3, r5, r6
    4ac4:	9305      	str	r3, [sp, #20]
    4ac6:	42b5      	cmp	r5, r6
    4ac8:	d00c      	beq.n	4ae4 <_svfiprintf_r+0x74>
    4aca:	0032      	movs	r2, r6
    4acc:	0039      	movs	r1, r7
    4ace:	9803      	ldr	r0, [sp, #12]
    4ad0:	f7ff ff6c 	bl	49ac <__ssputs_r>
    4ad4:	1c43      	adds	r3, r0, #1
    4ad6:	d100      	bne.n	4ada <_svfiprintf_r+0x6a>
    4ad8:	e0ae      	b.n	4c38 <_svfiprintf_r+0x1c8>
    4ada:	6962      	ldr	r2, [r4, #20]
    4adc:	9b05      	ldr	r3, [sp, #20]
    4ade:	4694      	mov	ip, r2
    4ae0:	4463      	add	r3, ip
    4ae2:	6163      	str	r3, [r4, #20]
    4ae4:	782b      	ldrb	r3, [r5, #0]
    4ae6:	2b00      	cmp	r3, #0
    4ae8:	d100      	bne.n	4aec <_svfiprintf_r+0x7c>
    4aea:	e0a5      	b.n	4c38 <_svfiprintf_r+0x1c8>
    4aec:	2201      	movs	r2, #1
    4aee:	2300      	movs	r3, #0
    4af0:	4252      	negs	r2, r2
    4af2:	6062      	str	r2, [r4, #4]
    4af4:	a904      	add	r1, sp, #16
    4af6:	3254      	adds	r2, #84	; 0x54
    4af8:	1852      	adds	r2, r2, r1
    4afa:	1c6e      	adds	r6, r5, #1
    4afc:	6023      	str	r3, [r4, #0]
    4afe:	60e3      	str	r3, [r4, #12]
    4b00:	60a3      	str	r3, [r4, #8]
    4b02:	7013      	strb	r3, [r2, #0]
    4b04:	65a3      	str	r3, [r4, #88]	; 0x58
    4b06:	2205      	movs	r2, #5
    4b08:	7831      	ldrb	r1, [r6, #0]
    4b0a:	4854      	ldr	r0, [pc, #336]	; (4c5c <_svfiprintf_r+0x1ec>)
    4b0c:	f000 fc3e 	bl	538c <memchr>
    4b10:	1c75      	adds	r5, r6, #1
    4b12:	2800      	cmp	r0, #0
    4b14:	d11f      	bne.n	4b56 <_svfiprintf_r+0xe6>
    4b16:	6822      	ldr	r2, [r4, #0]
    4b18:	06d3      	lsls	r3, r2, #27
    4b1a:	d504      	bpl.n	4b26 <_svfiprintf_r+0xb6>
    4b1c:	2353      	movs	r3, #83	; 0x53
    4b1e:	a904      	add	r1, sp, #16
    4b20:	185b      	adds	r3, r3, r1
    4b22:	2120      	movs	r1, #32
    4b24:	7019      	strb	r1, [r3, #0]
    4b26:	0713      	lsls	r3, r2, #28
    4b28:	d504      	bpl.n	4b34 <_svfiprintf_r+0xc4>
    4b2a:	2353      	movs	r3, #83	; 0x53
    4b2c:	a904      	add	r1, sp, #16
    4b2e:	185b      	adds	r3, r3, r1
    4b30:	212b      	movs	r1, #43	; 0x2b
    4b32:	7019      	strb	r1, [r3, #0]
    4b34:	7833      	ldrb	r3, [r6, #0]
    4b36:	2b2a      	cmp	r3, #42	; 0x2a
    4b38:	d016      	beq.n	4b68 <_svfiprintf_r+0xf8>
    4b3a:	0035      	movs	r5, r6
    4b3c:	2100      	movs	r1, #0
    4b3e:	200a      	movs	r0, #10
    4b40:	68e3      	ldr	r3, [r4, #12]
    4b42:	782a      	ldrb	r2, [r5, #0]
    4b44:	1c6e      	adds	r6, r5, #1
    4b46:	3a30      	subs	r2, #48	; 0x30
    4b48:	2a09      	cmp	r2, #9
    4b4a:	d94e      	bls.n	4bea <_svfiprintf_r+0x17a>
    4b4c:	2900      	cmp	r1, #0
    4b4e:	d111      	bne.n	4b74 <_svfiprintf_r+0x104>
    4b50:	e017      	b.n	4b82 <_svfiprintf_r+0x112>
    4b52:	3501      	adds	r5, #1
    4b54:	e7b0      	b.n	4ab8 <_svfiprintf_r+0x48>
    4b56:	4b41      	ldr	r3, [pc, #260]	; (4c5c <_svfiprintf_r+0x1ec>)
    4b58:	6822      	ldr	r2, [r4, #0]
    4b5a:	1ac0      	subs	r0, r0, r3
    4b5c:	2301      	movs	r3, #1
    4b5e:	4083      	lsls	r3, r0
    4b60:	4313      	orrs	r3, r2
    4b62:	002e      	movs	r6, r5
    4b64:	6023      	str	r3, [r4, #0]
    4b66:	e7ce      	b.n	4b06 <_svfiprintf_r+0x96>
    4b68:	9b07      	ldr	r3, [sp, #28]
    4b6a:	1d19      	adds	r1, r3, #4
    4b6c:	681b      	ldr	r3, [r3, #0]
    4b6e:	9107      	str	r1, [sp, #28]
    4b70:	2b00      	cmp	r3, #0
    4b72:	db01      	blt.n	4b78 <_svfiprintf_r+0x108>
    4b74:	930b      	str	r3, [sp, #44]	; 0x2c
    4b76:	e004      	b.n	4b82 <_svfiprintf_r+0x112>
    4b78:	425b      	negs	r3, r3
    4b7a:	60e3      	str	r3, [r4, #12]
    4b7c:	2302      	movs	r3, #2
    4b7e:	4313      	orrs	r3, r2
    4b80:	6023      	str	r3, [r4, #0]
    4b82:	782b      	ldrb	r3, [r5, #0]
    4b84:	2b2e      	cmp	r3, #46	; 0x2e
    4b86:	d10a      	bne.n	4b9e <_svfiprintf_r+0x12e>
    4b88:	786b      	ldrb	r3, [r5, #1]
    4b8a:	2b2a      	cmp	r3, #42	; 0x2a
    4b8c:	d135      	bne.n	4bfa <_svfiprintf_r+0x18a>
    4b8e:	9b07      	ldr	r3, [sp, #28]
    4b90:	3502      	adds	r5, #2
    4b92:	1d1a      	adds	r2, r3, #4
    4b94:	681b      	ldr	r3, [r3, #0]
    4b96:	9207      	str	r2, [sp, #28]
    4b98:	2b00      	cmp	r3, #0
    4b9a:	db2b      	blt.n	4bf4 <_svfiprintf_r+0x184>
    4b9c:	9309      	str	r3, [sp, #36]	; 0x24
    4b9e:	4e30      	ldr	r6, [pc, #192]	; (4c60 <_svfiprintf_r+0x1f0>)
    4ba0:	2203      	movs	r2, #3
    4ba2:	0030      	movs	r0, r6
    4ba4:	7829      	ldrb	r1, [r5, #0]
    4ba6:	f000 fbf1 	bl	538c <memchr>
    4baa:	2800      	cmp	r0, #0
    4bac:	d006      	beq.n	4bbc <_svfiprintf_r+0x14c>
    4bae:	2340      	movs	r3, #64	; 0x40
    4bb0:	1b80      	subs	r0, r0, r6
    4bb2:	4083      	lsls	r3, r0
    4bb4:	6822      	ldr	r2, [r4, #0]
    4bb6:	3501      	adds	r5, #1
    4bb8:	4313      	orrs	r3, r2
    4bba:	6023      	str	r3, [r4, #0]
    4bbc:	7829      	ldrb	r1, [r5, #0]
    4bbe:	2206      	movs	r2, #6
    4bc0:	4828      	ldr	r0, [pc, #160]	; (4c64 <_svfiprintf_r+0x1f4>)
    4bc2:	1c6e      	adds	r6, r5, #1
    4bc4:	7621      	strb	r1, [r4, #24]
    4bc6:	f000 fbe1 	bl	538c <memchr>
    4bca:	2800      	cmp	r0, #0
    4bcc:	d03c      	beq.n	4c48 <_svfiprintf_r+0x1d8>
    4bce:	4b26      	ldr	r3, [pc, #152]	; (4c68 <_svfiprintf_r+0x1f8>)
    4bd0:	2b00      	cmp	r3, #0
    4bd2:	d125      	bne.n	4c20 <_svfiprintf_r+0x1b0>
    4bd4:	2207      	movs	r2, #7
    4bd6:	9b07      	ldr	r3, [sp, #28]
    4bd8:	3307      	adds	r3, #7
    4bda:	4393      	bics	r3, r2
    4bdc:	3308      	adds	r3, #8
    4bde:	9307      	str	r3, [sp, #28]
    4be0:	6963      	ldr	r3, [r4, #20]
    4be2:	9a04      	ldr	r2, [sp, #16]
    4be4:	189b      	adds	r3, r3, r2
    4be6:	6163      	str	r3, [r4, #20]
    4be8:	e765      	b.n	4ab6 <_svfiprintf_r+0x46>
    4bea:	4343      	muls	r3, r0
    4bec:	0035      	movs	r5, r6
    4bee:	2101      	movs	r1, #1
    4bf0:	189b      	adds	r3, r3, r2
    4bf2:	e7a6      	b.n	4b42 <_svfiprintf_r+0xd2>
    4bf4:	2301      	movs	r3, #1
    4bf6:	425b      	negs	r3, r3
    4bf8:	e7d0      	b.n	4b9c <_svfiprintf_r+0x12c>
    4bfa:	2300      	movs	r3, #0
    4bfc:	200a      	movs	r0, #10
    4bfe:	001a      	movs	r2, r3
    4c00:	3501      	adds	r5, #1
    4c02:	6063      	str	r3, [r4, #4]
    4c04:	7829      	ldrb	r1, [r5, #0]
    4c06:	1c6e      	adds	r6, r5, #1
    4c08:	3930      	subs	r1, #48	; 0x30
    4c0a:	2909      	cmp	r1, #9
    4c0c:	d903      	bls.n	4c16 <_svfiprintf_r+0x1a6>
    4c0e:	2b00      	cmp	r3, #0
    4c10:	d0c5      	beq.n	4b9e <_svfiprintf_r+0x12e>
    4c12:	9209      	str	r2, [sp, #36]	; 0x24
    4c14:	e7c3      	b.n	4b9e <_svfiprintf_r+0x12e>
    4c16:	4342      	muls	r2, r0
    4c18:	0035      	movs	r5, r6
    4c1a:	2301      	movs	r3, #1
    4c1c:	1852      	adds	r2, r2, r1
    4c1e:	e7f1      	b.n	4c04 <_svfiprintf_r+0x194>
    4c20:	ab07      	add	r3, sp, #28
    4c22:	9300      	str	r3, [sp, #0]
    4c24:	003a      	movs	r2, r7
    4c26:	0021      	movs	r1, r4
    4c28:	4b10      	ldr	r3, [pc, #64]	; (4c6c <_svfiprintf_r+0x1fc>)
    4c2a:	9803      	ldr	r0, [sp, #12]
    4c2c:	e000      	b.n	4c30 <_svfiprintf_r+0x1c0>
    4c2e:	bf00      	nop
    4c30:	9004      	str	r0, [sp, #16]
    4c32:	9b04      	ldr	r3, [sp, #16]
    4c34:	3301      	adds	r3, #1
    4c36:	d1d3      	bne.n	4be0 <_svfiprintf_r+0x170>
    4c38:	89bb      	ldrh	r3, [r7, #12]
    4c3a:	980d      	ldr	r0, [sp, #52]	; 0x34
    4c3c:	065b      	lsls	r3, r3, #25
    4c3e:	d400      	bmi.n	4c42 <_svfiprintf_r+0x1d2>
    4c40:	e72d      	b.n	4a9e <_svfiprintf_r+0x2e>
    4c42:	2001      	movs	r0, #1
    4c44:	4240      	negs	r0, r0
    4c46:	e72a      	b.n	4a9e <_svfiprintf_r+0x2e>
    4c48:	ab07      	add	r3, sp, #28
    4c4a:	9300      	str	r3, [sp, #0]
    4c4c:	003a      	movs	r2, r7
    4c4e:	0021      	movs	r1, r4
    4c50:	4b06      	ldr	r3, [pc, #24]	; (4c6c <_svfiprintf_r+0x1fc>)
    4c52:	9803      	ldr	r0, [sp, #12]
    4c54:	f000 f87c 	bl	4d50 <_printf_i>
    4c58:	e7ea      	b.n	4c30 <_svfiprintf_r+0x1c0>
    4c5a:	46c0      	nop			; (mov r8, r8)
    4c5c:	00006528 	.word	0x00006528
    4c60:	0000652e 	.word	0x0000652e
    4c64:	00006532 	.word	0x00006532
    4c68:	00000000 	.word	0x00000000
    4c6c:	000049ad 	.word	0x000049ad

00004c70 <_printf_common>:
_printf_common():
    4c70:	b5f7      	push	{r0, r1, r2, r4, r5, r6, r7, lr}
    4c72:	0015      	movs	r5, r2
    4c74:	9301      	str	r3, [sp, #4]
    4c76:	688a      	ldr	r2, [r1, #8]
    4c78:	690b      	ldr	r3, [r1, #16]
    4c7a:	000c      	movs	r4, r1
    4c7c:	9000      	str	r0, [sp, #0]
    4c7e:	4293      	cmp	r3, r2
    4c80:	da00      	bge.n	4c84 <_printf_common+0x14>
    4c82:	0013      	movs	r3, r2
    4c84:	0022      	movs	r2, r4
    4c86:	602b      	str	r3, [r5, #0]
    4c88:	3243      	adds	r2, #67	; 0x43
    4c8a:	7812      	ldrb	r2, [r2, #0]
    4c8c:	2a00      	cmp	r2, #0
    4c8e:	d001      	beq.n	4c94 <_printf_common+0x24>
    4c90:	3301      	adds	r3, #1
    4c92:	602b      	str	r3, [r5, #0]
    4c94:	6823      	ldr	r3, [r4, #0]
    4c96:	069b      	lsls	r3, r3, #26
    4c98:	d502      	bpl.n	4ca0 <_printf_common+0x30>
    4c9a:	682b      	ldr	r3, [r5, #0]
    4c9c:	3302      	adds	r3, #2
    4c9e:	602b      	str	r3, [r5, #0]
    4ca0:	6822      	ldr	r2, [r4, #0]
    4ca2:	2306      	movs	r3, #6
    4ca4:	0017      	movs	r7, r2
    4ca6:	401f      	ands	r7, r3
    4ca8:	421a      	tst	r2, r3
    4caa:	d027      	beq.n	4cfc <_printf_common+0x8c>
    4cac:	0023      	movs	r3, r4
    4cae:	3343      	adds	r3, #67	; 0x43
    4cb0:	781b      	ldrb	r3, [r3, #0]
    4cb2:	1e5a      	subs	r2, r3, #1
    4cb4:	4193      	sbcs	r3, r2
    4cb6:	6822      	ldr	r2, [r4, #0]
    4cb8:	0692      	lsls	r2, r2, #26
    4cba:	d430      	bmi.n	4d1e <_printf_common+0xae>
    4cbc:	0022      	movs	r2, r4
    4cbe:	9901      	ldr	r1, [sp, #4]
    4cc0:	9800      	ldr	r0, [sp, #0]
    4cc2:	9e08      	ldr	r6, [sp, #32]
    4cc4:	3243      	adds	r2, #67	; 0x43
    4cc6:	47b0      	blx	r6
    4cc8:	1c43      	adds	r3, r0, #1
    4cca:	d025      	beq.n	4d18 <_printf_common+0xa8>
    4ccc:	2306      	movs	r3, #6
    4cce:	6820      	ldr	r0, [r4, #0]
    4cd0:	682a      	ldr	r2, [r5, #0]
    4cd2:	68e1      	ldr	r1, [r4, #12]
    4cd4:	2500      	movs	r5, #0
    4cd6:	4003      	ands	r3, r0
    4cd8:	2b04      	cmp	r3, #4
    4cda:	d103      	bne.n	4ce4 <_printf_common+0x74>
    4cdc:	1a8d      	subs	r5, r1, r2
    4cde:	43eb      	mvns	r3, r5
    4ce0:	17db      	asrs	r3, r3, #31
    4ce2:	401d      	ands	r5, r3
    4ce4:	68a3      	ldr	r3, [r4, #8]
    4ce6:	6922      	ldr	r2, [r4, #16]
    4ce8:	4293      	cmp	r3, r2
    4cea:	dd01      	ble.n	4cf0 <_printf_common+0x80>
    4cec:	1a9b      	subs	r3, r3, r2
    4cee:	18ed      	adds	r5, r5, r3
    4cf0:	2700      	movs	r7, #0
    4cf2:	42bd      	cmp	r5, r7
    4cf4:	d120      	bne.n	4d38 <_printf_common+0xc8>
    4cf6:	2000      	movs	r0, #0
    4cf8:	e010      	b.n	4d1c <_printf_common+0xac>
    4cfa:	3701      	adds	r7, #1
    4cfc:	68e3      	ldr	r3, [r4, #12]
    4cfe:	682a      	ldr	r2, [r5, #0]
    4d00:	1a9b      	subs	r3, r3, r2
    4d02:	42bb      	cmp	r3, r7
    4d04:	ddd2      	ble.n	4cac <_printf_common+0x3c>
    4d06:	0022      	movs	r2, r4
    4d08:	2301      	movs	r3, #1
    4d0a:	9901      	ldr	r1, [sp, #4]
    4d0c:	9800      	ldr	r0, [sp, #0]
    4d0e:	9e08      	ldr	r6, [sp, #32]
    4d10:	3219      	adds	r2, #25
    4d12:	47b0      	blx	r6
    4d14:	1c43      	adds	r3, r0, #1
    4d16:	d1f0      	bne.n	4cfa <_printf_common+0x8a>
    4d18:	2001      	movs	r0, #1
    4d1a:	4240      	negs	r0, r0
    4d1c:	bdfe      	pop	{r1, r2, r3, r4, r5, r6, r7, pc}
    4d1e:	2030      	movs	r0, #48	; 0x30
    4d20:	18e1      	adds	r1, r4, r3
    4d22:	3143      	adds	r1, #67	; 0x43
    4d24:	7008      	strb	r0, [r1, #0]
    4d26:	0021      	movs	r1, r4
    4d28:	1c5a      	adds	r2, r3, #1
    4d2a:	3145      	adds	r1, #69	; 0x45
    4d2c:	7809      	ldrb	r1, [r1, #0]
    4d2e:	18a2      	adds	r2, r4, r2
    4d30:	3243      	adds	r2, #67	; 0x43
    4d32:	3302      	adds	r3, #2
    4d34:	7011      	strb	r1, [r2, #0]
    4d36:	e7c1      	b.n	4cbc <_printf_common+0x4c>
    4d38:	0022      	movs	r2, r4
    4d3a:	2301      	movs	r3, #1
    4d3c:	9901      	ldr	r1, [sp, #4]
    4d3e:	9800      	ldr	r0, [sp, #0]
    4d40:	9e08      	ldr	r6, [sp, #32]
    4d42:	321a      	adds	r2, #26
    4d44:	47b0      	blx	r6
    4d46:	1c43      	adds	r3, r0, #1
    4d48:	d0e6      	beq.n	4d18 <_printf_common+0xa8>
    4d4a:	3701      	adds	r7, #1
    4d4c:	e7d1      	b.n	4cf2 <_printf_common+0x82>
	...

00004d50 <_printf_i>:
_printf_i():
    4d50:	b5f0      	push	{r4, r5, r6, r7, lr}
    4d52:	b08b      	sub	sp, #44	; 0x2c
    4d54:	9206      	str	r2, [sp, #24]
    4d56:	000a      	movs	r2, r1
    4d58:	3243      	adds	r2, #67	; 0x43
    4d5a:	9307      	str	r3, [sp, #28]
    4d5c:	9005      	str	r0, [sp, #20]
    4d5e:	9204      	str	r2, [sp, #16]
    4d60:	7e0a      	ldrb	r2, [r1, #24]
    4d62:	000c      	movs	r4, r1
    4d64:	9b10      	ldr	r3, [sp, #64]	; 0x40
    4d66:	2a78      	cmp	r2, #120	; 0x78
    4d68:	d807      	bhi.n	4d7a <_printf_i+0x2a>
    4d6a:	2a62      	cmp	r2, #98	; 0x62
    4d6c:	d809      	bhi.n	4d82 <_printf_i+0x32>
    4d6e:	2a00      	cmp	r2, #0
    4d70:	d100      	bne.n	4d74 <_printf_i+0x24>
    4d72:	e0c1      	b.n	4ef8 <_printf_i+0x1a8>
    4d74:	2a58      	cmp	r2, #88	; 0x58
    4d76:	d100      	bne.n	4d7a <_printf_i+0x2a>
    4d78:	e08c      	b.n	4e94 <_printf_i+0x144>
    4d7a:	0026      	movs	r6, r4
    4d7c:	3642      	adds	r6, #66	; 0x42
    4d7e:	7032      	strb	r2, [r6, #0]
    4d80:	e022      	b.n	4dc8 <_printf_i+0x78>
    4d82:	0010      	movs	r0, r2
    4d84:	3863      	subs	r0, #99	; 0x63
    4d86:	2815      	cmp	r0, #21
    4d88:	d8f7      	bhi.n	4d7a <_printf_i+0x2a>
    4d8a:	f7fb fa71 	bl	270 <__gnu_thumb1_case_shi>
    4d8e:	0016      	.short	0x0016
    4d90:	fff6001f 	.word	0xfff6001f
    4d94:	fff6fff6 	.word	0xfff6fff6
    4d98:	001ffff6 	.word	0x001ffff6
    4d9c:	fff6fff6 	.word	0xfff6fff6
    4da0:	fff6fff6 	.word	0xfff6fff6
    4da4:	003600a8 	.word	0x003600a8
    4da8:	fff6009a 	.word	0xfff6009a
    4dac:	00b9fff6 	.word	0x00b9fff6
    4db0:	0036fff6 	.word	0x0036fff6
    4db4:	fff6fff6 	.word	0xfff6fff6
    4db8:	009e      	.short	0x009e
    4dba:	0026      	movs	r6, r4
    4dbc:	681a      	ldr	r2, [r3, #0]
    4dbe:	3642      	adds	r6, #66	; 0x42
    4dc0:	1d11      	adds	r1, r2, #4
    4dc2:	6019      	str	r1, [r3, #0]
    4dc4:	6813      	ldr	r3, [r2, #0]
    4dc6:	7033      	strb	r3, [r6, #0]
    4dc8:	2301      	movs	r3, #1
    4dca:	e0a7      	b.n	4f1c <_printf_i+0x1cc>
    4dcc:	6808      	ldr	r0, [r1, #0]
    4dce:	6819      	ldr	r1, [r3, #0]
    4dd0:	1d0a      	adds	r2, r1, #4
    4dd2:	0605      	lsls	r5, r0, #24
    4dd4:	d50b      	bpl.n	4dee <_printf_i+0x9e>
    4dd6:	680d      	ldr	r5, [r1, #0]
    4dd8:	601a      	str	r2, [r3, #0]
    4dda:	2d00      	cmp	r5, #0
    4ddc:	da03      	bge.n	4de6 <_printf_i+0x96>
    4dde:	232d      	movs	r3, #45	; 0x2d
    4de0:	9a04      	ldr	r2, [sp, #16]
    4de2:	426d      	negs	r5, r5
    4de4:	7013      	strb	r3, [r2, #0]
    4de6:	4b61      	ldr	r3, [pc, #388]	; (4f6c <_printf_i+0x21c>)
    4de8:	270a      	movs	r7, #10
    4dea:	9303      	str	r3, [sp, #12]
    4dec:	e01b      	b.n	4e26 <_printf_i+0xd6>
    4dee:	680d      	ldr	r5, [r1, #0]
    4df0:	601a      	str	r2, [r3, #0]
    4df2:	0641      	lsls	r1, r0, #25
    4df4:	d5f1      	bpl.n	4dda <_printf_i+0x8a>
    4df6:	b22d      	sxth	r5, r5
    4df8:	e7ef      	b.n	4dda <_printf_i+0x8a>
    4dfa:	680d      	ldr	r5, [r1, #0]
    4dfc:	6819      	ldr	r1, [r3, #0]
    4dfe:	1d08      	adds	r0, r1, #4
    4e00:	6018      	str	r0, [r3, #0]
    4e02:	062e      	lsls	r6, r5, #24
    4e04:	d501      	bpl.n	4e0a <_printf_i+0xba>
    4e06:	680d      	ldr	r5, [r1, #0]
    4e08:	e003      	b.n	4e12 <_printf_i+0xc2>
    4e0a:	066d      	lsls	r5, r5, #25
    4e0c:	d5fb      	bpl.n	4e06 <_printf_i+0xb6>
    4e0e:	680d      	ldr	r5, [r1, #0]
    4e10:	b2ad      	uxth	r5, r5
    4e12:	4b56      	ldr	r3, [pc, #344]	; (4f6c <_printf_i+0x21c>)
    4e14:	2708      	movs	r7, #8
    4e16:	9303      	str	r3, [sp, #12]
    4e18:	2a6f      	cmp	r2, #111	; 0x6f
    4e1a:	d000      	beq.n	4e1e <_printf_i+0xce>
    4e1c:	3702      	adds	r7, #2
    4e1e:	0023      	movs	r3, r4
    4e20:	2200      	movs	r2, #0
    4e22:	3343      	adds	r3, #67	; 0x43
    4e24:	701a      	strb	r2, [r3, #0]
    4e26:	6863      	ldr	r3, [r4, #4]
    4e28:	60a3      	str	r3, [r4, #8]
    4e2a:	2b00      	cmp	r3, #0
    4e2c:	db03      	blt.n	4e36 <_printf_i+0xe6>
    4e2e:	2204      	movs	r2, #4
    4e30:	6821      	ldr	r1, [r4, #0]
    4e32:	4391      	bics	r1, r2
    4e34:	6021      	str	r1, [r4, #0]
    4e36:	2d00      	cmp	r5, #0
    4e38:	d102      	bne.n	4e40 <_printf_i+0xf0>
    4e3a:	9e04      	ldr	r6, [sp, #16]
    4e3c:	2b00      	cmp	r3, #0
    4e3e:	d00c      	beq.n	4e5a <_printf_i+0x10a>
    4e40:	9e04      	ldr	r6, [sp, #16]
    4e42:	0028      	movs	r0, r5
    4e44:	0039      	movs	r1, r7
    4e46:	f7fb f9fb 	bl	240 <__aeabi_uidivmod>
    4e4a:	9b03      	ldr	r3, [sp, #12]
    4e4c:	3e01      	subs	r6, #1
    4e4e:	5c5b      	ldrb	r3, [r3, r1]
    4e50:	7033      	strb	r3, [r6, #0]
    4e52:	002b      	movs	r3, r5
    4e54:	0005      	movs	r5, r0
    4e56:	429f      	cmp	r7, r3
    4e58:	d9f3      	bls.n	4e42 <_printf_i+0xf2>
    4e5a:	2f08      	cmp	r7, #8
    4e5c:	d109      	bne.n	4e72 <_printf_i+0x122>
    4e5e:	6823      	ldr	r3, [r4, #0]
    4e60:	07db      	lsls	r3, r3, #31
    4e62:	d506      	bpl.n	4e72 <_printf_i+0x122>
    4e64:	6863      	ldr	r3, [r4, #4]
    4e66:	6922      	ldr	r2, [r4, #16]
    4e68:	4293      	cmp	r3, r2
    4e6a:	dc02      	bgt.n	4e72 <_printf_i+0x122>
    4e6c:	2330      	movs	r3, #48	; 0x30
    4e6e:	3e01      	subs	r6, #1
    4e70:	7033      	strb	r3, [r6, #0]
    4e72:	9b04      	ldr	r3, [sp, #16]
    4e74:	1b9b      	subs	r3, r3, r6
    4e76:	6123      	str	r3, [r4, #16]
    4e78:	9b07      	ldr	r3, [sp, #28]
    4e7a:	0021      	movs	r1, r4
    4e7c:	9300      	str	r3, [sp, #0]
    4e7e:	9805      	ldr	r0, [sp, #20]
    4e80:	9b06      	ldr	r3, [sp, #24]
    4e82:	aa09      	add	r2, sp, #36	; 0x24
    4e84:	f7ff fef4 	bl	4c70 <_printf_common>
    4e88:	1c43      	adds	r3, r0, #1
    4e8a:	d14c      	bne.n	4f26 <_printf_i+0x1d6>
    4e8c:	2001      	movs	r0, #1
    4e8e:	4240      	negs	r0, r0
    4e90:	b00b      	add	sp, #44	; 0x2c
    4e92:	bdf0      	pop	{r4, r5, r6, r7, pc}
    4e94:	3145      	adds	r1, #69	; 0x45
    4e96:	700a      	strb	r2, [r1, #0]
    4e98:	4a34      	ldr	r2, [pc, #208]	; (4f6c <_printf_i+0x21c>)
    4e9a:	9203      	str	r2, [sp, #12]
    4e9c:	681a      	ldr	r2, [r3, #0]
    4e9e:	6821      	ldr	r1, [r4, #0]
    4ea0:	ca20      	ldmia	r2!, {r5}
    4ea2:	601a      	str	r2, [r3, #0]
    4ea4:	0608      	lsls	r0, r1, #24
    4ea6:	d516      	bpl.n	4ed6 <_printf_i+0x186>
    4ea8:	07cb      	lsls	r3, r1, #31
    4eaa:	d502      	bpl.n	4eb2 <_printf_i+0x162>
    4eac:	2320      	movs	r3, #32
    4eae:	4319      	orrs	r1, r3
    4eb0:	6021      	str	r1, [r4, #0]
    4eb2:	2710      	movs	r7, #16
    4eb4:	2d00      	cmp	r5, #0
    4eb6:	d1b2      	bne.n	4e1e <_printf_i+0xce>
    4eb8:	2320      	movs	r3, #32
    4eba:	6822      	ldr	r2, [r4, #0]
    4ebc:	439a      	bics	r2, r3
    4ebe:	6022      	str	r2, [r4, #0]
    4ec0:	e7ad      	b.n	4e1e <_printf_i+0xce>
    4ec2:	2220      	movs	r2, #32
    4ec4:	6809      	ldr	r1, [r1, #0]
    4ec6:	430a      	orrs	r2, r1
    4ec8:	6022      	str	r2, [r4, #0]
    4eca:	0022      	movs	r2, r4
    4ecc:	2178      	movs	r1, #120	; 0x78
    4ece:	3245      	adds	r2, #69	; 0x45
    4ed0:	7011      	strb	r1, [r2, #0]
    4ed2:	4a27      	ldr	r2, [pc, #156]	; (4f70 <_printf_i+0x220>)
    4ed4:	e7e1      	b.n	4e9a <_printf_i+0x14a>
    4ed6:	0648      	lsls	r0, r1, #25
    4ed8:	d5e6      	bpl.n	4ea8 <_printf_i+0x158>
    4eda:	b2ad      	uxth	r5, r5
    4edc:	e7e4      	b.n	4ea8 <_printf_i+0x158>
    4ede:	681a      	ldr	r2, [r3, #0]
    4ee0:	680d      	ldr	r5, [r1, #0]
    4ee2:	1d10      	adds	r0, r2, #4
    4ee4:	6949      	ldr	r1, [r1, #20]
    4ee6:	6018      	str	r0, [r3, #0]
    4ee8:	6813      	ldr	r3, [r2, #0]
    4eea:	062e      	lsls	r6, r5, #24
    4eec:	d501      	bpl.n	4ef2 <_printf_i+0x1a2>
    4eee:	6019      	str	r1, [r3, #0]
    4ef0:	e002      	b.n	4ef8 <_printf_i+0x1a8>
    4ef2:	066d      	lsls	r5, r5, #25
    4ef4:	d5fb      	bpl.n	4eee <_printf_i+0x19e>
    4ef6:	8019      	strh	r1, [r3, #0]
    4ef8:	2300      	movs	r3, #0
    4efa:	9e04      	ldr	r6, [sp, #16]
    4efc:	6123      	str	r3, [r4, #16]
    4efe:	e7bb      	b.n	4e78 <_printf_i+0x128>
    4f00:	681a      	ldr	r2, [r3, #0]
    4f02:	1d11      	adds	r1, r2, #4
    4f04:	6019      	str	r1, [r3, #0]
    4f06:	6816      	ldr	r6, [r2, #0]
    4f08:	2100      	movs	r1, #0
    4f0a:	0030      	movs	r0, r6
    4f0c:	6862      	ldr	r2, [r4, #4]
    4f0e:	f000 fa3d 	bl	538c <memchr>
    4f12:	2800      	cmp	r0, #0
    4f14:	d001      	beq.n	4f1a <_printf_i+0x1ca>
    4f16:	1b80      	subs	r0, r0, r6
    4f18:	6060      	str	r0, [r4, #4]
    4f1a:	6863      	ldr	r3, [r4, #4]
    4f1c:	6123      	str	r3, [r4, #16]
    4f1e:	2300      	movs	r3, #0
    4f20:	9a04      	ldr	r2, [sp, #16]
    4f22:	7013      	strb	r3, [r2, #0]
    4f24:	e7a8      	b.n	4e78 <_printf_i+0x128>
    4f26:	6923      	ldr	r3, [r4, #16]
    4f28:	0032      	movs	r2, r6
    4f2a:	9906      	ldr	r1, [sp, #24]
    4f2c:	9805      	ldr	r0, [sp, #20]
    4f2e:	9d07      	ldr	r5, [sp, #28]
    4f30:	47a8      	blx	r5
    4f32:	1c43      	adds	r3, r0, #1
    4f34:	d0aa      	beq.n	4e8c <_printf_i+0x13c>
    4f36:	6823      	ldr	r3, [r4, #0]
    4f38:	079b      	lsls	r3, r3, #30
    4f3a:	d415      	bmi.n	4f68 <_printf_i+0x218>
    4f3c:	9b09      	ldr	r3, [sp, #36]	; 0x24
    4f3e:	68e0      	ldr	r0, [r4, #12]
    4f40:	4298      	cmp	r0, r3
    4f42:	daa5      	bge.n	4e90 <_printf_i+0x140>
    4f44:	0018      	movs	r0, r3
    4f46:	e7a3      	b.n	4e90 <_printf_i+0x140>
    4f48:	0022      	movs	r2, r4
    4f4a:	2301      	movs	r3, #1
    4f4c:	9906      	ldr	r1, [sp, #24]
    4f4e:	9805      	ldr	r0, [sp, #20]
    4f50:	9e07      	ldr	r6, [sp, #28]
    4f52:	3219      	adds	r2, #25
    4f54:	47b0      	blx	r6
    4f56:	1c43      	adds	r3, r0, #1
    4f58:	d098      	beq.n	4e8c <_printf_i+0x13c>
    4f5a:	3501      	adds	r5, #1
    4f5c:	68e3      	ldr	r3, [r4, #12]
    4f5e:	9a09      	ldr	r2, [sp, #36]	; 0x24
    4f60:	1a9b      	subs	r3, r3, r2
    4f62:	42ab      	cmp	r3, r5
    4f64:	dcf0      	bgt.n	4f48 <_printf_i+0x1f8>
    4f66:	e7e9      	b.n	4f3c <_printf_i+0x1ec>
    4f68:	2500      	movs	r5, #0
    4f6a:	e7f7      	b.n	4f5c <_printf_i+0x20c>
    4f6c:	00006539 	.word	0x00006539
    4f70:	0000654a 	.word	0x0000654a

00004f74 <__sfputc_r>:
__sfputc_r():
    4f74:	6893      	ldr	r3, [r2, #8]
    4f76:	b510      	push	{r4, lr}
    4f78:	3b01      	subs	r3, #1
    4f7a:	6093      	str	r3, [r2, #8]
    4f7c:	2b00      	cmp	r3, #0
    4f7e:	da04      	bge.n	4f8a <__sfputc_r+0x16>
    4f80:	6994      	ldr	r4, [r2, #24]
    4f82:	42a3      	cmp	r3, r4
    4f84:	db07      	blt.n	4f96 <__sfputc_r+0x22>
    4f86:	290a      	cmp	r1, #10
    4f88:	d005      	beq.n	4f96 <__sfputc_r+0x22>
    4f8a:	6813      	ldr	r3, [r2, #0]
    4f8c:	1c58      	adds	r0, r3, #1
    4f8e:	6010      	str	r0, [r2, #0]
    4f90:	7019      	strb	r1, [r3, #0]
    4f92:	0008      	movs	r0, r1
    4f94:	bd10      	pop	{r4, pc}
    4f96:	f7ff f9ed 	bl	4374 <__swbuf_r>
    4f9a:	0001      	movs	r1, r0
    4f9c:	e7f9      	b.n	4f92 <__sfputc_r+0x1e>

00004f9e <__sfputs_r>:
__sfputs_r():
    4f9e:	b5f8      	push	{r3, r4, r5, r6, r7, lr}
    4fa0:	0006      	movs	r6, r0
    4fa2:	000f      	movs	r7, r1
    4fa4:	0014      	movs	r4, r2
    4fa6:	18d5      	adds	r5, r2, r3
    4fa8:	42ac      	cmp	r4, r5
    4faa:	d101      	bne.n	4fb0 <__sfputs_r+0x12>
    4fac:	2000      	movs	r0, #0
    4fae:	e007      	b.n	4fc0 <__sfputs_r+0x22>
    4fb0:	7821      	ldrb	r1, [r4, #0]
    4fb2:	003a      	movs	r2, r7
    4fb4:	0030      	movs	r0, r6
    4fb6:	f7ff ffdd 	bl	4f74 <__sfputc_r>
    4fba:	3401      	adds	r4, #1
    4fbc:	1c43      	adds	r3, r0, #1
    4fbe:	d1f3      	bne.n	4fa8 <__sfputs_r+0xa>
    4fc0:	bdf8      	pop	{r3, r4, r5, r6, r7, pc}
	...

00004fc4 <_vfiprintf_r>:
_vfiprintf_r():
    4fc4:	b5f0      	push	{r4, r5, r6, r7, lr}
    4fc6:	b0a1      	sub	sp, #132	; 0x84
    4fc8:	0006      	movs	r6, r0
    4fca:	000c      	movs	r4, r1
    4fcc:	001f      	movs	r7, r3
    4fce:	9203      	str	r2, [sp, #12]
    4fd0:	2800      	cmp	r0, #0
    4fd2:	d004      	beq.n	4fde <_vfiprintf_r+0x1a>
    4fd4:	6983      	ldr	r3, [r0, #24]
    4fd6:	2b00      	cmp	r3, #0
    4fd8:	d101      	bne.n	4fde <_vfiprintf_r+0x1a>
    4fda:	f7ff fbc7 	bl	476c <__sinit>
    4fde:	4b8e      	ldr	r3, [pc, #568]	; (5218 <_vfiprintf_r+0x254>)
    4fe0:	429c      	cmp	r4, r3
    4fe2:	d11c      	bne.n	501e <_vfiprintf_r+0x5a>
    4fe4:	6874      	ldr	r4, [r6, #4]
    4fe6:	6e63      	ldr	r3, [r4, #100]	; 0x64
    4fe8:	07db      	lsls	r3, r3, #31
    4fea:	d405      	bmi.n	4ff8 <_vfiprintf_r+0x34>
    4fec:	89a3      	ldrh	r3, [r4, #12]
    4fee:	059b      	lsls	r3, r3, #22
    4ff0:	d402      	bmi.n	4ff8 <_vfiprintf_r+0x34>
    4ff2:	6da0      	ldr	r0, [r4, #88]	; 0x58
    4ff4:	f7ff fc5b 	bl	48ae <__retarget_lock_acquire_recursive>
    4ff8:	89a3      	ldrh	r3, [r4, #12]
    4ffa:	071b      	lsls	r3, r3, #28
    4ffc:	d502      	bpl.n	5004 <_vfiprintf_r+0x40>
    4ffe:	6923      	ldr	r3, [r4, #16]
    5000:	2b00      	cmp	r3, #0
    5002:	d11d      	bne.n	5040 <_vfiprintf_r+0x7c>
    5004:	0021      	movs	r1, r4
    5006:	0030      	movs	r0, r6
    5008:	f7ff fa0a 	bl	4420 <__swsetup_r>
    500c:	2800      	cmp	r0, #0
    500e:	d017      	beq.n	5040 <_vfiprintf_r+0x7c>
    5010:	6e63      	ldr	r3, [r4, #100]	; 0x64
    5012:	07db      	lsls	r3, r3, #31
    5014:	d50d      	bpl.n	5032 <_vfiprintf_r+0x6e>
    5016:	2001      	movs	r0, #1
    5018:	4240      	negs	r0, r0
    501a:	b021      	add	sp, #132	; 0x84
    501c:	bdf0      	pop	{r4, r5, r6, r7, pc}
    501e:	4b7f      	ldr	r3, [pc, #508]	; (521c <_vfiprintf_r+0x258>)
    5020:	429c      	cmp	r4, r3
    5022:	d101      	bne.n	5028 <_vfiprintf_r+0x64>
    5024:	68b4      	ldr	r4, [r6, #8]
    5026:	e7de      	b.n	4fe6 <_vfiprintf_r+0x22>
    5028:	4b7d      	ldr	r3, [pc, #500]	; (5220 <_vfiprintf_r+0x25c>)
    502a:	429c      	cmp	r4, r3
    502c:	d1db      	bne.n	4fe6 <_vfiprintf_r+0x22>
    502e:	68f4      	ldr	r4, [r6, #12]
    5030:	e7d9      	b.n	4fe6 <_vfiprintf_r+0x22>
    5032:	89a3      	ldrh	r3, [r4, #12]
    5034:	059b      	lsls	r3, r3, #22
    5036:	d4ee      	bmi.n	5016 <_vfiprintf_r+0x52>
    5038:	6da0      	ldr	r0, [r4, #88]	; 0x58
    503a:	f7ff fc39 	bl	48b0 <__retarget_lock_release_recursive>
    503e:	e7ea      	b.n	5016 <_vfiprintf_r+0x52>
    5040:	2300      	movs	r3, #0
    5042:	ad08      	add	r5, sp, #32
    5044:	616b      	str	r3, [r5, #20]
    5046:	3320      	adds	r3, #32
    5048:	766b      	strb	r3, [r5, #25]
    504a:	3310      	adds	r3, #16
    504c:	76ab      	strb	r3, [r5, #26]
    504e:	9707      	str	r7, [sp, #28]
    5050:	9f03      	ldr	r7, [sp, #12]
    5052:	783b      	ldrb	r3, [r7, #0]
    5054:	2b00      	cmp	r3, #0
    5056:	d001      	beq.n	505c <_vfiprintf_r+0x98>
    5058:	2b25      	cmp	r3, #37	; 0x25
    505a:	d14e      	bne.n	50fa <_vfiprintf_r+0x136>
    505c:	9b03      	ldr	r3, [sp, #12]
    505e:	1afb      	subs	r3, r7, r3
    5060:	9305      	str	r3, [sp, #20]
    5062:	9b03      	ldr	r3, [sp, #12]
    5064:	429f      	cmp	r7, r3
    5066:	d00d      	beq.n	5084 <_vfiprintf_r+0xc0>
    5068:	9b05      	ldr	r3, [sp, #20]
    506a:	0021      	movs	r1, r4
    506c:	0030      	movs	r0, r6
    506e:	9a03      	ldr	r2, [sp, #12]
    5070:	f7ff ff95 	bl	4f9e <__sfputs_r>
    5074:	1c43      	adds	r3, r0, #1
    5076:	d100      	bne.n	507a <_vfiprintf_r+0xb6>
    5078:	e0b5      	b.n	51e6 <_vfiprintf_r+0x222>
    507a:	696a      	ldr	r2, [r5, #20]
    507c:	9b05      	ldr	r3, [sp, #20]
    507e:	4694      	mov	ip, r2
    5080:	4463      	add	r3, ip
    5082:	616b      	str	r3, [r5, #20]
    5084:	783b      	ldrb	r3, [r7, #0]
    5086:	2b00      	cmp	r3, #0
    5088:	d100      	bne.n	508c <_vfiprintf_r+0xc8>
    508a:	e0ac      	b.n	51e6 <_vfiprintf_r+0x222>
    508c:	2201      	movs	r2, #1
    508e:	1c7b      	adds	r3, r7, #1
    5090:	9303      	str	r3, [sp, #12]
    5092:	2300      	movs	r3, #0
    5094:	4252      	negs	r2, r2
    5096:	606a      	str	r2, [r5, #4]
    5098:	a904      	add	r1, sp, #16
    509a:	3254      	adds	r2, #84	; 0x54
    509c:	1852      	adds	r2, r2, r1
    509e:	602b      	str	r3, [r5, #0]
    50a0:	60eb      	str	r3, [r5, #12]
    50a2:	60ab      	str	r3, [r5, #8]
    50a4:	7013      	strb	r3, [r2, #0]
    50a6:	65ab      	str	r3, [r5, #88]	; 0x58
    50a8:	9b03      	ldr	r3, [sp, #12]
    50aa:	2205      	movs	r2, #5
    50ac:	7819      	ldrb	r1, [r3, #0]
    50ae:	485d      	ldr	r0, [pc, #372]	; (5224 <_vfiprintf_r+0x260>)
    50b0:	f000 f96c 	bl	538c <memchr>
    50b4:	9b03      	ldr	r3, [sp, #12]
    50b6:	1c5f      	adds	r7, r3, #1
    50b8:	2800      	cmp	r0, #0
    50ba:	d120      	bne.n	50fe <_vfiprintf_r+0x13a>
    50bc:	682a      	ldr	r2, [r5, #0]
    50be:	06d3      	lsls	r3, r2, #27
    50c0:	d504      	bpl.n	50cc <_vfiprintf_r+0x108>
    50c2:	2353      	movs	r3, #83	; 0x53
    50c4:	a904      	add	r1, sp, #16
    50c6:	185b      	adds	r3, r3, r1
    50c8:	2120      	movs	r1, #32
    50ca:	7019      	strb	r1, [r3, #0]
    50cc:	0713      	lsls	r3, r2, #28
    50ce:	d504      	bpl.n	50da <_vfiprintf_r+0x116>
    50d0:	2353      	movs	r3, #83	; 0x53
    50d2:	a904      	add	r1, sp, #16
    50d4:	185b      	adds	r3, r3, r1
    50d6:	212b      	movs	r1, #43	; 0x2b
    50d8:	7019      	strb	r1, [r3, #0]
    50da:	9b03      	ldr	r3, [sp, #12]
    50dc:	781b      	ldrb	r3, [r3, #0]
    50de:	2b2a      	cmp	r3, #42	; 0x2a
    50e0:	d016      	beq.n	5110 <_vfiprintf_r+0x14c>
    50e2:	2100      	movs	r1, #0
    50e4:	68eb      	ldr	r3, [r5, #12]
    50e6:	9f03      	ldr	r7, [sp, #12]
    50e8:	783a      	ldrb	r2, [r7, #0]
    50ea:	1c78      	adds	r0, r7, #1
    50ec:	3a30      	subs	r2, #48	; 0x30
    50ee:	4684      	mov	ip, r0
    50f0:	2a09      	cmp	r2, #9
    50f2:	d94f      	bls.n	5194 <_vfiprintf_r+0x1d0>
    50f4:	2900      	cmp	r1, #0
    50f6:	d111      	bne.n	511c <_vfiprintf_r+0x158>
    50f8:	e017      	b.n	512a <_vfiprintf_r+0x166>
    50fa:	3701      	adds	r7, #1
    50fc:	e7a9      	b.n	5052 <_vfiprintf_r+0x8e>
    50fe:	4b49      	ldr	r3, [pc, #292]	; (5224 <_vfiprintf_r+0x260>)
    5100:	682a      	ldr	r2, [r5, #0]
    5102:	1ac0      	subs	r0, r0, r3
    5104:	2301      	movs	r3, #1
    5106:	4083      	lsls	r3, r0
    5108:	4313      	orrs	r3, r2
    510a:	602b      	str	r3, [r5, #0]
    510c:	9703      	str	r7, [sp, #12]
    510e:	e7cb      	b.n	50a8 <_vfiprintf_r+0xe4>
    5110:	9b07      	ldr	r3, [sp, #28]
    5112:	1d19      	adds	r1, r3, #4
    5114:	681b      	ldr	r3, [r3, #0]
    5116:	9107      	str	r1, [sp, #28]
    5118:	2b00      	cmp	r3, #0
    511a:	db01      	blt.n	5120 <_vfiprintf_r+0x15c>
    511c:	930b      	str	r3, [sp, #44]	; 0x2c
    511e:	e004      	b.n	512a <_vfiprintf_r+0x166>
    5120:	425b      	negs	r3, r3
    5122:	60eb      	str	r3, [r5, #12]
    5124:	2302      	movs	r3, #2
    5126:	4313      	orrs	r3, r2
    5128:	602b      	str	r3, [r5, #0]
    512a:	783b      	ldrb	r3, [r7, #0]
    512c:	2b2e      	cmp	r3, #46	; 0x2e
    512e:	d10a      	bne.n	5146 <_vfiprintf_r+0x182>
    5130:	787b      	ldrb	r3, [r7, #1]
    5132:	2b2a      	cmp	r3, #42	; 0x2a
    5134:	d137      	bne.n	51a6 <_vfiprintf_r+0x1e2>
    5136:	9b07      	ldr	r3, [sp, #28]
    5138:	3702      	adds	r7, #2
    513a:	1d1a      	adds	r2, r3, #4
    513c:	681b      	ldr	r3, [r3, #0]
    513e:	9207      	str	r2, [sp, #28]
    5140:	2b00      	cmp	r3, #0
    5142:	db2d      	blt.n	51a0 <_vfiprintf_r+0x1dc>
    5144:	9309      	str	r3, [sp, #36]	; 0x24
    5146:	2203      	movs	r2, #3
    5148:	7839      	ldrb	r1, [r7, #0]
    514a:	4837      	ldr	r0, [pc, #220]	; (5228 <_vfiprintf_r+0x264>)
    514c:	f000 f91e 	bl	538c <memchr>
    5150:	2800      	cmp	r0, #0
    5152:	d007      	beq.n	5164 <_vfiprintf_r+0x1a0>
    5154:	4b34      	ldr	r3, [pc, #208]	; (5228 <_vfiprintf_r+0x264>)
    5156:	682a      	ldr	r2, [r5, #0]
    5158:	1ac0      	subs	r0, r0, r3
    515a:	2340      	movs	r3, #64	; 0x40
    515c:	4083      	lsls	r3, r0
    515e:	4313      	orrs	r3, r2
    5160:	3701      	adds	r7, #1
    5162:	602b      	str	r3, [r5, #0]
    5164:	7839      	ldrb	r1, [r7, #0]
    5166:	1c7b      	adds	r3, r7, #1
    5168:	2206      	movs	r2, #6
    516a:	4830      	ldr	r0, [pc, #192]	; (522c <_vfiprintf_r+0x268>)
    516c:	9303      	str	r3, [sp, #12]
    516e:	7629      	strb	r1, [r5, #24]
    5170:	f000 f90c 	bl	538c <memchr>
    5174:	2800      	cmp	r0, #0
    5176:	d045      	beq.n	5204 <_vfiprintf_r+0x240>
    5178:	4b2d      	ldr	r3, [pc, #180]	; (5230 <_vfiprintf_r+0x26c>)
    517a:	2b00      	cmp	r3, #0
    517c:	d127      	bne.n	51ce <_vfiprintf_r+0x20a>
    517e:	2207      	movs	r2, #7
    5180:	9b07      	ldr	r3, [sp, #28]
    5182:	3307      	adds	r3, #7
    5184:	4393      	bics	r3, r2
    5186:	3308      	adds	r3, #8
    5188:	9307      	str	r3, [sp, #28]
    518a:	696b      	ldr	r3, [r5, #20]
    518c:	9a04      	ldr	r2, [sp, #16]
    518e:	189b      	adds	r3, r3, r2
    5190:	616b      	str	r3, [r5, #20]
    5192:	e75d      	b.n	5050 <_vfiprintf_r+0x8c>
    5194:	210a      	movs	r1, #10
    5196:	434b      	muls	r3, r1
    5198:	4667      	mov	r7, ip
    519a:	189b      	adds	r3, r3, r2
    519c:	3909      	subs	r1, #9
    519e:	e7a3      	b.n	50e8 <_vfiprintf_r+0x124>
    51a0:	2301      	movs	r3, #1
    51a2:	425b      	negs	r3, r3
    51a4:	e7ce      	b.n	5144 <_vfiprintf_r+0x180>
    51a6:	2300      	movs	r3, #0
    51a8:	001a      	movs	r2, r3
    51aa:	3701      	adds	r7, #1
    51ac:	606b      	str	r3, [r5, #4]
    51ae:	7839      	ldrb	r1, [r7, #0]
    51b0:	1c78      	adds	r0, r7, #1
    51b2:	3930      	subs	r1, #48	; 0x30
    51b4:	4684      	mov	ip, r0
    51b6:	2909      	cmp	r1, #9
    51b8:	d903      	bls.n	51c2 <_vfiprintf_r+0x1fe>
    51ba:	2b00      	cmp	r3, #0
    51bc:	d0c3      	beq.n	5146 <_vfiprintf_r+0x182>
    51be:	9209      	str	r2, [sp, #36]	; 0x24
    51c0:	e7c1      	b.n	5146 <_vfiprintf_r+0x182>
    51c2:	230a      	movs	r3, #10
    51c4:	435a      	muls	r2, r3
    51c6:	4667      	mov	r7, ip
    51c8:	1852      	adds	r2, r2, r1
    51ca:	3b09      	subs	r3, #9
    51cc:	e7ef      	b.n	51ae <_vfiprintf_r+0x1ea>
    51ce:	ab07      	add	r3, sp, #28
    51d0:	9300      	str	r3, [sp, #0]
    51d2:	0022      	movs	r2, r4
    51d4:	0029      	movs	r1, r5
    51d6:	0030      	movs	r0, r6
    51d8:	4b16      	ldr	r3, [pc, #88]	; (5234 <_vfiprintf_r+0x270>)
    51da:	e000      	b.n	51de <_vfiprintf_r+0x21a>
    51dc:	bf00      	nop
    51de:	9004      	str	r0, [sp, #16]
    51e0:	9b04      	ldr	r3, [sp, #16]
    51e2:	3301      	adds	r3, #1
    51e4:	d1d1      	bne.n	518a <_vfiprintf_r+0x1c6>
    51e6:	6e63      	ldr	r3, [r4, #100]	; 0x64
    51e8:	07db      	lsls	r3, r3, #31
    51ea:	d405      	bmi.n	51f8 <_vfiprintf_r+0x234>
    51ec:	89a3      	ldrh	r3, [r4, #12]
    51ee:	059b      	lsls	r3, r3, #22
    51f0:	d402      	bmi.n	51f8 <_vfiprintf_r+0x234>
    51f2:	6da0      	ldr	r0, [r4, #88]	; 0x58
    51f4:	f7ff fb5c 	bl	48b0 <__retarget_lock_release_recursive>
    51f8:	89a3      	ldrh	r3, [r4, #12]
    51fa:	065b      	lsls	r3, r3, #25
    51fc:	d500      	bpl.n	5200 <_vfiprintf_r+0x23c>
    51fe:	e70a      	b.n	5016 <_vfiprintf_r+0x52>
    5200:	980d      	ldr	r0, [sp, #52]	; 0x34
    5202:	e70a      	b.n	501a <_vfiprintf_r+0x56>
    5204:	ab07      	add	r3, sp, #28
    5206:	9300      	str	r3, [sp, #0]
    5208:	0022      	movs	r2, r4
    520a:	0029      	movs	r1, r5
    520c:	0030      	movs	r0, r6
    520e:	4b09      	ldr	r3, [pc, #36]	; (5234 <_vfiprintf_r+0x270>)
    5210:	f7ff fd9e 	bl	4d50 <_printf_i>
    5214:	e7e3      	b.n	51de <_vfiprintf_r+0x21a>
    5216:	46c0      	nop			; (mov r8, r8)
    5218:	000064e8 	.word	0x000064e8
    521c:	00006508 	.word	0x00006508
    5220:	000064c8 	.word	0x000064c8
    5224:	00006528 	.word	0x00006528
    5228:	0000652e 	.word	0x0000652e
    522c:	00006532 	.word	0x00006532
    5230:	00000000 	.word	0x00000000
    5234:	00004f9f 	.word	0x00004f9f

00005238 <__sread>:
__sread():
    5238:	b570      	push	{r4, r5, r6, lr}
    523a:	000c      	movs	r4, r1
    523c:	250e      	movs	r5, #14
    523e:	5f49      	ldrsh	r1, [r1, r5]
    5240:	f000 f8de 	bl	5400 <_read_r>
    5244:	2800      	cmp	r0, #0
    5246:	db03      	blt.n	5250 <__sread+0x18>
    5248:	6d63      	ldr	r3, [r4, #84]	; 0x54
    524a:	181b      	adds	r3, r3, r0
    524c:	6563      	str	r3, [r4, #84]	; 0x54
    524e:	bd70      	pop	{r4, r5, r6, pc}
    5250:	89a3      	ldrh	r3, [r4, #12]
    5252:	4a02      	ldr	r2, [pc, #8]	; (525c <__sread+0x24>)
    5254:	4013      	ands	r3, r2
    5256:	81a3      	strh	r3, [r4, #12]
    5258:	e7f9      	b.n	524e <__sread+0x16>
    525a:	46c0      	nop			; (mov r8, r8)
    525c:	ffffefff 	.word	0xffffefff

00005260 <__swrite>:
__swrite():
    5260:	b5f8      	push	{r3, r4, r5, r6, r7, lr}
    5262:	001f      	movs	r7, r3
    5264:	898b      	ldrh	r3, [r1, #12]
    5266:	0005      	movs	r5, r0
    5268:	000c      	movs	r4, r1
    526a:	0016      	movs	r6, r2
    526c:	05db      	lsls	r3, r3, #23
    526e:	d505      	bpl.n	527c <__swrite+0x1c>
    5270:	230e      	movs	r3, #14
    5272:	5ec9      	ldrsh	r1, [r1, r3]
    5274:	2200      	movs	r2, #0
    5276:	2302      	movs	r3, #2
    5278:	f000 f874 	bl	5364 <_lseek_r>
    527c:	89a3      	ldrh	r3, [r4, #12]
    527e:	4a05      	ldr	r2, [pc, #20]	; (5294 <__swrite+0x34>)
    5280:	0028      	movs	r0, r5
    5282:	4013      	ands	r3, r2
    5284:	81a3      	strh	r3, [r4, #12]
    5286:	0032      	movs	r2, r6
    5288:	230e      	movs	r3, #14
    528a:	5ee1      	ldrsh	r1, [r4, r3]
    528c:	003b      	movs	r3, r7
    528e:	f000 f81f 	bl	52d0 <_write_r>
    5292:	bdf8      	pop	{r3, r4, r5, r6, r7, pc}
    5294:	ffffefff 	.word	0xffffefff

00005298 <__sseek>:
__sseek():
    5298:	b570      	push	{r4, r5, r6, lr}
    529a:	000c      	movs	r4, r1
    529c:	250e      	movs	r5, #14
    529e:	5f49      	ldrsh	r1, [r1, r5]
    52a0:	f000 f860 	bl	5364 <_lseek_r>
    52a4:	89a3      	ldrh	r3, [r4, #12]
    52a6:	1c42      	adds	r2, r0, #1
    52a8:	d103      	bne.n	52b2 <__sseek+0x1a>
    52aa:	4a05      	ldr	r2, [pc, #20]	; (52c0 <__sseek+0x28>)
    52ac:	4013      	ands	r3, r2
    52ae:	81a3      	strh	r3, [r4, #12]
    52b0:	bd70      	pop	{r4, r5, r6, pc}
    52b2:	2280      	movs	r2, #128	; 0x80
    52b4:	0152      	lsls	r2, r2, #5
    52b6:	4313      	orrs	r3, r2
    52b8:	81a3      	strh	r3, [r4, #12]
    52ba:	6560      	str	r0, [r4, #84]	; 0x54
    52bc:	e7f8      	b.n	52b0 <__sseek+0x18>
    52be:	46c0      	nop			; (mov r8, r8)
    52c0:	ffffefff 	.word	0xffffefff

000052c4 <__sclose>:
__sclose():
    52c4:	b510      	push	{r4, lr}
    52c6:	230e      	movs	r3, #14
    52c8:	5ec9      	ldrsh	r1, [r1, r3]
    52ca:	f000 f815 	bl	52f8 <_close_r>
    52ce:	bd10      	pop	{r4, pc}

000052d0 <_write_r>:
_write_r():
    52d0:	b570      	push	{r4, r5, r6, lr}
    52d2:	0004      	movs	r4, r0
    52d4:	0008      	movs	r0, r1
    52d6:	0011      	movs	r1, r2
    52d8:	001a      	movs	r2, r3
    52da:	2300      	movs	r3, #0
    52dc:	4d05      	ldr	r5, [pc, #20]	; (52f4 <_write_r+0x24>)
    52de:	602b      	str	r3, [r5, #0]
    52e0:	f000 f8e0 	bl	54a4 <_write>
    52e4:	1c43      	adds	r3, r0, #1
    52e6:	d103      	bne.n	52f0 <_write_r+0x20>
    52e8:	682b      	ldr	r3, [r5, #0]
    52ea:	2b00      	cmp	r3, #0
    52ec:	d000      	beq.n	52f0 <_write_r+0x20>
    52ee:	6023      	str	r3, [r4, #0]
    52f0:	bd70      	pop	{r4, r5, r6, pc}
    52f2:	46c0      	nop			; (mov r8, r8)
    52f4:	20000378 	.word	0x20000378

000052f8 <_close_r>:
_close_r():
    52f8:	2300      	movs	r3, #0
    52fa:	b570      	push	{r4, r5, r6, lr}
    52fc:	4d06      	ldr	r5, [pc, #24]	; (5318 <_close_r+0x20>)
    52fe:	0004      	movs	r4, r0
    5300:	0008      	movs	r0, r1
    5302:	602b      	str	r3, [r5, #0]
    5304:	f000 f898 	bl	5438 <_close>
    5308:	1c43      	adds	r3, r0, #1
    530a:	d103      	bne.n	5314 <_close_r+0x1c>
    530c:	682b      	ldr	r3, [r5, #0]
    530e:	2b00      	cmp	r3, #0
    5310:	d000      	beq.n	5314 <_close_r+0x1c>
    5312:	6023      	str	r3, [r4, #0]
    5314:	bd70      	pop	{r4, r5, r6, pc}
    5316:	46c0      	nop			; (mov r8, r8)
    5318:	20000378 	.word	0x20000378

0000531c <_fstat_r>:
_fstat_r():
    531c:	2300      	movs	r3, #0
    531e:	b570      	push	{r4, r5, r6, lr}
    5320:	4d06      	ldr	r5, [pc, #24]	; (533c <_fstat_r+0x20>)
    5322:	0004      	movs	r4, r0
    5324:	0008      	movs	r0, r1
    5326:	0011      	movs	r1, r2
    5328:	602b      	str	r3, [r5, #0]
    532a:	f000 f88d 	bl	5448 <_fstat>
    532e:	1c43      	adds	r3, r0, #1
    5330:	d103      	bne.n	533a <_fstat_r+0x1e>
    5332:	682b      	ldr	r3, [r5, #0]
    5334:	2b00      	cmp	r3, #0
    5336:	d000      	beq.n	533a <_fstat_r+0x1e>
    5338:	6023      	str	r3, [r4, #0]
    533a:	bd70      	pop	{r4, r5, r6, pc}
    533c:	20000378 	.word	0x20000378

00005340 <_isatty_r>:
_isatty_r():
    5340:	2300      	movs	r3, #0
    5342:	b570      	push	{r4, r5, r6, lr}
    5344:	4d06      	ldr	r5, [pc, #24]	; (5360 <_isatty_r+0x20>)
    5346:	0004      	movs	r4, r0
    5348:	0008      	movs	r0, r1
    534a:	602b      	str	r3, [r5, #0]
    534c:	f000 f884 	bl	5458 <_isatty>
    5350:	1c43      	adds	r3, r0, #1
    5352:	d103      	bne.n	535c <_isatty_r+0x1c>
    5354:	682b      	ldr	r3, [r5, #0]
    5356:	2b00      	cmp	r3, #0
    5358:	d000      	beq.n	535c <_isatty_r+0x1c>
    535a:	6023      	str	r3, [r4, #0]
    535c:	bd70      	pop	{r4, r5, r6, pc}
    535e:	46c0      	nop			; (mov r8, r8)
    5360:	20000378 	.word	0x20000378

00005364 <_lseek_r>:
_lseek_r():
    5364:	b570      	push	{r4, r5, r6, lr}
    5366:	0004      	movs	r4, r0
    5368:	0008      	movs	r0, r1
    536a:	0011      	movs	r1, r2
    536c:	001a      	movs	r2, r3
    536e:	2300      	movs	r3, #0
    5370:	4d05      	ldr	r5, [pc, #20]	; (5388 <_lseek_r+0x24>)
    5372:	602b      	str	r3, [r5, #0]
    5374:	f000 f878 	bl	5468 <_lseek>
    5378:	1c43      	adds	r3, r0, #1
    537a:	d103      	bne.n	5384 <_lseek_r+0x20>
    537c:	682b      	ldr	r3, [r5, #0]
    537e:	2b00      	cmp	r3, #0
    5380:	d000      	beq.n	5384 <_lseek_r+0x20>
    5382:	6023      	str	r3, [r4, #0]
    5384:	bd70      	pop	{r4, r5, r6, pc}
    5386:	46c0      	nop			; (mov r8, r8)
    5388:	20000378 	.word	0x20000378

0000538c <memchr>:
memchr():
    538c:	b2c9      	uxtb	r1, r1
    538e:	1882      	adds	r2, r0, r2
    5390:	4290      	cmp	r0, r2
    5392:	d101      	bne.n	5398 <memchr+0xc>
    5394:	2000      	movs	r0, #0
    5396:	4770      	bx	lr
    5398:	7803      	ldrb	r3, [r0, #0]
    539a:	428b      	cmp	r3, r1
    539c:	d0fb      	beq.n	5396 <memchr+0xa>
    539e:	3001      	adds	r0, #1
    53a0:	e7f6      	b.n	5390 <memchr+0x4>

000053a2 <_realloc_r>:
_realloc_r():
    53a2:	b5f7      	push	{r0, r1, r2, r4, r5, r6, r7, lr}
    53a4:	0007      	movs	r7, r0
    53a6:	000e      	movs	r6, r1
    53a8:	0014      	movs	r4, r2
    53aa:	2900      	cmp	r1, #0
    53ac:	d105      	bne.n	53ba <_realloc_r+0x18>
    53ae:	0011      	movs	r1, r2
    53b0:	f7fe ff1e 	bl	41f0 <_malloc_r>
    53b4:	0005      	movs	r5, r0
    53b6:	0028      	movs	r0, r5
    53b8:	bdfe      	pop	{r1, r2, r3, r4, r5, r6, r7, pc}
    53ba:	2a00      	cmp	r2, #0
    53bc:	d103      	bne.n	53c6 <_realloc_r+0x24>
    53be:	f7fe feab 	bl	4118 <_free_r>
    53c2:	0025      	movs	r5, r4
    53c4:	e7f7      	b.n	53b6 <_realloc_r+0x14>
    53c6:	f000 f82f 	bl	5428 <_malloc_usable_size_r>
    53ca:	9001      	str	r0, [sp, #4]
    53cc:	4284      	cmp	r4, r0
    53ce:	d803      	bhi.n	53d8 <_realloc_r+0x36>
    53d0:	0035      	movs	r5, r6
    53d2:	0843      	lsrs	r3, r0, #1
    53d4:	42a3      	cmp	r3, r4
    53d6:	d3ee      	bcc.n	53b6 <_realloc_r+0x14>
    53d8:	0021      	movs	r1, r4
    53da:	0038      	movs	r0, r7
    53dc:	f7fe ff08 	bl	41f0 <_malloc_r>
    53e0:	1e05      	subs	r5, r0, #0
    53e2:	d0e8      	beq.n	53b6 <_realloc_r+0x14>
    53e4:	9b01      	ldr	r3, [sp, #4]
    53e6:	0022      	movs	r2, r4
    53e8:	429c      	cmp	r4, r3
    53ea:	d900      	bls.n	53ee <_realloc_r+0x4c>
    53ec:	001a      	movs	r2, r3
    53ee:	0031      	movs	r1, r6
    53f0:	0028      	movs	r0, r5
    53f2:	f7fe fe75 	bl	40e0 <memcpy>
    53f6:	0031      	movs	r1, r6
    53f8:	0038      	movs	r0, r7
    53fa:	f7fe fe8d 	bl	4118 <_free_r>
    53fe:	e7da      	b.n	53b6 <_realloc_r+0x14>

00005400 <_read_r>:
_read_r():
    5400:	b570      	push	{r4, r5, r6, lr}
    5402:	0004      	movs	r4, r0
    5404:	0008      	movs	r0, r1
    5406:	0011      	movs	r1, r2
    5408:	001a      	movs	r2, r3
    540a:	2300      	movs	r3, #0
    540c:	4d05      	ldr	r5, [pc, #20]	; (5424 <_read_r+0x24>)
    540e:	602b      	str	r3, [r5, #0]
    5410:	f000 f832 	bl	5478 <_read>
    5414:	1c43      	adds	r3, r0, #1
    5416:	d103      	bne.n	5420 <_read_r+0x20>
    5418:	682b      	ldr	r3, [r5, #0]
    541a:	2b00      	cmp	r3, #0
    541c:	d000      	beq.n	5420 <_read_r+0x20>
    541e:	6023      	str	r3, [r4, #0]
    5420:	bd70      	pop	{r4, r5, r6, pc}
    5422:	46c0      	nop			; (mov r8, r8)
    5424:	20000378 	.word	0x20000378

00005428 <_malloc_usable_size_r>:
_malloc_usable_size_r():
    5428:	1f0b      	subs	r3, r1, #4
    542a:	681b      	ldr	r3, [r3, #0]
    542c:	1f18      	subs	r0, r3, #4
    542e:	2b00      	cmp	r3, #0
    5430:	da01      	bge.n	5436 <_malloc_usable_size_r+0xe>
    5432:	580b      	ldr	r3, [r1, r0]
    5434:	18c0      	adds	r0, r0, r3
    5436:	4770      	bx	lr

00005438 <_close>:
_close():
    5438:	2258      	movs	r2, #88	; 0x58
    543a:	2001      	movs	r0, #1
    543c:	4b01      	ldr	r3, [pc, #4]	; (5444 <_close+0xc>)
    543e:	4240      	negs	r0, r0
    5440:	601a      	str	r2, [r3, #0]
    5442:	4770      	bx	lr
    5444:	20000378 	.word	0x20000378

00005448 <_fstat>:
_fstat():
    5448:	2258      	movs	r2, #88	; 0x58
    544a:	2001      	movs	r0, #1
    544c:	4b01      	ldr	r3, [pc, #4]	; (5454 <_fstat+0xc>)
    544e:	4240      	negs	r0, r0
    5450:	601a      	str	r2, [r3, #0]
    5452:	4770      	bx	lr
    5454:	20000378 	.word	0x20000378

00005458 <_isatty>:
_isatty():
    5458:	2258      	movs	r2, #88	; 0x58
    545a:	4b02      	ldr	r3, [pc, #8]	; (5464 <_isatty+0xc>)
    545c:	2000      	movs	r0, #0
    545e:	601a      	str	r2, [r3, #0]
    5460:	4770      	bx	lr
    5462:	46c0      	nop			; (mov r8, r8)
    5464:	20000378 	.word	0x20000378

00005468 <_lseek>:
_lseek():
    5468:	2258      	movs	r2, #88	; 0x58
    546a:	2001      	movs	r0, #1
    546c:	4b01      	ldr	r3, [pc, #4]	; (5474 <_lseek+0xc>)
    546e:	4240      	negs	r0, r0
    5470:	601a      	str	r2, [r3, #0]
    5472:	4770      	bx	lr
    5474:	20000378 	.word	0x20000378

00005478 <_read>:
_read():
    5478:	2258      	movs	r2, #88	; 0x58
    547a:	2001      	movs	r0, #1
    547c:	4b01      	ldr	r3, [pc, #4]	; (5484 <_read+0xc>)
    547e:	4240      	negs	r0, r0
    5480:	601a      	str	r2, [r3, #0]
    5482:	4770      	bx	lr
    5484:	20000378 	.word	0x20000378

00005488 <_sbrk>:
_sbrk():
    5488:	4a04      	ldr	r2, [pc, #16]	; (549c <_sbrk+0x14>)
    548a:	0003      	movs	r3, r0
    548c:	6810      	ldr	r0, [r2, #0]
    548e:	2800      	cmp	r0, #0
    5490:	d002      	beq.n	5498 <_sbrk+0x10>
    5492:	18c3      	adds	r3, r0, r3
    5494:	6013      	str	r3, [r2, #0]
    5496:	4770      	bx	lr
    5498:	4801      	ldr	r0, [pc, #4]	; (54a0 <_sbrk+0x18>)
    549a:	e7fa      	b.n	5492 <_sbrk+0xa>
    549c:	2000037c 	.word	0x2000037c
    54a0:	20000380 	.word	0x20000380

000054a4 <_write>:
_write():
    54a4:	2258      	movs	r2, #88	; 0x58
    54a6:	2001      	movs	r0, #1
    54a8:	4b01      	ldr	r3, [pc, #4]	; (54b0 <_write+0xc>)
    54aa:	4240      	negs	r0, r0
    54ac:	601a      	str	r2, [r3, #0]
    54ae:	4770      	bx	lr
    54b0:	20000378 	.word	0x20000378
    54b4:	0001c200 	.word	0x0001c200
    54b8:	01000000 	.word	0x01000000
    54bc:	00000001 	.word	0x00000001
    54c0:	00000100 	.word	0x00000100
    54c4:	00000200 	.word	0x00000200
    54c8:	00000009 	.word	0x00000009
    54cc:	00000000 	.word	0x00000000
    54d0:	09010ea3 	.word	0x09010ea3
    54d4:	bfdbc68b 	.word	0xbfdbc68b
    54d8:	3a0f6945 	.word	0x3a0f6945
    54dc:	0f6d9e7e 	.word	0x0f6d9e7e
    54e0:	a3a2be8b 	.word	0xa3a2be8b
    54e4:	0048619e 	.word	0x0048619e
    54e8:	445ed08f 	.word	0x445ed08f
    54ec:	00000000 	.word	0x00000000
    54f0:	46c1dc5b 	.word	0x46c1dc5b
    54f4:	4e7560bf 	.word	0x4e7560bf
    54f8:	2624046a 	.word	0x2624046a
    54fc:	c7759508 	.word	0xc7759508
    5500:	083f005a 	.word	0x083f005a
    5504:	8339279d 	.word	0x8339279d
    5508:	b958ec9d 	.word	0xb958ec9d
    550c:	4338ec64 	.word	0x4338ec64
    5510:	00000000 	.word	0x00000000
    5514:	1de449f1 	.word	0x1de449f1
    5518:	27598f84 	.word	0x27598f84
    551c:	74ddfd6c 	.word	0x74ddfd6c
    5520:	a9a9af3b 	.word	0xa9a9af3b
    5524:	a2e41e0e 	.word	0xa2e41e0e
    5528:	1418a163 	.word	0x1418a163
    552c:	70e3332b 	.word	0x70e3332b
    5530:	0aef7621 	.word	0x0aef7621
    5534:	7a23f859 	.word	0x7a23f859
    5538:	421bb51c 	.word	0x421bb51c
    553c:	b2d6def3 	.word	0xb2d6def3
    5540:	09afd902 	.word	0x09afd902
    5544:	dd8f8997 	.word	0xdd8f8997
    5548:	bd60cf03 	.word	0xbd60cf03
    554c:	14c551a9 	.word	0x14c551a9
    5550:	50087a54 	.word	0x50087a54
    5554:	4454c2ce 	.word	0x4454c2ce
    5558:	cb242fae 	.word	0xcb242fae
    555c:	affb1b71 	.word	0xaffb1b71
    5560:	c95639cc 	.word	0xc95639cc
    5564:	69ded341 	.word	0x69ded341
    5568:	f8e355f1 	.word	0xf8e355f1
    556c:	db060fb1 	.word	0xdb060fb1
    5570:	9b35375f 	.word	0x9b35375f
    5574:	43dd2d77 	.word	0x43dd2d77
    5578:	0a5a03e1 	.word	0x0a5a03e1
    557c:	32b33d0d 	.word	0x32b33d0d
    5580:	3084d542 	.word	0x3084d542
    5584:	0d3b8333 	.word	0x0d3b8333
    5588:	0c873bd4 	.word	0x0c873bd4
    558c:	8d0ef66b 	.word	0x8d0ef66b
    5590:	315fb5ea 	.word	0x315fb5ea
    5594:	3f27c37c 	.word	0x3f27c37c
    5598:	47a73b5e 	.word	0x47a73b5e
    559c:	0565cbf0 	.word	0x0565cbf0
    55a0:	8722b70c 	.word	0x8722b70c
    55a4:	920d2196 	.word	0x920d2196
    55a8:	43368754 	.word	0x43368754
    55ac:	f2458d00 	.word	0xf2458d00
    55b0:	5b6cfd9c 	.word	0x5b6cfd9c
    55b4:	009a0c06 	.word	0x009a0c06
    55b8:	25011145 	.word	0x25011145
    55bc:	66f2c60e 	.word	0x66f2c60e
    55c0:	599d2452 	.word	0x599d2452
    55c4:	734b97dc 	.word	0x734b97dc
    55c8:	a871d561 	.word	0xa871d561
    55cc:	d3df1c10 	.word	0xd3df1c10
    55d0:	583bba6a 	.word	0x583bba6a
    55d4:	08aed354 	.word	0x08aed354
    55d8:	45dd5f6b 	.word	0x45dd5f6b
    55dc:	661b7297 	.word	0x661b7297
    55e0:	5ddcc0e3 	.word	0x5ddcc0e3
    55e4:	966d608c 	.word	0x966d608c
    55e8:	23e3d057 	.word	0x23e3d057
    55ec:	17523a28 	.word	0x17523a28
    55f0:	2f3ff5d1 	.word	0x2f3ff5d1
    55f4:	b8574f28 	.word	0xb8574f28
    55f8:	ac618a5c 	.word	0xac618a5c
    55fc:	1f712489 	.word	0x1f712489
    5600:	d95e5c89 	.word	0xd95e5c89
    5604:	4577f10e 	.word	0x4577f10e
    5608:	8a722ded 	.word	0x8a722ded
    560c:	f7a522bd 	.word	0xf7a522bd
    5610:	a47934a1 	.word	0xa47934a1
    5614:	561bd762 	.word	0x561bd762
    5618:	a4749ac1 	.word	0xa4749ac1
    561c:	585c650b 	.word	0x585c650b
    5620:	180afeed 	.word	0x180afeed
    5624:	46cfd28a 	.word	0x46cfd28a
    5628:	2405f3cb 	.word	0x2405f3cb
    562c:	3c425df6 	.word	0x3c425df6
    5630:	ffd17d83 	.word	0xffd17d83
    5634:	ac62f42b 	.word	0xac62f42b
    5638:	73009841 	.word	0x73009841
    563c:	db44bb45 	.word	0xdb44bb45
    5640:	61c8b1b7 	.word	0x61c8b1b7
    5644:	61df8c29 	.word	0x61df8c29
    5648:	3a832a98 	.word	0x3a832a98
    564c:	ae8f72fc 	.word	0xae8f72fc
    5650:	872fda1e 	.word	0x872fda1e
    5654:	80942caa 	.word	0x80942caa
    5658:	00ec8b85 	.word	0x00ec8b85
    565c:	a53a593c 	.word	0xa53a593c
    5660:	aecdfd39 	.word	0xaecdfd39
    5664:	2fdf6c51 	.word	0x2fdf6c51
    5668:	660f0015 	.word	0x660f0015
    566c:	885c1834 	.word	0x885c1834
    5670:	97b305f5 	.word	0x97b305f5
    5674:	b19afb75 	.word	0xb19afb75
    5678:	a20aa137 	.word	0xa20aa137
    567c:	00000000 	.word	0x00000000
    5680:	69a1c662 	.word	0x69a1c662
    5684:	b302beb9 	.word	0xb302beb9
    5688:	a971b4d7 	.word	0xa971b4d7
    568c:	cc0bfc64 	.word	0xcc0bfc64
    5690:	d280b472 	.word	0xd280b472
    5694:	edb2ec6a 	.word	0xedb2ec6a
    5698:	507f0b46 	.word	0x507f0b46
    569c:	f0da6d01 	.word	0xf0da6d01
    56a0:	8721514c 	.word	0x8721514c
    56a4:	dfaaf383 	.word	0xdfaaf383
    56a8:	4da0f5df 	.word	0x4da0f5df
    56ac:	7b0d03ed 	.word	0x7b0d03ed
    56b0:	6b37b73f 	.word	0x6b37b73f
    56b4:	b930ba61 	.word	0xb930ba61
    56b8:	21a92d0e 	.word	0x21a92d0e
    56bc:	400747a4 	.word	0x400747a4
    56c0:	9fb93fd6 	.word	0x9fb93fd6
    56c4:	edc86ca1 	.word	0xedc86ca1
    56c8:	8cafab81 	.word	0x8cafab81
    56cc:	506e01e4 	.word	0x506e01e4
    56d0:	83da81df 	.word	0x83da81df
    56d4:	2c377020 	.word	0x2c377020
    56d8:	9008a824 	.word	0x9008a824
    56dc:	fa263aaa 	.word	0xfa263aaa
    56e0:	b8105767 	.word	0xb8105767
    56e4:	668271fb 	.word	0x668271fb
    56e8:	6f499d24 	.word	0x6f499d24
    56ec:	d0553c31 	.word	0xd0553c31
    56f0:	1f10daba 	.word	0x1f10daba
    56f4:	ccee568f 	.word	0xccee568f
    56f8:	a84543ee 	.word	0xa84543ee
    56fc:	a3608ff9 	.word	0xa3608ff9
    5700:	dacf6266 	.word	0xdacf6266
    5704:	d1004979 	.word	0xd1004979
    5708:	fc14942f 	.word	0xfc14942f
    570c:	85ebfdbd 	.word	0x85ebfdbd
    5710:	49818a38 	.word	0x49818a38
    5714:	247eb496 	.word	0x247eb496
    5718:	6e08c8d5 	.word	0x6e08c8d5
    571c:	c5dc8e7a 	.word	0xc5dc8e7a
    5720:	0d9d293d 	.word	0x0d9d293d
    5724:	b66b3e03 	.word	0xb66b3e03
    5728:	3db8580c 	.word	0x3db8580c
    572c:	f6578b6e 	.word	0xf6578b6e
    5730:	08d658c2 	.word	0x08d658c2
    5734:	b90ed11d 	.word	0xb90ed11d
    5738:	ecf8fd42 	.word	0xecf8fd42
    573c:	e7c37e15 	.word	0xe7c37e15
    5740:	5a237153 	.word	0x5a237153
    5744:	9deb9681 	.word	0x9deb9681
    5748:	3adeb122 	.word	0x3adeb122
    574c:	abc2302d 	.word	0xabc2302d
    5750:	65b70dbe 	.word	0x65b70dbe
    5754:	15c7f60c 	.word	0x15c7f60c
    5758:	29beac9b 	.word	0x29beac9b
    575c:	923ca9b3 	.word	0x923ca9b3
    5760:	00080510 	.word	0x00080510
    5764:	0960054f 	.word	0x0960054f
    5768:	514d6650 	.word	0x514d6650
    576c:	c2eba290 	.word	0xc2eba290
    5770:	89db9e9c 	.word	0x89db9e9c
    5774:	a47900c2 	.word	0xa47900c2
    5778:	3bbce6d3 	.word	0x3bbce6d3
    577c:	345ed727 	.word	0x345ed727
    5780:	023dfae2 	.word	0x023dfae2
    5784:	bd028576 	.word	0xbd028576
    5788:	78007969 	.word	0x78007969
    578c:	cf5f8d59 	.word	0xcf5f8d59
    5790:	bf79673d 	.word	0xbf79673d
    5794:	bb8412ed 	.word	0xbb8412ed
    5798:	fb72ade5 	.word	0xfb72ade5
    579c:	18156045 	.word	0x18156045
    57a0:	d687951d 	.word	0xd687951d
    57a4:	40c964e8 	.word	0x40c964e8
    57a8:	fbaa4e56 	.word	0xfbaa4e56
    57ac:	d4ea2f4f 	.word	0xd4ea2f4f
    57b0:	9ba06e34 	.word	0x9ba06e34
    57b4:	34d97768 	.word	0x34d97768
    57b8:	eb826b0f 	.word	0xeb826b0f
    57bc:	08881515 	.word	0x08881515
    57c0:	a33d2172 	.word	0xa33d2172
    57c4:	bafe88ad 	.word	0xbafe88ad
    57c8:	81134f9f 	.word	0x81134f9f
    57cc:	f9d6717a 	.word	0xf9d6717a
    57d0:	c4171a0a 	.word	0xc4171a0a
    57d4:	38c0153a 	.word	0x38c0153a
    57d8:	b2b588d9 	.word	0xb2b588d9
    57dc:	2dfedf9e 	.word	0x2dfedf9e
    57e0:	1328066a 	.word	0x1328066a
    57e4:	52e8dbce 	.word	0x52e8dbce
    57e8:	b302e3cd 	.word	0xb302e3cd
    57ec:	68693be3 	.word	0x68693be3
    57f0:	e3a8d246 	.word	0xe3a8d246
    57f4:	ef80d66b 	.word	0xef80d66b
    57f8:	f9d36ccc 	.word	0xf9d36ccc
    57fc:	aec1a4e9 	.word	0xaec1a4e9
    5800:	cc10ac8c 	.word	0xcc10ac8c
    5804:	31d14452 	.word	0x31d14452
    5808:	39407167 	.word	0x39407167
    580c:	46ed7691 	.word	0x46ed7691
    5810:	a0190070 	.word	0xa0190070
    5814:	8063a104 	.word	0x8063a104
    5818:	67a47f6f 	.word	0x67a47f6f
    581c:	b4174efc 	.word	0xb4174efc
    5820:	76bd7b61 	.word	0x76bd7b61
    5824:	7fffaa41 	.word	0x7fffaa41
    5828:	ba9663f5 	.word	0xba9663f5
    582c:	bea8088c 	.word	0xbea8088c
    5830:	a2330b10 	.word	0xa2330b10
    5834:	13af5d0b 	.word	0x13af5d0b
    5838:	a5ef2a4a 	.word	0xa5ef2a4a
    583c:	6749c3e1 	.word	0x6749c3e1
    5840:	baf6dc70 	.word	0xbaf6dc70
    5844:	00bbf7a4 	.word	0x00bbf7a4
    5848:	61ae2596 	.word	0x61ae2596
    584c:	fd33a68e 	.word	0xfd33a68e
    5850:	0cb2e57a 	.word	0x0cb2e57a
    5854:	1f6bfdea 	.word	0x1f6bfdea
    5858:	aaa6b13a 	.word	0xaaa6b13a
    585c:	66edad20 	.word	0x66edad20
    5860:	f3780e81 	.word	0xf3780e81
    5864:	c2e92589 	.word	0xc2e92589
    5868:	323a78fa 	.word	0x323a78fa
    586c:	f9f30ac4 	.word	0xf9f30ac4
    5870:	c6a0ddd7 	.word	0xc6a0ddd7
    5874:	2582b435 	.word	0x2582b435
    5878:	a2851d4b 	.word	0xa2851d4b
    587c:	3172af81 	.word	0x3172af81
    5880:	cd669110 	.word	0xcd669110
    5884:	60833c13 	.word	0x60833c13
    5888:	e3e581e2 	.word	0xe3e581e2
    588c:	c6d7cd9b 	.word	0xc6d7cd9b
    5890:	9247ac01 	.word	0x9247ac01
    5894:	cd788c8a 	.word	0xcd788c8a
    5898:	1ef7c4b3 	.word	0x1ef7c4b3
    589c:	b1d0d497 	.word	0xb1d0d497
    58a0:	dd01eec0 	.word	0xdd01eec0
    58a4:	042fb63d 	.word	0x042fb63d
    58a8:	bb9847f4 	.word	0xbb9847f4
    58ac:	2b49763a 	.word	0x2b49763a
    58b0:	b7915aa1 	.word	0xb7915aa1
    58b4:	e0b50c11 	.word	0xe0b50c11
    58b8:	65e5ab1b 	.word	0x65e5ab1b
    58bc:	ae6fa389 	.word	0xae6fa389
    58c0:	6a332f3a 	.word	0x6a332f3a
    58c4:	78571d2d 	.word	0x78571d2d
    58c8:	033cd2db 	.word	0x033cd2db
    58cc:	f2b08dca 	.word	0xf2b08dca
    58d0:	7f65f05f 	.word	0x7f65f05f
    58d4:	25a1bcf4 	.word	0x25a1bcf4
    58d8:	c038dc2a 	.word	0xc038dc2a
    58dc:	f0b8a580 	.word	0xf0b8a580
    58e0:	bee35c25 	.word	0xbee35c25
    58e4:	8262f80b 	.word	0x8262f80b
    58e8:	04b72a3d 	.word	0x04b72a3d
    58ec:	e1749b72 	.word	0xe1749b72
    58f0:	30aa75e2 	.word	0x30aa75e2
    58f4:	66a52458 	.word	0x66a52458
    58f8:	77d65e89 	.word	0x77d65e89
    58fc:	3e1160a4 	.word	0x3e1160a4
    5900:	1ff97b2a 	.word	0x1ff97b2a
    5904:	ebb8d000 	.word	0xebb8d000
    5908:	03f358c3 	.word	0x03f358c3
    590c:	c1fc275b 	.word	0xc1fc275b
    5910:	134af1d3 	.word	0x134af1d3
    5914:	6927cd67 	.word	0x6927cd67
    5918:	d2a939df 	.word	0xd2a939df
    591c:	61e35e1c 	.word	0x61e35e1c
    5920:	d65c96f1 	.word	0xd65c96f1
    5924:	7ac12c34 	.word	0x7ac12c34
    5928:	00d66314 	.word	0x00d66314
    592c:	593bce00 	.word	0x593bce00
    5930:	651a4e2d 	.word	0x651a4e2d
    5934:	35df80f7 	.word	0x35df80f7
    5938:	c0b2a71f 	.word	0xc0b2a71f
    593c:	4edf491b 	.word	0x4edf491b
    5940:	fac313a9 	.word	0xfac313a9
    5944:	f59742b2 	.word	0xf59742b2
    5948:	e5181b79 	.word	0xe5181b79
    594c:	00000000 	.word	0x00000000

00005950 <_global_impure_ptr>:
    5950:	20000004 61656c50 65206573 7265746e     ... Please enter
    5960:	6c206120 65747465 28702072 73667570      a letter p(pufs
    5970:	726f2029 67286720 296f6970 206f7420     ) or g(gpio) to 
    5980:	72617473 65742074 0a2e7473 00000000     start test......
    5990:	72744328 204a2b6c 74206f74 696d7265     (Ctrl+J to termi
    59a0:	6574616e 706e6920 3a297475 00000020     nate input): ...
    59b0:	74726175 63657220 65766965 72726520     uart receive err
    59c0:	2121726f 0000000a 203e3e3e 00007325     or!!....>>> %s..
    59d0:	00000a70 53465550 53203a20 74726174     p...PUFS : Start
    59e0:	65687420 46555020 65742053 0a207473      the PUFS test .
    59f0:	00000000 53465550 45203a20 7420646e     ....PUFS : End t
    5a00:	50206568 20534655 74736574 000a202e     he PUFS test. ..
    5a10:	00000a67 4f495047 54203a20 206e7275     g...GPIO : Turn 
    5a20:	74206e6f 4c206568 62204445 6b6e696c     on the LED blink
    5a30:	20676e69 0000000a 4f495047 54203a20     ing ....GPIO : T
    5a40:	206e7275 2066666f 20656874 2044454c     urn off the LED 
    5a50:	6e696c62 676e696b 00000a20 66757009     blinking ....puf
    5a60:	68735f73 695f3261 745f6675 20747365     s_sha2_iuf_test 
    5a70:	0a206b6f 00000000 66757009 68735f73     ok ......pufs_sh
    5a80:	745f3261 20747365 0a206b6f 00000000     a2_test ok .....
    5a90:	66757009 6d685f73 735f6361 5f326168     .pufs_hmac_sha2_
    5aa0:	5f667569 74736574 206b6f20 0000000a     iuf_test ok ....
    5ab0:	66757009 6d685f73 735f6361 5f326168     .pufs_hmac_sha2_
    5ac0:	74736574 206b6f20 0000000a 66757009     test ok .....puf
    5ad0:	6d685f73 735f6361 5f326168 656b7773     s_hmac_sha2_swke
    5ae0:	75695f79 65745f66 6f207473 000a206b     y_iuf_test ok ..
    5af0:	66757009 6d685f73 735f6361 5f326168     .pufs_hmac_sha2_
    5b00:	656b7773 65745f79 6f207473 000a206b     swkey_test ok ..
    5b10:	6566654a 00000000 74616877 206f6420     Jefe....what do 
    5b20:	77206179 20746e61 20726f66 68746f6e     ya want for noth
    5b30:	3f676e69 00000000 aaaaaaaa aaaaaaaa     ing?............
    5b40:	aaaaaaaa aaaaaaaa aaaaaaaa aaaaaaaa     ................
    5b50:	aaaaaaaa aaaaaaaa aaaaaaaa aaaaaaaa     ................
    5b60:	aaaaaaaa aaaaaaaa aaaaaaaa aaaaaaaa     ................
    5b70:	aaaaaaaa aaaaaaaa aaaaaaaa aaaaaaaa     ................
    5b80:	aaaaaaaa aaaaaaaa aaaaaaaa aaaaaaaa     ................
    5b90:	aaaaaaaa aaaaaaaa aaaaaaaa aaaaaaaa     ................
    5ba0:	aaaaaaaa aaaaaaaa aaaaaaaa aaaaaaaa     ................
    5bb0:	aaaaaaaa aaaaaaaa 00aaaaaa 73696854     ............This
    5bc0:	20736920 65742061 75207473 676e6973      is a test using
    5bd0:	6c206120 65677261 68742072 62206e61      a larger than b
    5be0:	6b636f6c 7a69732d 656b2065 6e612079     lock-size key an
    5bf0:	20612064 6772616c 74207265 206e6168     d a larger than 
    5c00:	636f6c62 69732d6b 6420657a 2e617461     block-size data.
    5c10:	65685420 79656b20 65656e20 74207364      The key needs t
    5c20:	6562206f 73616820 20646568 6f666562     o be hashed befo
    5c30:	62206572 676e6965 65737520 79622064     re being used by
    5c40:	65687420 414d4820 6c612043 69726f67      the HMAC algori
    5c50:	2e6d6874 00000000 6641853a 029f5dac     thm.....:.Af.]..
    5c60:	17d5543f bd9db3d0 db706794 c9952b9c     ?T.......gp..+..
    5c70:	d165f5f6 00000000 a7ff099b cb2f941b     ..e.........../.
    5c80:	bc5f6327 44e9b0d5 6463dcbf 9313074f     'c_....D..cdO...
    5c90:	53517f8a e2353a5c 00000000 e3d245af     ..QS\:5......E..
    5ca0:	31404876 d2787f61 1b6b8ab5 64f47e9c     vH@1a.x...k..~.d
    5cb0:	471ba0f5 73c32ee4 5e442263 ca40228e     ...G...sc"D^."@.
    5cc0:	c7e2695e ec39328b 4916b2fa 00000000     ^i...29....I....
    5cd0:	8e171766 0d021f94 252f1e35 2cd38f4e     f.......5./%N..,
    5ce0:	fe202460 9afbb8b0 82bbcedc c5991e46     `$ .........F...
    5cf0:	31cc78a6 6d1799e7 11e66038 3e52460c     .x.1...m8`...FR>
    5d00:	00000000 7b7a4b16 e219f8fc e7fb95e3     .....Kz{........
    5d10:	a3e0563b 2264bd87 d61f832e d70c2710     ;V....d".....'..
    5d20:	540525ea 75bf5897 4a995ac0 654f036d     .%.T.X.u.Z.Jm.Oe
    5d30:	fde6f0f8 a3b1eaca 4b6b4a4d 0a076e63     ........MJkKcn..
    5d40:	37e7bc38 00000000 776a7be3 ba7dc85d     8..7.....{jw].}.
    5d50:	f9a9dfa4 fd3f5e6e f871bdde 86897286     ....n^?...q..r..
    5d60:	2da3f55d 44c9cd20 ac2c02b6 b182493c     ]..- ..D..,.<I..
    5d70:	55eb5e0d 15dee4c3 fb764613 6044e06d     .^.U.....Fv.m.D`
    5d80:	4074c965 586a8cfa 00000000              e.t@..jX....

00005d8c <g_hmac_sha2_tp>:
    5d8c:	00000002 00000020 00005b10 0000001c     .... ....[......
    5d9c:	00005b18 000054d0 00000002 00000418     .[...T..........
    5dac:	00005b38 00000098 00005bbc 00005c58     8[.......[..X\..
    5dbc:	00000003 00000020 00005b10 0000001c     .... ....[......
    5dcc:	00005b18 000054f0 00000003 00000418     .[...T..........
    5ddc:	00005b38 00000098 00005bbc 00005c78     8[.......[..x\..
    5dec:	00000004 00000020 00005b10 0000001c     .... ....[......
    5dfc:	00005b18 00005c9c 00000004 00000418     .[...\..........
    5e0c:	00005b38 00000098 00005bbc 00005cd0     8[.......[...\..
    5e1c:	00000005 00000020 00005b10 0000001c     .... ....[......
    5e2c:	00005b18 00005d04 00000005 00000418     .[...]..........
    5e3c:	00005b38 00000098 00005bbc 00005d48     8[.......[..H]..
    5e4c:	8c024ad1 c92b3a2a bb026147 c4348228     .J..*:+.Ga..(.4.
    5e5c:	1fb0a215 2aa68e82 2fe4b3c5 00000000     .......*.../....
    5e6c:	3adcb69d b6d7ab23 382cd7c3 7d3c84f4     ...:#.....,8..<}
    5e7c:	d0718ae4 6ba891ba 5f3e3918 00000000     ..q....k.9>_....
    5e8c:	42c4b0e3 141cfc98 c8f4fb9a 24b96f99     ...B.........o.$
    5e9c:	e441ae27 4c939b64 1b9995a4 55b85278     '.A.d..L....xR.U
    5eac:	00000000 a760b038 3896ac51 7e32d94c     ....8.`.Q..8L.2~
    5ebc:	6ae3b1b1 11b7fd21 4307be14 bfc70c4c     ...j!......CL...
    5ecc:	dae1f663 bfde4e27 fb656fe7 f1d21ad5     c...'N...oe.....
    5edc:	5bb99848 00000000 84e13007 755579e7     H..[.....0...yUu
    5eec:	03879f56 8ebb6002 0e8e4954 186b095d     V....`..TI..].k.
    5efc:	8d985e28 346f5b24 44f2d186 bc855f7d     (^..$[o4...D}_..
    5f0c:	68d559be 2594c49f 00000000 35e183cf     .Y.h...%.......5
    5f1c:	bdb8ef7e 502854f1 07806dd6 05e420d6     ~....T(P.m... ..
    5f2c:	dc15570b 21a9f483 cee96cd3 3cd1d047     .W.....!.l..G..<
    5f3c:	b0f2855d d21883ff 2fec7e87 bd31b963     ]........~./c.1.
    5f4c:	817a4147 7a3238a5 3eda27f9 00000000     GAz..82z.'.>....
    5f5c:	0c49dba9 25c78c70 3586d748 9ba77daa     ..I.p..%H..5.}..
    5f6c:	45f953b2 cbe510d7 4e477a67 a2657cfc     .S.E....gzGN.|e.
    5f7c:	c75bb4aa c81311ca 323c0fce e99d39e1     ..[.......<2.9..
    5f8c:	5e5359c4 1a521688 a6b214b7 250520cd     .YS^..R...... .%
    5f9c:	00000000 02ddd06e 9ea86f80 0c06de25     ....n....o..%...
    5fac:	86acd319 d687bbca 5cd0dda0 f4843b33     ...........\3;..
    5fbc:	00000000 790a6472 b2cfb1fb b3b4096e     ....rd.y....n...
    5fcc:	9e388553 5ea533d6 d0062909 e186711a     S.8..3.^.)...q..
    5fdc:	00000000 d1b872c6 28ed56ef 62c387ab     .....r...V.(...b
    5fec:	0614512c d73add9b 7473f9b8 1ec0d098     ,Q....:...st....
    5ffc:	7a96f0ce 00000000 9003e097 a571b93b     ...z........;.q.
    600c:	820cce23 73d6a5bd 0db9763c 597530eb     #......s<v...0uY
    601c:	35ddbdc1 f6438736 52313b56 7e5acd14     ...56.C.V;1R..Z~
    602c:	93cfbce0 3676977c 78b9c00b fb7b706b     ....|.v6...xkp{.
    603c:	5750fbc4 bbed5561 d8ddd5bf fa763ae4     ..PWaU.......:v.
    604c:	780cecf2 4f6484fc 0a6b8d18 e5288cb6     ...x..dO..k...(.
    605c:	31f03f30 fad923a2 e87138fb 63af0854     0?.1.#...8q.T..c
    606c:	fa29e681 068874e6 8a39688c 5e668f75     ..)..t...h9.u.f^
    607c:	8d25122c fbeff89f 4b53ec31 ffeb400c     ,.%.....1.SK.@..
    608c:	e19033b4 a2ca6fe2 c28ad68f af1c7e4f     .3...o......O~..
    609c:	3157fae0 0517dc03 c9ed778a 1814eab3     ..W1.....w......
    60ac:	f5a75ab4 6d127e97 78c76148 213263ed     .Z...~.mHa.x.c2!
    60bc:	e6ee8175 6239d774 29a5632e f4110cf1     u...t.9b.c.)....
    60cc:	fed8e3a9 ad48a8ae 755690e0 fa8f45f6     ......H...Vu.E..
    60dc:	74522f13 583df29a 00e53844              ./Rt..=XD8..

000060e8 <g_sha2_tp>:
    60e8:	00000002 00000000 00000000 00005e4c     ............L^..
    60f8:	00000002 000000a3 00005514 00005e6c     .........U..l^..
    6108:	00000003 00000000 00000000 00005e8c     .............^..
    6118:	00000003 000000a3 000055b8 0000565c     .........U..\V..
    6128:	00000004 00000000 00000000 00005eb0     .............^..
    6138:	00000004 000000e3 00005680 00005ee4     .........V...^..
    6148:	00000005 00000000 00000000 00005f18     ............._..
    6158:	00000005 000000e3 00005764 00005f5c     ........dW..\_..
    6168:	00000006 00000000 00000000 00005fa0     ............._..
    6178:	00000006 000000e3 00005848 00005fc0     ........HX..._..
    6188:	00000007 00000000 00000000 00005fe0     ............._..
    6198:	00000007 000000e3 00006004 0000592c     .........`..,Y..
    61a8:	00001246 00001286 0000124c 00001286     F.......L.......
    61b8:	00001256 00001286 00001260 0000126a     V.......`...j...
    61c8:	00001286 00001272 00001240 00001286     ....r...@.......
    61d8:	0000127a 00001286 00001280 000012b4     z...............
    61e8:	000012c6 000012d2 000012de 000012e8     ................
    61f8:	000012f2 000012fc 0000136c 00001306     ........l.......
    6208:	0000130e 00001318 00001326 00001334     ........&...4...
    6218:	00001342 00001350 0000135e 00001394     B...P...^.......
    6228:	0000139a 000013a0 000013a6 000013c8     ................
    6238:	000013dc                                ....

0000623c <g_clock_name_mappings>:
	...
    62ac:	00390038 00000000 00660000 00000067     8.9.......f.g...
    62bc:	002d002c 0040002e 006b006a 007b007a     ,.-...@.j.k.z.{.
    62cc:	0000007c 00000000                       |.......

000062d4 <g_peripheral_features_list>:
	...
    630c:	00004848 00303000 36303030 40403030     HH...00.000600@@
    631c:	00000040                                @...

00006320 <max_sys_clks_in_usb.5>:
	...
    6328:	03938700 01c9c380 03938700 01c9c380     ................
    6338:	03938700 01c9c380 00000000 00000000     ................
	...
    6350:	03938700 01c9c380                       ........

00006358 <max_sys_clks_in_vlpr.4>:
	...
    6360:	003d0900 000f4240 003d0900 000f4240     ..=.@B....=.@B..
    6370:	003d0900 000f4240 00000000 00000000     ..=.@B..........
	...
    6388:	003d0900 000f4240                       ..=.@B..

00006390 <s_lpuart_clk_names>:
    6390:	00004544                                DE..

00006394 <s_lpuart_irq_id>:
    6394:	00001e1f                                ....

00006398 <sp_lpuart_base>:
    6398:	4006a000 4006b000 4f525245 255b0052     ...@...@ERROR.[%
    63a8:	25205d73 3a292873 616d6d20 78302070     s] %s(): mmap 0x
    63b8:	78383025 69616620 0a64656c               %08x failed..

000063c5 <__func__.0>:
    63c5:	73667570 646f6d5f 5f656c75 74696e69     pufs_module_init
    63d5:	73255b00 7325205d 203a2928 5252455b     .[%s] %s(): [ERR
    63e5:	205d524f 20414d44 74617473 30207375     OR] DMA status 0
    63f5:	7830203a 6c383025 000a0a78 5d73255b     : 0x%08lx...[%s]
    6405:	28732520 5b203a29 4f525245 48205d52      %s(): [ERROR] H
    6415:	2043414d 74617473 203a7375 30257830     MAC status: 0x%0
    6425:	0a786c38                                 8lx...

0000642b <__func__.0>:
    642b:	6d685f5f 635f6361 755f7874 74616470     __hmac_ctx_updat
    643b:	255b0065 25205d73 3a292873 72756320     e.[%s] %s(): cur
    644b:	746e6572 72657620 6e6f6973 25783020     rent version 0x%
    645b:	73692078 746f6e20 74616d20 64656863     x is not matched
    646b:	206f7420 70707573 6574726f 65762064      to supported ve
    647b:	6f697372 7830206e 000a7825              rsion 0x%x..

00006487 <__func__.0>:
    6487:	73726576 5f6e6f69 63656863 255b006b     version_check.[%
    6497:	25205d73 3a292873 50574b20 61747320     s] %s(): KWP sta
    64a7:	3a737574 25783020 786c3830               tus: 0x%08lx...

000064b6 <__func__.0>:
    64b6:	73667570 70776b5f 6174735f 00007472     pufs_kwp_start..
	...

000064c8 <__sf_fake_stderr>:
	...

000064e8 <__sf_fake_stdin>:
	...

00006508 <__sf_fake_stdout>:
	...
    6528:	2b302d23 6c680020 6665004c 47464567     #-0+ .hlL.efgEFG
    6538:	32313000 36353433 41393837 45444342     .0123456789ABCDE
    6548:	31300046 35343332 39383736 64636261     F.0123456789abcd
    6558:	00006665                                ef..

0000655c <_init>:
_init():
    655c:	b5f8      	push	{r3, r4, r5, r6, r7, lr}
    655e:	46c0      	nop			; (mov r8, r8)

00006560 <_fini>:
_fini():
    6560:	b5f8      	push	{r3, r4, r5, r6, r7, lr}
    6562:	46c0      	nop			; (mov r8, r8)
